

Microchip MPLAB XC8 Assembler V2.40 build 20220703182018 
                                                                                               Fri Aug 04 16:31:32 2023

Microchip MPLAB XC8 C Compiler v2.40 (Free license) build 20220703182018 Og1 
     1                           	processor	18F4620
     2                           	fnconf	rparam,??,?,0
     3                           	pagewidth 120
     4                           	opt	flic
     5                           	psect	idataCOMRAM,global,class=CODE,delta=1,noexec
     6                           	psect	idataBANK0,global,class=CODE,delta=1,noexec
     7                           	psect	smallconst,global,reloc=2,class=SMALLCONST,delta=1,noexec
     8                           	psect	nvCOMRAM,global,class=COMRAM,space=1,delta=1,lowdata,noexec
     9                           	psect	cinit,global,reloc=2,class=CODE,delta=1
    10                           	psect	bssCOMRAM,global,class=COMRAM,space=1,delta=1,lowdata,noexec
    11                           	psect	dataCOMRAM,global,class=COMRAM,space=1,delta=1,lowdata,noexec
    12                           	psect	bssBANK0,global,class=BANK0,space=1,delta=1,lowdata,noexec
    13                           	psect	dataBANK0,global,class=BANK0,space=1,delta=1,lowdata,noexec
    14                           	psect	cstackCOMRAM,global,class=COMRAM,space=1,delta=1,lowdata,noexec
    15                           	psect	text0,global,reloc=2,class=CODE,delta=1
    16                           	psect	text1,global,reloc=2,class=CODE,delta=1,group=3
    17                           	psect	text2,global,reloc=2,class=CODE,delta=1,group=2
    18                           	psect	text3,global,reloc=2,class=CODE,delta=1,group=2
    19                           	psect	text4,global,reloc=2,class=CODE,delta=1,group=2
    20                           	psect	text5,global,reloc=2,class=CODE,delta=1,group=2
    21                           	psect	text6,global,reloc=2,class=CODE,delta=1
    22                           	psect	text7,global,reloc=2,class=CODE,delta=1
    23                           	psect	text8,global,reloc=2,class=CODE,delta=1,group=3
    24                           	psect	text9,global,reloc=2,class=CODE,delta=1,group=1
    25                           	psect	text10,global,reloc=2,class=CODE,delta=1,group=1
    26                           	psect	text11,global,reloc=2,class=CODE,delta=1,group=1
    27                           	psect	text12,global,reloc=2,class=CODE,delta=1,group=1
    28                           	psect	text13,global,reloc=2,class=CODE,delta=1,group=3
    29                           	psect	text14,global,reloc=2,class=CODE,delta=1,group=3
    30                           	psect	text15,global,reloc=2,class=CODE,delta=1,group=3
    31                           	psect	text16,global,reloc=2,class=CODE,delta=1,group=3
    32                           	psect	text17,global,reloc=2,class=CODE,delta=1,group=2
    33                           	psect	text18,global,reloc=2,class=CODE,delta=1,group=2
    34                           	psect	text19,global,reloc=2,class=CODE,delta=1,group=3
    35                           	psect	text20,global,reloc=2,class=CODE,delta=1
    36                           	psect	text21,global,reloc=2,class=CODE,delta=1
    37                           	psect	text22,global,reloc=2,class=CODE,delta=1
    38                           	psect	text23,global,reloc=2,class=CODE,delta=1
    39                           	psect	text24,global,reloc=2,class=CODE,delta=1
    40                           	psect	text25,global,reloc=2,class=CODE,delta=1
    41                           	psect	text26,global,reloc=2,class=CODE,delta=1
    42                           	psect	text27,global,reloc=2,class=CODE,delta=1
    43                           	psect	text28,global,reloc=2,class=CODE,delta=1
    44                           	psect	text29,global,reloc=2,class=CODE,delta=1,group=2
    45                           	psect	text30,global,reloc=2,class=CODE,delta=1,group=2
    46                           	psect	text31,global,reloc=2,class=CODE,delta=1
    47                           	psect	text32,global,reloc=2,class=CODE,delta=1
    48                           	psect	text33,global,reloc=2,class=CODE,delta=1
    49                           	psect	text34,global,reloc=2,class=CODE,delta=1
    50                           	psect	text35,global,reloc=2,class=CODE,delta=1
    51                           	psect	text36,global,reloc=2,class=CODE,delta=1
    52                           	psect	text37,global,reloc=2,class=CODE,delta=1
    53                           	psect	text38,global,reloc=2,class=CODE,delta=1
    54                           	psect	text39,global,reloc=2,class=CODE,delta=1
    55                           	psect	text40,global,reloc=2,class=CODE,delta=1
    56                           	psect	text41,global,reloc=2,class=CODE,delta=1,group=2
    57                           	psect	text42,global,reloc=2,class=CODE,delta=1,group=2
    58                           	psect	text43,global,reloc=2,class=CODE,delta=1,group=2
    59                           	psect	text44,global,reloc=2,class=CODE,delta=1,group=2
    60                           	psect	text45,global,reloc=2,class=CODE,delta=1
    61                           	psect	text46,global,reloc=2,class=CODE,delta=1
    62                           	psect	text47,global,reloc=2,class=CODE,delta=1
    63                           	psect	text48,global,reloc=2,class=CODE,delta=1
    64                           	psect	text49,global,reloc=2,class=CODE,delta=1
    65                           	psect	intsave_regs,global,class=BIGRAM,space=1,delta=1,noexec
    66                           	psect	rparam,global,class=COMRAM,space=1,delta=1,noexec
    67                           	psect	idloc,global,abs,ovrld,class=IDLOC,space=5,delta=1,noexec
    68                           	psect	config,global,abs,ovrld,class=CONFIG,space=4,delta=1,noexec
    69   000000                     
    70                           ; Version 2.40
    71                           ; Generated 17/11/2021 GMT
    72                           ; 
    73                           ; Copyright © 2021, Microchip Technology Inc. and its subsidiaries ("Microchip")
    74                           ; All rights reserved.
    75                           ; 
    76                           ; This software is developed by Microchip Technology Inc. and its subsidiaries ("Microch
      +                          ip").
    77                           ; 
    78                           ; Redistribution and use in source and binary forms, with or without modification, are
    79                           ; permitted provided that the following conditions are met:
    80                           ; 
    81                           ;     1. Redistributions of source code must retain the above copyright notice, this lis
      +                          t of
    82                           ;        conditions and the following disclaimer.
    83                           ; 
    84                           ;     2. Redistributions in binary form must reproduce the above copyright notice, this 
      +                          list
    85                           ;        of conditions and the following disclaimer in the documentation and/or other
    86                           ;        materials provided with the distribution. Publication is not required when
    87                           ;        this file is used in an embedded application.
    88                           ; 
    89                           ;     3. Microchip's name may not be used to endorse or promote products derived from th
      +                          is
    90                           ;        software without specific prior written permission.
    91                           ; 
    92                           ; THIS SOFTWARE IS PROVIDED BY MICROCHIP "AS IS" AND ANY EXPRESS OR IMPLIED WARRANTIES,
    93                           ; INCLUDING, BUT NOT LIMITED TO, THE IMPLIED WARRANTIES OF MERCHANTABILITY AND FITNESS F
      +                          OR
    94                           ; PURPOSE ARE DISCLAIMED.  IN NO EVENT SHALL MICROCHIP BE LIABLE FOR ANY DIRECT, INDIREC
      +                          T,
    95                           ; INCIDENTAL, SPECIAL, EXEMPLARY, OR CONSEQUENTIAL DAMAGES (INCLUDING BUT NOT LIMITED TO
    96                           ; PROCUREMENT OF SUBSTITUTE GOODS OR SERVICES; LOSS OF USE, DATA OR PROFITS; OR BUSINESS
    97                           ; INTERRUPTION) HOWSOEVER CAUSED AND ON ANY THEORY OF LIABILITY, WHETHER IN CONTRACT, ST
      +                          RICT
    98                           ; LIABILITY, OR TORT (INCLUDING NEGLIGENCE OR OTHERWISE) ARISING IN ANY WAY OUT OF THE U
      +                          SE OF
    99                           ; THIS SOFTWARE, EVEN IF ADVISED OF THE POSSIBILITY OF SUCH DAMAGE.
   100                           ; 
   101                           ; 
   102                           ; Code-generator required, PIC18F4620 Definitions
   103                           ; 
   104                           ; SFR Addresses
   105   000000                     
   106                           	psect	idataCOMRAM
   107   0041AC                     __pidataCOMRAM:
   108                           	callstack 0
   109                           
   110                           ;initializer for _ret
   111   0041AC  01                 	db	1
   112                           
   113                           ;initializer for _motor
   114   0041AD  02                 	db	2
   115   0041AE  0A                 	db	10
   116                           
   117                           	psect	idataBANK0
   118   004104                     __pidataBANK0:
   119                           	callstack 0
   120                           
   121                           ;initializer for _lat_registers
   122   004104  89                 	db	137
   123   004105  0F                 	db	15
   124   004106  8A                 	db	138
   125   004107  0F                 	db	15
   126   004108  8B                 	db	139
   127   004109  0F                 	db	15
   128   00410A  8C                 	db	140
   129   00410B  0F                 	db	15
   130   00410C  8D                 	db	141
   131   00410D  0F                 	db	15
   132                           
   133                           ;initializer for _port_registers
   134   00410E  80                 	db	128
   135   00410F  0F                 	db	15
   136   004110  93                 	db	147
   137   004111  0F                 	db	15
   138   004112  82                 	db	130
   139   004113  0F                 	db	15
   140   004114  83                 	db	131
   141   004115  0F                 	db	15
   142   004116  84                 	db	132
   143   004117  0F                 	db	15
   144                           
   145                           ;initializer for _tris_registers
   146   004118  92                 	db	146
   147   004119  0F                 	db	15
   148   00411A  93                 	db	147
   149   00411B  0F                 	db	15
   150   00411C  94                 	db	148
   151   00411D  0F                 	db	15
   152   00411E  95                 	db	149
   153   00411F  0F                 	db	15
   154   004120  96                 	db	150
   155   004121  0F                 	db	15
   156                           
   157                           ;initializer for _lcd
   158   004122  32                 	db	50
   159   004123  3A                 	db	58
   160   004124  03                 	db	3
   161   004125  0B                 	db	11
   162   004126  13                 	db	19
   163   004127  1B                 	db	27
   164   004128  23                 	db	35
   165   004129  2B                 	db	43
   166   00412A  33                 	db	51
   167   00412B  3B                 	db	59
   168                           
   169                           ;initializer for _pwm
   170   00412C  1388               	dw	5000
   171   00412E  0000               	dw	0
   172   004130  01                 	db	1
   173   004131  01                 	db	1
   174                           
   175                           ;initializer for _adc
   176   004132  05                 	db	5
   177   004133  05                 	db	5
   178   004134  00                 	db	0
   179   004135  01                 	db	1
   180                           
   181                           	psect	smallconst
   182   001000                     __psmallconst:
   183                           	callstack 0
   184   001000  00                 	db	0
   185   001001  0000               	dw	0
   186   001003  4B00               	dw	19200
   187   001005                     __end_of_toint:
   188                           	callstack 0
   189   000000                     _ADCON1bits	set	4033
   190   000000                     _TRISD	set	3989
   191   000000                     _TRISC	set	3988
   192   000000                     _TRISB	set	3987
   193   000000                     _TRISE	set	3990
   194   001005                     STR_1:
   195   001005  46                 	db	70	;'F'
   196   001006  41                 	db	65	;'A'
   197   001007  4E                 	db	78	;'N'
   198   001008  20                 	db	32
   199   001009  4F                 	db	79	;'O'
   200   00100A  46                 	db	70	;'F'
   201   00100B  46                 	db	70	;'F'
   202   00100C  20                 	db	32
   203   00100D  2D                 	db	45
   204   00100E  4C                 	db	76	;'L'
   205   00100F  65                 	db	101	;'e'
   206   001010  76                 	db	118	;'v'
   207   001011  65                 	db	101	;'e'
   208   001012  6C                 	db	108	;'l'
   209   001013  20                 	db	32
   210   001014  20                 	db	32
   211   001015  00                 	db	0
   212   001016                     STR_2:
   213   001016  54                 	db	84	;'T'
   214   001017  45                 	db	69	;'E'
   215   001018  4D                 	db	77	;'M'
   216   001019  50                 	db	80	;'P'
   217   00101A  3A                 	db	58	;':'
   218   00101B  20                 	db	32
   219   00101C  00                 	db	0
   220   00101D                     STR_4:
   221   00101D  4F                 	db	79	;'O'
   222   00101E  4E                 	db	78	;'N'
   223   00101F  20                 	db	32
   224   001020  00                 	db	0
   225   001021                     STR_3:
   226   001021  4F                 	db	79	;'O'
   227   001022  46                 	db	70	;'F'
   228   001023  46                 	db	70	;'F'
   229   001024  00                 	db	0
   230   001025                     STR_5:
   231   001025  25                 	db	37
   232   001026  69                 	db	105	;'i'
   233   001027  00                 	db	0
   234   001028  00                 	db	0	; dummy byte at the end
   235   000000                     
   236                           	psect	nvCOMRAM
   237   00007D                     __pnvCOMRAM:
   238                           	callstack 0
   239   00007D                     _lm35_value_in_celsuis:
   240                           	callstack 0
   241   00007D                     	ds	2
   242   000000                     _TRISCbits	set	3988
   243   000000                     _ADCON2bits	set	4032
   244   000000                     _ADCON0bits	set	4034
   245   000000                     _PORTC	set	3970
   246   000000                     _PORTA	set	3968
   247   000000                     _TRISA	set	3986
   248   000000                     _T2CONbits	set	4042
   249   000000                     _PR2	set	4043
   250   000000                     _ADRESH	set	4036
   251   000000                     _ADRESL	set	4035
   252   000000                     _CCP1CONbits	set	4029
   253   000000                     _LATA	set	3977
   254   000000                     _PORTE	set	3972
   255   000000                     _PORTD	set	3971
   256   000000                     _LATE	set	3981
   257   000000                     _LATD	set	3980
   258   000000                     _LATC	set	3979
   259   000000                     _LATB	set	3978
   260   000000                     _CCPR1L	set	4030
   261   000000                     _TMR2	set	4044
   262                           
   263                           ; #config settings
   264                           
   265                           	psect	cinit
   266   003D8C                     __pcinit:
   267                           	callstack 0
   268   003D8C                     start_initialization:
   269                           	callstack 0
   270   003D8C                     __initialization:
   271                           	callstack 0
   272                           
   273                           ; Initialize objects allocated to BANK0 (50 bytes)
   274                           ; load TBLPTR registers with __pidataBANK0
   275   003D8C  0E04               	movlw	low __pidataBANK0
   276   003D8E  6EF6               	movwf	tblptrl,c
   277   003D90  0E41               	movlw	high __pidataBANK0
   278   003D92  6EF7               	movwf	tblptrh,c
   279   003D94  0E00               	movlw	low (__pidataBANK0 shr (0+16))
   280   003D96  6EF8               	movwf	tblptru,c
   281   003D98  EE00  F080         	lfsr	0,__pdataBANK0
   282   003D9C  EE10 F032          	lfsr	1,50
   283   003DA0                     copy_data0:
   284   003DA0  0009               	tblrd		*+
   285   003DA2  CFF5 FFEE          	movff	tablat,postinc0
   286   003DA6  50E5               	movf	postdec1,w,c
   287   003DA8  50E1               	movf	fsr1l,w,c
   288   003DAA  E1FA               	bnz	copy_data0
   289                           
   290                           ; Initialize objects allocated to COMRAM (3 bytes)
   291                           ; load TBLPTR registers with __pidataCOMRAM
   292   003DAC  0EAC               	movlw	low __pidataCOMRAM
   293   003DAE  6EF6               	movwf	tblptrl,c
   294   003DB0  0E41               	movlw	high __pidataCOMRAM
   295   003DB2  6EF7               	movwf	tblptrh,c
   296   003DB4  0E00               	movlw	low (__pidataCOMRAM shr (0+16))
   297   003DB6  6EF8               	movwf	tblptru,c
   298   003DB8  0009               	tblrd		*+	;fetch initializer
   299   003DBA  CFF5 F07A          	movff	tablat,__pdataCOMRAM
   300   003DBE  0009               	tblrd		*+	;fetch initializer
   301   003DC0  CFF5 F07B          	movff	tablat,__pdataCOMRAM+1
   302   003DC4  0009               	tblrd		*+	;fetch initializer
   303   003DC6  CFF5 F07C          	movff	tablat,__pdataCOMRAM+2
   304                           
   305                           ; Clear objects allocated to BANK0 (43 bytes)
   306   003DCA  EE00  F0B2         	lfsr	0,__pbssBANK0
   307   003DCE  0E2B               	movlw	43
   308   003DD0                     clear_0:
   309   003DD0  6AEE               	clrf	postinc0,c
   310   003DD2  06E8               	decf	wreg,f,c
   311   003DD4  E1FD               	bnz	clear_0
   312                           
   313                           ; Clear objects allocated to COMRAM (9 bytes)
   314   003DD6  EE00  F071         	lfsr	0,__pbssCOMRAM
   315   003DDA  0E09               	movlw	9
   316   003DDC                     clear_1:
   317   003DDC  6AEE               	clrf	postinc0,c
   318   003DDE  06E8               	decf	wreg,f,c
   319   003DE0  E1FD               	bnz	clear_1
   320   003DE2                     end_of_initialization:
   321                           	callstack 0
   322   003DE2                     __end_of__initialization:
   323                           	callstack 0
   324   003DE2  0E00               	movlw	low (__Lmediumconst shr (0+16))
   325   003DE4  6EF8               	movwf	tblptru,c
   326   003DE6  0100               	movlb	0
   327   003DE8  EF2E  F010         	goto	_main	;jump to C main() function
   328                           
   329                           	psect	bssCOMRAM
   330   000071                     __pbssCOMRAM:
   331                           	callstack 0
   332   000071                     _width:
   333                           	callstack 0
   334   000071                     	ds	2
   335   000073                     _prec:
   336                           	callstack 0
   337   000073                     	ds	2
   338   000075                     _flags:
   339                           	callstack 0
   340   000075                     	ds	1
   341   000076                     _temperature_level:
   342                           	callstack 0
   343   000076                     	ds	1
   344   000077                     _tmr2_preload_value:
   345                           	callstack 0
   346   000077                     	ds	1
   347   000078                     _lm35_value:
   348                           	callstack 0
   349   000078                     	ds	2
   350                           
   351                           	psect	dataCOMRAM
   352   00007A                     __pdataCOMRAM:
   353                           	callstack 0
   354   00007A                     _ret:
   355                           	callstack 0
   356   00007A                     	ds	1
   357   00007B                     _motor:
   358                           	callstack 0
   359   00007B                     	ds	2
   360                           
   361                           	psect	bssBANK0
   362   0000B2                     __pbssBANK0:
   363                           	callstack 0
   364   0000B2                     roundf@F527:
   365                           	callstack 0
   366   0000B2                     	ds	4
   367   0000B6                     _dbuf:
   368                           	callstack 0
   369   0000B6                     	ds	32
   370   0000D6                     _lm35_value_text:
   371                           	callstack 0
   372   0000D6                     	ds	4
   373   0000DA                     _timer2:
   374                           	callstack 0
   375   0000DA                     	ds	3
   376                           
   377                           	psect	dataBANK0
   378   000080                     __pdataBANK0:
   379                           	callstack 0
   380   000080                     _lat_registers:
   381                           	callstack 0
   382   000080                     	ds	10
   383   00008A                     _port_registers:
   384                           	callstack 0
   385   00008A                     	ds	10
   386   000094                     _tris_registers:
   387                           	callstack 0
   388   000094                     	ds	10
   389   00009E                     _lcd:
   390                           	callstack 0
   391   00009E                     	ds	10
   392   0000A8                     _pwm:
   393                           	callstack 0
   394   0000A8                     	ds	6
   395   0000AE                     _adc:
   396                           	callstack 0
   397   0000AE                     	ds	4
   398                           
   399                           	psect	cstackCOMRAM
   400   000001                     __pcstackCOMRAM:
   401                           	callstack 0
   402   000001                     ??_ADC_Configure_Channel_pin:
   403   000001                     ?___fladd:
   404                           	callstack 0
   405   000001                     ?___lmul:
   406                           	callstack 0
   407   000001                     ?___flneg:
   408                           	callstack 0
   409   000001                     ?___xxtofl:
   410                           	callstack 0
   411   000001                     ?___aodiv:
   412                           	callstack 0
   413   000001                     ?___aomod:
   414                           	callstack 0
   415   000001                     ADC_startConversion@_adc:
   416                           	callstack 0
   417   000001                     ADC_getConversionResult@_adc:
   418                           	callstack 0
   419   000001                     gpio_pin_direction_intialize@_pin_config:
   420                           	callstack 0
   421   000001                     gpio_pin_write_logic@_pin_config:
   422                           	callstack 0
   423   000001                     timer2_intialize@_timer:
   424                           	callstack 0
   425   000001                     memset@dest:
   426                           	callstack 0
   427   000001                     fputc@c:
   428                           	callstack 0
   429   000001                     ___lmul@multiplier:
   430                           	callstack 0
   431   000001                     ___flge@ff1:
   432                           	callstack 0
   433   000001                     ___flneg@f1:
   434                           	callstack 0
   435   000001                     ___fladd@b:
   436                           	callstack 0
   437   000001                     ___xxtofl@val:
   438                           	callstack 0
   439   000001                     ___aodiv@dividend:
   440                           	callstack 0
   441   000001                     ___aomod@dividend:
   442                           	callstack 0
   443                           
   444                           ; 8 bytes @ 0x0
   445   000001                     	ds	2
   446   000003                     ??_gpio_pin_direction_intialize:
   447   000003                     ??_timer2_intialize:
   448   000003                     ADC_startConversion@ret:
   449                           	callstack 0
   450   000003                     ADC_Configure_Channel_pin@channel:
   451                           	callstack 0
   452   000003                     gpio_pin_write_logic@logic:
   453                           	callstack 0
   454   000003                     ADC_getConversionResult@result:
   455                           	callstack 0
   456   000003                     memset@c:
   457                           	callstack 0
   458   000003                     fputc@fp:
   459                           	callstack 0
   460                           
   461                           ; 2 bytes @ 0x2
   462   000003                     	ds	1
   463   000004                     ??_gpio_pin_write_logic:
   464   000004                     ADC_Configure_Channel_pin@ret:
   465                           	callstack 0
   466   000004                     timer2_intialize@ret:
   467                           	callstack 0
   468                           
   469                           ; 1 bytes @ 0x3
   470   000004                     	ds	1
   471   000005                     ??_fputc:
   472   000005                     ??_ADC_getConversionResult:
   473   000005                     ??___xxtofl:
   474   000005                     ADC_intialize@_adc:
   475                           	callstack 0
   476   000005                     ADC_selectChannel@_adc:
   477                           	callstack 0
   478   000005                     memset@n:
   479                           	callstack 0
   480   000005                     ___lmul@multiplicand:
   481                           	callstack 0
   482   000005                     ___flge@ff2:
   483                           	callstack 0
   484   000005                     ___fladd@a:
   485                           	callstack 0
   486                           
   487                           ; 4 bytes @ 0x4
   488   000005                     	ds	2
   489   000007                     ??_memset:
   490   000007                     ??_ADC_intialize:
   491   000007                     ADC_selectChannel@channel:
   492                           	callstack 0
   493                           
   494                           ; 1 bytes @ 0x6
   495   000007                     	ds	1
   496   000008                     ??_ADC_selectChannel:
   497   000008                     ADC_intialize@ret:
   498                           	callstack 0
   499                           
   500                           ; 1 bytes @ 0x7
   501   000008                     	ds	1
   502   000009                     ??___fladd:
   503   000009                     ??___flge:
   504   000009                     ADC_selectChannel@ret:
   505                           	callstack 0
   506   000009                     gpio_pin_direction_intialize@ret:
   507                           	callstack 0
   508   000009                     ___xxtofl@sign:
   509                           	callstack 0
   510   000009                     memset@k:
   511                           	callstack 0
   512   000009                     ___lmul@product:
   513                           	callstack 0
   514   000009                     ___aodiv@divisor:
   515                           	callstack 0
   516   000009                     ___aomod@divisor:
   517                           	callstack 0
   518                           
   519                           ; 8 bytes @ 0x8
   520   000009                     	ds	1
   521   00000A                     gpio_pin_write_logic@ret:
   522                           	callstack 0
   523   00000A                     ___xxtofl@exp:
   524                           	callstack 0
   525   00000A                     fputs@s:
   526                           	callstack 0
   527                           
   528                           ; 2 bytes @ 0x9
   529   00000A                     	ds	1
   530   00000B                     ADC_getConversionResult@ret:
   531                           	callstack 0
   532   00000B                     motor_move@motor:
   533                           	callstack 0
   534   00000B                     gpio_pin_intialize@_pin_config:
   535                           	callstack 0
   536   00000B                     send_8bit_enable_signal@lcd:
   537                           	callstack 0
   538   00000B                     memset@s:
   539                           	callstack 0
   540   00000B                     ___xxtofl@arg:
   541                           	callstack 0
   542                           
   543                           ; 4 bytes @ 0xA
   544   00000B                     	ds	1
   545   00000C                     ADC_getConversionBlocking@_adc:
   546                           	callstack 0
   547   00000C                     fputs@fp:
   548                           	callstack 0
   549                           
   550                           ; 2 bytes @ 0xB
   551   00000C                     	ds	1
   552   00000D                     ??_gpio_pin_intialize:
   553   00000D                     ?___lldiv:
   554                           	callstack 0
   555   00000D                     motor_move@ret:
   556                           	callstack 0
   557   00000D                     send_8bit_enable_signal@ret:
   558                           	callstack 0
   559   00000D                     ___fladd@signs:
   560                           	callstack 0
   561   00000D                     ___lldiv@dividend:
   562                           	callstack 0
   563                           
   564                           ; 4 bytes @ 0xC
   565   00000D                     	ds	1
   566   00000E                     ADC_getConversionBlocking@channel:
   567                           	callstack 0
   568   00000E                     gpio_pin_intialize@ret:
   569                           	callstack 0
   570   00000E                     ___fladd@aexp:
   571                           	callstack 0
   572   00000E                     fputs@c:
   573                           	callstack 0
   574   00000E                     lcd_8bit_send_command@lcd:
   575                           	callstack 0
   576   00000E                     lcd_8bit_send_char@lcd:
   577                           	callstack 0
   578                           
   579                           ; 2 bytes @ 0xD
   580   00000E                     	ds	1
   581   00000F                     ?___fldiv:
   582                           	callstack 0
   583   00000F                     ___fladd@bexp:
   584                           	callstack 0
   585   00000F                     motor_intialize@motor:
   586                           	callstack 0
   587   00000F                     ADC_getConversionBlocking@result:
   588                           	callstack 0
   589   00000F                     fputs@i:
   590                           	callstack 0
   591   00000F                     ___fldiv@b:
   592                           	callstack 0
   593                           
   594                           ; 4 bytes @ 0xE
   595   00000F                     	ds	1
   596   000010                     lcd_8bit_send_command@command:
   597                           	callstack 0
   598   000010                     lcd_8bit_send_char@data:
   599                           	callstack 0
   600   000010                     ___fladd@grs:
   601                           	callstack 0
   602                           
   603                           ; 1 bytes @ 0xF
   604   000010                     	ds	1
   605   000011                     ??_lcd_8bit_send_command:
   606   000011                     ??_lcd_8bit_send_char:
   607   000011                     ?___flsub:
   608                           	callstack 0
   609   000011                     motor_intialize@ret:
   610                           	callstack 0
   611   000011                     ADC_getConversionBlocking@ret:
   612                           	callstack 0
   613   000011                     ___aodiv@counter:
   614                           	callstack 0
   615   000011                     ___aomod@counter:
   616                           	callstack 0
   617   000011                     pad@fp:
   618                           	callstack 0
   619   000011                     ___lldiv@divisor:
   620                           	callstack 0
   621   000011                     ___flsub@b:
   622                           	callstack 0
   623                           
   624                           ; 4 bytes @ 0x10
   625   000011                     	ds	1
   626   000012                     ___aodiv@sign:
   627                           	callstack 0
   628   000012                     ___aomod@sign:
   629                           	callstack 0
   630                           
   631                           ; 1 bytes @ 0x11
   632   000012                     	ds	1
   633   000013                     ?_abs:
   634                           	callstack 0
   635   000013                     pad@buf:
   636                           	callstack 0
   637   000013                     abs@a:
   638                           	callstack 0
   639   000013                     ___fldiv@a:
   640                           	callstack 0
   641   000013                     ___aodiv@quotient:
   642                           	callstack 0
   643                           
   644                           ; 8 bytes @ 0x12
   645   000013                     	ds	2
   646   000015                     ??_abs:
   647   000015                     lcd_8bit_send_command@ret:
   648                           	callstack 0
   649   000015                     lcd_8bit_send_char@ret:
   650                           	callstack 0
   651   000015                     pad@p:
   652                           	callstack 0
   653   000015                     ___lldiv@quotient:
   654                           	callstack 0
   655   000015                     ___flsub@a:
   656                           	callstack 0
   657                           
   658                           ; 4 bytes @ 0x14
   659   000015                     	ds	1
   660   000016                     lcd_8bit_send_command@line_data_pin:
   661                           	callstack 0
   662   000016                     lcd_8bit_send_char@line_data_pin:
   663                           	callstack 0
   664                           
   665                           ; 1 bytes @ 0x15
   666   000016                     	ds	1
   667   000017                     ??___fldiv:
   668   000017                     ??_pad:
   669   000017                     lcd_8bit_intialize@lcd:
   670                           	callstack 0
   671   000017                     lcd_8bit_send_string@lcd:
   672                           	callstack 0
   673   000017                     lcd_8bit_set_cursor@lcd:
   674                           	callstack 0
   675                           
   676                           ; 2 bytes @ 0x16
   677   000017                     	ds	1
   678   000018                     pad@i:
   679                           	callstack 0
   680                           
   681                           ; 2 bytes @ 0x17
   682   000018                     	ds	1
   683   000019                     ??_lcd_8bit_intialize:
   684   000019                     lcd_8bit_set_cursor@row:
   685                           	callstack 0
   686   000019                     ___lldiv@counter:
   687                           	callstack 0
   688   000019                     lcd_8bit_send_string@string:
   689                           	callstack 0
   690                           
   691                           ; 2 bytes @ 0x18
   692   000019                     	ds	1
   693   00001A                     lcd_8bit_set_cursor@colomn:
   694                           	callstack 0
   695   00001A                     CCP1_PWM_Intialize@pwm:
   696                           	callstack 0
   697   00001A                     pad@w:
   698                           	callstack 0
   699                           
   700                           ; 2 bytes @ 0x19
   701   00001A                     	ds	1
   702   00001B                     ??_lcd_8bit_set_cursor:
   703   00001B                     lcd_8bit_intialize@pin:
   704                           	callstack 0
   705   00001B                     lcd_8bit_send_string@ret:
   706                           	callstack 0
   707   00001B                     ___fldiv@rem:
   708                           	callstack 0
   709                           
   710                           ; 4 bytes @ 0x1A
   711   00001B                     	ds	1
   712   00001C                     ??_CCP1_PWM_Intialize:
   713   00001C                     lcd_8bit_intialize@ret:
   714                           	callstack 0
   715   00001C                     dtoa@fp:
   716                           	callstack 0
   717                           
   718                           ; 2 bytes @ 0x1B
   719   00001C                     	ds	1
   720   00001D                     ecu_layer_int@ret:
   721                           	callstack 0
   722   00001D                     lcd_8bit_set_cursor@ret:
   723                           	callstack 0
   724                           
   725                           ; 1 bytes @ 0x1C
   726   00001D                     	ds	1
   727   00001E                     lcd_8bit_send_char_pos@lcd:
   728                           	callstack 0
   729   00001E                     lcd_8bit_send_string_pos@lcd:
   730                           	callstack 0
   731   00001E                     dtoa@d:
   732                           	callstack 0
   733                           
   734                           ; 8 bytes @ 0x1D
   735   00001E                     	ds	1
   736   00001F                     ___fldiv@sign:
   737                           	callstack 0
   738                           
   739                           ; 1 bytes @ 0x1E
   740   00001F                     	ds	1
   741   000020                     lcd_8bit_send_char_pos@row:
   742                           	callstack 0
   743   000020                     lcd_8bit_send_string_pos@row:
   744                           	callstack 0
   745   000020                     ___fldiv@new_exp:
   746                           	callstack 0
   747                           
   748                           ; 2 bytes @ 0x1F
   749   000020                     	ds	1
   750   000021                     lcd_8bit_send_char_pos@colomn:
   751                           	callstack 0
   752   000021                     lcd_8bit_send_string_pos@colomn:
   753                           	callstack 0
   754   000021                     _CCP1_PWM_Intialize$1764:
   755                           	callstack 0
   756                           
   757                           ; 4 bytes @ 0x20
   758   000021                     	ds	1
   759   000022                     lcd_8bit_send_char_pos@data:
   760                           	callstack 0
   761   000022                     lcd_8bit_send_string_pos@string:
   762                           	callstack 0
   763   000022                     ___fldiv@grs:
   764                           	callstack 0
   765                           
   766                           ; 4 bytes @ 0x21
   767   000022                     	ds	1
   768   000023                     lcd_8bit_send_char_pos@ret:
   769                           	callstack 0
   770                           
   771                           ; 1 bytes @ 0x22
   772   000023                     	ds	1
   773   000024                     lcd_8bit_send_string_pos@ret:
   774                           	callstack 0
   775                           
   776                           ; 1 bytes @ 0x23
   777   000024                     	ds	1
   778   000025                     CCP1_PWM_Intialize@ret:
   779                           	callstack 0
   780                           
   781                           ; 1 bytes @ 0x24
   782   000025                     	ds	1
   783   000026                     ??_dtoa:
   784   000026                     mcal_layer_int@ret:
   785                           	callstack 0
   786   000026                     ___fldiv@bexp:
   787                           	callstack 0
   788                           
   789                           ; 1 bytes @ 0x25
   790   000026                     	ds	1
   791   000027                     application_intialize@ret:
   792                           	callstack 0
   793   000027                     ___fldiv@aexp:
   794                           	callstack 0
   795                           
   796                           ; 1 bytes @ 0x26
   797   000027                     	ds	1
   798   000028                     ?___flmul:
   799                           	callstack 0
   800   000028                     ___flmul@b:
   801                           	callstack 0
   802                           
   803                           ; 4 bytes @ 0x27
   804   000028                     	ds	4
   805   00002C                     ___flmul@a:
   806                           	callstack 0
   807                           
   808                           ; 4 bytes @ 0x2B
   809   00002C                     	ds	2
   810   00002E                     _dtoa$1479:
   811                           	callstack 0
   812                           
   813                           ; 2 bytes @ 0x2D
   814   00002E                     	ds	2
   815   000030                     ??___flmul:
   816   000030                     dtoa@p:
   817                           	callstack 0
   818                           
   819                           ; 2 bytes @ 0x2F
   820   000030                     	ds	2
   821   000032                     dtoa@w:
   822                           	callstack 0
   823                           
   824                           ; 2 bytes @ 0x31
   825   000032                     	ds	2
   826   000034                     ___flmul@sign:
   827                           	callstack 0
   828   000034                     dtoa@n:
   829                           	callstack 0
   830                           
   831                           ; 8 bytes @ 0x33
   832   000034                     	ds	1
   833   000035                     ___flmul@grs:
   834                           	callstack 0
   835                           
   836                           ; 4 bytes @ 0x34
   837   000035                     	ds	4
   838   000039                     ___flmul@aexp:
   839                           	callstack 0
   840                           
   841                           ; 1 bytes @ 0x38
   842   000039                     	ds	1
   843   00003A                     ___flmul@bexp:
   844                           	callstack 0
   845                           
   846                           ; 1 bytes @ 0x39
   847   00003A                     	ds	1
   848   00003B                     ___flmul@prod:
   849                           	callstack 0
   850                           
   851                           ; 4 bytes @ 0x3A
   852   00003B                     	ds	1
   853   00003C                     dtoa@i:
   854                           	callstack 0
   855                           
   856                           ; 2 bytes @ 0x3B
   857   00003C                     	ds	2
   858   00003E                     dtoa@s:
   859                           	callstack 0
   860                           
   861                           ; 1 bytes @ 0x3D
   862   00003E                     	ds	1
   863   00003F                     ___flmul@temp:
   864                           	callstack 0
   865   00003F                     vfpfcnvrt@fp:
   866                           	callstack 0
   867                           
   868                           ; 2 bytes @ 0x3E
   869   00003F                     	ds	2
   870   000041                     ?_roundf:
   871                           	callstack 0
   872   000041                     vfpfcnvrt@fmt:
   873                           	callstack 0
   874   000041                     roundf@x:
   875                           	callstack 0
   876                           
   877                           ; 4 bytes @ 0x40
   878   000041                     	ds	2
   879   000043                     vfpfcnvrt@ap:
   880                           	callstack 0
   881                           
   882                           ; 2 bytes @ 0x42
   883   000043                     	ds	2
   884   000045                     ??_roundf:
   885   000045                     ??_vfpfcnvrt:
   886                           
   887                           ; 1 bytes @ 0x44
   888   000045                     	ds	2
   889   000047                     vfpfcnvrt@convarg:
   890                           	callstack 0
   891                           
   892                           ; 8 bytes @ 0x46
   893   000047                     	ds	2
   894   000049                     _roundf$1767:
   895                           	callstack 0
   896                           
   897                           ; 4 bytes @ 0x48
   898   000049                     	ds	4
   899   00004D                     roundf@e:
   900                           	callstack 0
   901                           
   902                           ; 2 bytes @ 0x4C
   903   00004D                     	ds	2
   904   00004F                     vfpfcnvrt@cp:
   905                           	callstack 0
   906   00004F                     _roundf$1766:
   907                           	callstack 0
   908                           
   909                           ; 4 bytes @ 0x4E
   910   00004F                     	ds	2
   911   000051                     ?_vfprintf:
   912                           	callstack 0
   913   000051                     vfprintf@fp:
   914                           	callstack 0
   915                           
   916                           ; 2 bytes @ 0x50
   917   000051                     	ds	2
   918   000053                     vfprintf@fmt:
   919                           	callstack 0
   920   000053                     roundf@u:
   921                           	callstack 0
   922                           
   923                           ; 4 bytes @ 0x52
   924   000053                     	ds	2
   925   000055                     vfprintf@ap:
   926                           	callstack 0
   927                           
   928                           ; 2 bytes @ 0x54
   929   000055                     	ds	2
   930   000057                     vfprintf@cfmt:
   931                           	callstack 0
   932   000057                     roundf@y:
   933                           	callstack 0
   934                           
   935                           ; 4 bytes @ 0x56
   936   000057                     	ds	2
   937   000059                     ?_sprintf:
   938                           	callstack 0
   939   000059                     sprintf@s:
   940                           	callstack 0
   941                           
   942                           ; 2 bytes @ 0x58
   943   000059                     	ds	2
   944   00005B                     ?___fltol:
   945                           	callstack 0
   946   00005B                     sprintf@fmt:
   947                           	callstack 0
   948   00005B                     ___fltol@f1:
   949                           	callstack 0
   950                           
   951                           ; 4 bytes @ 0x5A
   952   00005B                     	ds	4
   953   00005F                     ??___fltol:
   954   00005F                     sprintf@ap:
   955                           	callstack 0
   956                           
   957                           ; 2 bytes @ 0x5E
   958   00005F                     	ds	2
   959   000061                     sprintf@f:
   960                           	callstack 0
   961                           
   962                           ; 11 bytes @ 0x60
   963   000061                     	ds	2
   964   000063                     ___fltol@sign1:
   965                           	callstack 0
   966                           
   967                           ; 1 bytes @ 0x62
   968   000063                     	ds	1
   969   000064                     ___fltol@exp1:
   970                           	callstack 0
   971                           
   972                           ; 1 bytes @ 0x63
   973   000064                     	ds	1
   974   000065                     ??_CCP1_PWM_Set_Duty:
   975                           
   976                           ; 1 bytes @ 0x64
   977   000065                     	ds	2
   978   000067                     _CCP1_PWM_Set_Duty$1765:
   979                           	callstack 0
   980                           
   981                           ; 4 bytes @ 0x66
   982   000067                     	ds	4
   983   00006B                     CCP1_PWM_Set_Duty@ret:
   984                           	callstack 0
   985                           
   986                           ; 1 bytes @ 0x6A
   987   00006B                     	ds	1
   988   00006C                     CCP1_PWM_Set_Duty@duty_cycle:
   989                           	callstack 0
   990   00006C                     lcd_convert_byte_to_string@str:
   991                           	callstack 0
   992                           
   993                           ; 2 bytes @ 0x6B
   994   00006C                     	ds	2
   995   00006E                     CCP1_PWM_Set_Duty@duty:
   996                           	callstack 0
   997   00006E                     lcd_convert_byte_to_string@value:
   998                           	callstack 0
   999                           
  1000                           ; 1 bytes @ 0x6D
  1001   00006E                     	ds	1
  1002   00006F                     lcd_convert_byte_to_string@ret:
  1003                           	callstack 0
  1004                           
  1005                           ; 1 bytes @ 0x6E
  1006   00006F                     	ds	1
  1007   000070                     lcd_convert_byte_to_string@index:
  1008                           	callstack 0
  1009                           
  1010                           ; 1 bytes @ 0x6F
  1011   000070                     	ds	1
  1012   000071                     
  1013                           ; 1 bytes @ 0x70
  1014 ;;
  1015 ;;Main: autosize = 0, tempsize = 0, incstack = 0, save=0
  1016 ;;
  1017 ;; *************** function _main *****************
  1018 ;; Defined at:
  1019 ;;		line 19 in file "application.c"
  1020 ;; Parameters:    Size  Location     Type
  1021 ;;		None
  1022 ;; Auto vars:     Size  Location     Type
  1023 ;;		None
  1024 ;; Return value:  Size  Location     Type
  1025 ;;                  2  250[None  ] int 
  1026 ;; Registers used:
  1027 ;;		wreg, fsr1l, fsr1h, fsr2l, fsr2h, status,2, status,0, tblptrl, tblptrh, tblptru, prodl, prodh, cstack
  1028 ;; Tracked objects:
  1029 ;;		On entry : 0/0
  1030 ;;		On exit  : 0/0
  1031 ;;		Unchanged: 0/0
  1032 ;; Data sizes:     COMRAM   BANK0   BANK1   BANK2   BANK3   BANK4   BANK5   BANK6   BANK7   BANK8   BANK9  BANK10  BANK1
      +1  BANK12  BANK13  BANK14  BANK15
  1033 ;;      Params:         0       0       0       0       0       0       0       0       0       0       0       0       
      +0       0       0       0       0
  1034 ;;      Locals:         0       0       0       0       0       0       0       0       0       0       0       0       
      +0       0       0       0       0
  1035 ;;      Temps:          0       0       0       0       0       0       0       0       0       0       0       0       
      +0       0       0       0       0
  1036 ;;      Totals:         0       0       0       0       0       0       0       0       0       0       0       0       
      +0       0       0       0       0
  1037 ;;Total ram usage:        0 bytes
  1038 ;; Hardware stack levels required when called: 9
  1039 ;; This function calls:
  1040 ;;		_ADC_getConversionBlocking
  1041 ;;		_CCP1_PWM_Set_Duty
  1042 ;;		___fldiv
  1043 ;;		___flmul
  1044 ;;		___fltol
  1045 ;;		___xxtofl
  1046 ;;		_application_intialize
  1047 ;;		_lcd_8bit_send_char_pos
  1048 ;;		_lcd_8bit_send_string
  1049 ;;		_lcd_8bit_send_string_pos
  1050 ;;		_lcd_convert_byte_to_string
  1051 ;;		_motor_move
  1052 ;;		_roundf
  1053 ;; This function is called by:
  1054 ;;		Startup code after reset
  1055 ;; This function uses a non-reentrant model
  1056 ;;
  1057                           
  1058                           	psect	text0
  1059   00205C                     __ptext0:
  1060                           	callstack 0
  1061   00205C                     _main:
  1062                           	callstack 22
  1063   00205C                     
  1064                           ;application.c: 21:     ret = application_intialize();
  1065   00205C  ECCF  F020         	call	_application_intialize	;wreg free
  1066   002060  6E7A               	movwf	_ret^0,c
  1067   002062                     
  1068                           ;application.c: 23:     ret = lcd_8bit_send_string(&lcd, "FAN OFF -Level  ");
  1069   002062  0E9E               	movlw	low _lcd
  1070   002064  6E17               	movwf	lcd_8bit_send_string@lcd^0,c
  1071   002066  0E00               	movlw	high _lcd
  1072   002068  6E18               	movwf	(lcd_8bit_send_string@lcd+1)^0,c
  1073   00206A  0E05               	movlw	low STR_1
  1074   00206C  6E19               	movwf	lcd_8bit_send_string@string^0,c
  1075   00206E  0E10               	movlw	high STR_1
  1076   002070  6E1A               	movwf	(lcd_8bit_send_string@string+1)^0,c
  1077   002072  ECD7  F01C         	call	_lcd_8bit_send_string	;wreg free
  1078   002076  6E7A               	movwf	_ret^0,c
  1079   002078                     
  1080                           ;application.c: 24:     ret = lcd_8bit_send_string_pos(&lcd, 2, 4, "TEMP: ");
  1081   002078  0E9E               	movlw	low _lcd
  1082   00207A  6E1E               	movwf	lcd_8bit_send_string_pos@lcd^0,c
  1083   00207C  0E00               	movlw	high _lcd
  1084   00207E  6E1F               	movwf	(lcd_8bit_send_string_pos@lcd+1)^0,c
  1085   002080  0E02               	movlw	2
  1086   002082  6E20               	movwf	lcd_8bit_send_string_pos@row^0,c
  1087   002084  0E04               	movlw	4
  1088   002086  6E21               	movwf	lcd_8bit_send_string_pos@colomn^0,c
  1089   002088  0E16               	movlw	low STR_2
  1090   00208A  6E22               	movwf	lcd_8bit_send_string_pos@string^0,c
  1091   00208C  0E10               	movlw	high STR_2
  1092   00208E  6E23               	movwf	(lcd_8bit_send_string_pos@string+1)^0,c
  1093   002090  ECAE  F01F         	call	_lcd_8bit_send_string_pos	;wreg free
  1094   002094  6E7A               	movwf	_ret^0,c
  1095                           
  1096                           ;application.c: 25:     ret = lcd_8bit_send_char_pos(&lcd, 2, 13, 'C');
  1097   002096  0E9E               	movlw	low _lcd
  1098   002098  6E1E               	movwf	lcd_8bit_send_char_pos@lcd^0,c
  1099   00209A  0E00               	movlw	high _lcd
  1100   00209C  6E1F               	movwf	(lcd_8bit_send_char_pos@lcd+1)^0,c
  1101   00209E  0E02               	movlw	2
  1102   0020A0  6E20               	movwf	lcd_8bit_send_char_pos@row^0,c
  1103   0020A2  0E0D               	movlw	13
  1104   0020A4  6E21               	movwf	lcd_8bit_send_char_pos@colomn^0,c
  1105   0020A6  0E43               	movlw	67
  1106   0020A8  6E22               	movwf	lcd_8bit_send_char_pos@data^0,c
  1107   0020AA  EC10  F020         	call	_lcd_8bit_send_char_pos	;wreg free
  1108   0020AE  6E7A               	movwf	_ret^0,c
  1109                           
  1110                           ;application.c: 27:     ret = motor_move(&motor);
  1111   0020B0  0E7B               	movlw	low _motor
  1112   0020B2  6E0B               	movwf	motor_move@motor^0,c
  1113   0020B4  0E00               	movlw	high _motor
  1114   0020B6  6E0C               	movwf	(motor_move@motor+1)^0,c
  1115   0020B8  ECD0  F01F         	call	_motor_move	;wreg free
  1116   0020BC  6E7A               	movwf	_ret^0,c
  1117   0020BE                     l4087:
  1118                           
  1119                           ;application.c: 30:     {;application.c: 32:         ret = ADC_getConversionBlocking(&ad
      +                          c, ANALOG_CHANNEL_AN0, &lm35_value);
  1120   0020BE  0EAE               	movlw	low _adc
  1121   0020C0  6E0C               	movwf	ADC_getConversionBlocking@_adc^0,c
  1122   0020C2  0E00               	movlw	high _adc
  1123   0020C4  6E0D               	movwf	(ADC_getConversionBlocking@_adc+1)^0,c
  1124   0020C6  0E00               	movlw	0
  1125   0020C8  6E0E               	movwf	ADC_getConversionBlocking@channel^0,c
  1126   0020CA  0E78               	movlw	low _lm35_value
  1127   0020CC  6E0F               	movwf	ADC_getConversionBlocking@result^0,c
  1128   0020CE  0E00               	movlw	high _lm35_value
  1129   0020D0  6E10               	movwf	(ADC_getConversionBlocking@result+1)^0,c
  1130   0020D2  EC21  F01E         	call	_ADC_getConversionBlocking	;wreg free
  1131   0020D6  6E7A               	movwf	_ret^0,c
  1132   0020D8                     
  1133                           ;application.c: 35:         lm35_value_in_celsuis = lm35_value * 4.88f;
  1134   0020D8  0EF6               	movlw	246
  1135   0020DA  6E2C               	movwf	___flmul@a^0,c
  1136   0020DC  0E28               	movlw	40
  1137   0020DE  6E2D               	movwf	(___flmul@a+1)^0,c
  1138   0020E0  0E9C               	movlw	156
  1139   0020E2  6E2E               	movwf	(___flmul@a+2)^0,c
  1140   0020E4  0E40               	movlw	64
  1141   0020E6  6E2F               	movwf	(___flmul@a+3)^0,c
  1142   0020E8  C078  F001         	movff	_lm35_value,___xxtofl@val
  1143   0020EC  C079  F002         	movff	_lm35_value+1,___xxtofl@val+1
  1144   0020F0  6A03               	clrf	(___xxtofl@val+2)^0,c
  1145   0020F2  6A04               	clrf	(___xxtofl@val+3)^0,c
  1146   0020F4  0E00               	movlw	0
  1147   0020F6  ECBA  F012         	call	___xxtofl
  1148   0020FA  C001  F028         	movff	?___xxtofl,___flmul@b
  1149   0020FE  C002  F029         	movff	?___xxtofl+1,___flmul@b+1
  1150   002102  C003  F02A         	movff	?___xxtofl+2,___flmul@b+2
  1151   002106  C004  F02B         	movff	?___xxtofl+3,___flmul@b+3
  1152   00210A  EC75  F00A         	call	___flmul	;wreg free
  1153   00210E  C028  F05B         	movff	?___flmul,___fltol@f1
  1154   002112  C029  F05C         	movff	?___flmul+1,___fltol@f1+1
  1155   002116  C02A  F05D         	movff	?___flmul+2,___fltol@f1+2
  1156   00211A  C02B  F05E         	movff	?___flmul+3,___fltol@f1+3
  1157   00211E  ECC2  F018         	call	___fltol	;wreg free
  1158   002122  C05B  F07D         	movff	?___fltol,_lm35_value_in_celsuis
  1159   002126  C05C  F07E         	movff	?___fltol+1,_lm35_value_in_celsuis+1
  1160   00212A                     
  1161                           ;application.c: 36:         lm35_value_in_celsuis = roundf(lm35_value_in_celsuis / 10.0)
      +                          ;
  1162   00212A  0E00               	movlw	0
  1163   00212C  6E13               	movwf	___fldiv@a^0,c
  1164   00212E  0E00               	movlw	0
  1165   002130  6E14               	movwf	(___fldiv@a+1)^0,c
  1166   002132  0E20               	movlw	32
  1167   002134  6E15               	movwf	(___fldiv@a+2)^0,c
  1168   002136  0E41               	movlw	65
  1169   002138  6E16               	movwf	(___fldiv@a+3)^0,c
  1170   00213A  C07D  F001         	movff	_lm35_value_in_celsuis,___xxtofl@val
  1171   00213E  C07E  F002         	movff	_lm35_value_in_celsuis+1,___xxtofl@val+1
  1172   002142  6A03               	clrf	(___xxtofl@val+2)^0,c
  1173   002144  6A04               	clrf	(___xxtofl@val+3)^0,c
  1174   002146  0E00               	movlw	0
  1175   002148  ECBA  F012         	call	___xxtofl
  1176   00214C  C001  F00F         	movff	?___xxtofl,___fldiv@b
  1177   002150  C002  F010         	movff	?___xxtofl+1,___fldiv@b+1
  1178   002154  C003  F011         	movff	?___xxtofl+2,___fldiv@b+2
  1179   002158  C004  F012         	movff	?___xxtofl+3,___fldiv@b+3
  1180   00215C  EC61  F00E         	call	___fldiv	;wreg free
  1181   002160  C00F  F041         	movff	?___fldiv,roundf@x
  1182   002164  C010  F042         	movff	?___fldiv+1,roundf@x+1
  1183   002168  C011  F043         	movff	?___fldiv+2,roundf@x+2
  1184   00216C  C012  F044         	movff	?___fldiv+3,roundf@x+3
  1185   002170  EC8A  F00C         	call	_roundf	;wreg free
  1186   002174  C041  F05B         	movff	?_roundf,___fltol@f1
  1187   002178  C042  F05C         	movff	?_roundf+1,___fltol@f1+1
  1188   00217C  C043  F05D         	movff	?_roundf+2,___fltol@f1+2
  1189   002180  C044  F05E         	movff	?_roundf+3,___fltol@f1+3
  1190   002184  ECC2  F018         	call	___fltol	;wreg free
  1191   002188  C05B  F07D         	movff	?___fltol,_lm35_value_in_celsuis
  1192   00218C  C05C  F07E         	movff	?___fltol+1,_lm35_value_in_celsuis+1
  1193   002190                     
  1194                           ;application.c: 39:         ret = lcd_convert_byte_to_string(lm35_value_in_celsuis, lm35
      +                          _value_text);
  1195   002190  0ED6               	movlw	low _lm35_value_text
  1196   002192  6E6C               	movwf	lcd_convert_byte_to_string@str^0,c
  1197   002194  0E00               	movlw	high _lm35_value_text
  1198   002196  6E6D               	movwf	(lcd_convert_byte_to_string@str+1)^0,c
  1199   002198  507D               	movf	_lm35_value_in_celsuis^0,w,c
  1200   00219A  EC3C  F01C         	call	_lcd_convert_byte_to_string
  1201   00219E  6E7A               	movwf	_ret^0,c
  1202                           
  1203                           ;application.c: 40:         ret = lcd_8bit_send_string_pos(&lcd, 2, 10, lm35_value_text)
      +                          ;
  1204   0021A0  0E9E               	movlw	low _lcd
  1205   0021A2  6E1E               	movwf	lcd_8bit_send_string_pos@lcd^0,c
  1206   0021A4  0E00               	movlw	high _lcd
  1207   0021A6  6E1F               	movwf	(lcd_8bit_send_string_pos@lcd+1)^0,c
  1208   0021A8  0E02               	movlw	2
  1209   0021AA  6E20               	movwf	lcd_8bit_send_string_pos@row^0,c
  1210   0021AC  0E0A               	movlw	10
  1211   0021AE  6E21               	movwf	lcd_8bit_send_string_pos@colomn^0,c
  1212   0021B0  0ED6               	movlw	low _lm35_value_text
  1213   0021B2  6E22               	movwf	lcd_8bit_send_string_pos@string^0,c
  1214   0021B4  0E00               	movlw	high _lm35_value_text
  1215   0021B6  6E23               	movwf	(lcd_8bit_send_string_pos@string+1)^0,c
  1216   0021B8  ECAE  F01F         	call	_lcd_8bit_send_string_pos	;wreg free
  1217   0021BC  6E7A               	movwf	_ret^0,c
  1218   0021BE                     
  1219                           ;application.c: 43:         if(lm35_value_in_celsuis > 120){
  1220   0021BE  507E               	movf	(_lm35_value_in_celsuis+1)^0,w,c
  1221   0021C0  E109               	bnz	u4370
  1222   0021C2  0E79               	movlw	121
  1223   0021C4  5C7D               	subwf	_lm35_value_in_celsuis^0,w,c
  1224   0021C6  A0D8               	btfss	status,0,c
  1225   0021C8  EFE8  F010         	goto	u4371
  1226   0021CC  EFEA  F010         	goto	u4370
  1227   0021D0                     u4371:
  1228   0021D0  EFF2  F010         	goto	l4101
  1229   0021D4                     u4370:
  1230   0021D4                     
  1231                           ;application.c: 44:             temperature_level = '5';
  1232   0021D4  0E35               	movlw	53
  1233   0021D6  6E76               	movwf	_temperature_level^0,c
  1234   0021D8                     
  1235                           ;application.c: 45:             ret = CCP1_PWM_Set_Duty(100);
  1236   0021D8  0E64               	movlw	100
  1237   0021DA  EC33  F018         	call	_CCP1_PWM_Set_Duty
  1238   0021DE  6E7A               	movwf	_ret^0,c
  1239                           
  1240                           ;application.c: 46:         }
  1241   0021E0  EF53  F011         	goto	l4131
  1242   0021E4                     l4101:
  1243   0021E4  507E               	movf	(_lm35_value_in_celsuis+1)^0,w,c
  1244   0021E6  E109               	bnz	u4380
  1245   0021E8  0E5B               	movlw	91
  1246   0021EA  5C7D               	subwf	_lm35_value_in_celsuis^0,w,c
  1247   0021EC  A0D8               	btfss	status,0,c
  1248   0021EE  EFFB  F010         	goto	u4381
  1249   0021F2  EFFD  F010         	goto	u4380
  1250   0021F6                     u4381:
  1251   0021F6  EF05  F011         	goto	l4107
  1252   0021FA                     u4380:
  1253   0021FA                     
  1254                           ;application.c: 48:             temperature_level = '4';
  1255   0021FA  0E34               	movlw	52
  1256   0021FC  6E76               	movwf	_temperature_level^0,c
  1257   0021FE                     
  1258                           ;application.c: 49:             ret = CCP1_PWM_Set_Duty(80);
  1259   0021FE  0E50               	movlw	80
  1260   002200  EC33  F018         	call	_CCP1_PWM_Set_Duty
  1261   002204  6E7A               	movwf	_ret^0,c
  1262                           
  1263                           ;application.c: 50:         }
  1264   002206  EF53  F011         	goto	l4131
  1265   00220A                     l4107:
  1266   00220A  507E               	movf	(_lm35_value_in_celsuis+1)^0,w,c
  1267   00220C  E109               	bnz	u4390
  1268   00220E  0E47               	movlw	71
  1269   002210  5C7D               	subwf	_lm35_value_in_celsuis^0,w,c
  1270   002212  A0D8               	btfss	status,0,c
  1271   002214  EF0E  F011         	goto	u4391
  1272   002218  EF10  F011         	goto	u4390
  1273   00221C                     u4391:
  1274   00221C  EF18  F011         	goto	l4113
  1275   002220                     u4390:
  1276   002220                     
  1277                           ;application.c: 52:             temperature_level = '3';
  1278   002220  0E33               	movlw	51
  1279   002222  6E76               	movwf	_temperature_level^0,c
  1280   002224                     
  1281                           ;application.c: 53:             ret = CCP1_PWM_Set_Duty(60);
  1282   002224  0E3C               	movlw	60
  1283   002226  EC33  F018         	call	_CCP1_PWM_Set_Duty
  1284   00222A  6E7A               	movwf	_ret^0,c
  1285                           
  1286                           ;application.c: 54:         }
  1287   00222C  EF53  F011         	goto	l4131
  1288   002230                     l4113:
  1289   002230  507E               	movf	(_lm35_value_in_celsuis+1)^0,w,c
  1290   002232  E109               	bnz	u4400
  1291   002234  0E33               	movlw	51
  1292   002236  5C7D               	subwf	_lm35_value_in_celsuis^0,w,c
  1293   002238  A0D8               	btfss	status,0,c
  1294   00223A  EF21  F011         	goto	u4401
  1295   00223E  EF23  F011         	goto	u4400
  1296   002242                     u4401:
  1297   002242  EF2B  F011         	goto	l4119
  1298   002246                     u4400:
  1299   002246                     
  1300                           ;application.c: 56:             temperature_level = '2';
  1301   002246  0E32               	movlw	50
  1302   002248  6E76               	movwf	_temperature_level^0,c
  1303   00224A                     
  1304                           ;application.c: 57:             ret = CCP1_PWM_Set_Duty(40);
  1305   00224A  0E28               	movlw	40
  1306   00224C  EC33  F018         	call	_CCP1_PWM_Set_Duty
  1307   002250  6E7A               	movwf	_ret^0,c
  1308                           
  1309                           ;application.c: 58:         }
  1310   002252  EF53  F011         	goto	l4131
  1311   002256                     l4119:
  1312   002256  507E               	movf	(_lm35_value_in_celsuis+1)^0,w,c
  1313   002258  E109               	bnz	u4410
  1314   00225A  0E1A               	movlw	26
  1315   00225C  5C7D               	subwf	_lm35_value_in_celsuis^0,w,c
  1316   00225E  A0D8               	btfss	status,0,c
  1317   002260  EF34  F011         	goto	u4411
  1318   002264  EF36  F011         	goto	u4410
  1319   002268                     u4411:
  1320   002268  EF3E  F011         	goto	l4125
  1321   00226C                     u4410:
  1322   00226C                     
  1323                           ;application.c: 60:             temperature_level = '1';
  1324   00226C  0E31               	movlw	49
  1325   00226E  6E76               	movwf	_temperature_level^0,c
  1326   002270                     
  1327                           ;application.c: 61:             ret = CCP1_PWM_Set_Duty(20);
  1328   002270  0E14               	movlw	20
  1329   002272  EC33  F018         	call	_CCP1_PWM_Set_Duty
  1330   002276  6E7A               	movwf	_ret^0,c
  1331                           
  1332                           ;application.c: 62:         }
  1333   002278  EF53  F011         	goto	l4131
  1334   00227C                     l4125:
  1335                           
  1336                           ;application.c: 64:             temperature_level = '0';
  1337   00227C  0E30               	movlw	48
  1338   00227E  6E76               	movwf	_temperature_level^0,c
  1339   002280                     
  1340                           ;application.c: 65:             ret = CCP1_PWM_Set_Duty(0);
  1341   002280  0E00               	movlw	0
  1342   002282  EC33  F018         	call	_CCP1_PWM_Set_Duty
  1343   002286  6E7A               	movwf	_ret^0,c
  1344   002288                     
  1345                           ;application.c: 66:             ret = lcd_8bit_send_string_pos(&lcd, 1, 5, "OFF");
  1346   002288  0E9E               	movlw	low _lcd
  1347   00228A  6E1E               	movwf	lcd_8bit_send_string_pos@lcd^0,c
  1348   00228C  0E00               	movlw	high _lcd
  1349   00228E  6E1F               	movwf	(lcd_8bit_send_string_pos@lcd+1)^0,c
  1350   002290  0E01               	movlw	1
  1351   002292  6E20               	movwf	lcd_8bit_send_string_pos@row^0,c
  1352   002294  0E05               	movlw	5
  1353   002296  6E21               	movwf	lcd_8bit_send_string_pos@colomn^0,c
  1354   002298  0E21               	movlw	low STR_3
  1355   00229A  6E22               	movwf	lcd_8bit_send_string_pos@string^0,c
  1356   00229C  0E10               	movlw	high STR_3
  1357   00229E  6E23               	movwf	(lcd_8bit_send_string_pos@string+1)^0,c
  1358   0022A0  ECAE  F01F         	call	_lcd_8bit_send_string_pos	;wreg free
  1359   0022A4  6E7A               	movwf	_ret^0,c
  1360   0022A6                     l4131:
  1361                           
  1362                           ;application.c: 68:         if('0' != temperature_level){
  1363   0022A6  0E30               	movlw	48
  1364   0022A8  1876               	xorwf	_temperature_level^0,w,c
  1365   0022AA  B4D8               	btfsc	status,2,c
  1366   0022AC  EF5A  F011         	goto	u4421
  1367   0022B0  EF5C  F011         	goto	u4420
  1368   0022B4                     u4421:
  1369   0022B4  EF6B  F011         	goto	l4135
  1370   0022B8                     u4420:
  1371   0022B8                     
  1372                           ;application.c: 69:             ret = lcd_8bit_send_string_pos(&lcd, 1, 5, "ON ");
  1373   0022B8  0E9E               	movlw	low _lcd
  1374   0022BA  6E1E               	movwf	lcd_8bit_send_string_pos@lcd^0,c
  1375   0022BC  0E00               	movlw	high _lcd
  1376   0022BE  6E1F               	movwf	(lcd_8bit_send_string_pos@lcd+1)^0,c
  1377   0022C0  0E01               	movlw	1
  1378   0022C2  6E20               	movwf	lcd_8bit_send_string_pos@row^0,c
  1379   0022C4  0E05               	movlw	5
  1380   0022C6  6E21               	movwf	lcd_8bit_send_string_pos@colomn^0,c
  1381   0022C8  0E1D               	movlw	low STR_4
  1382   0022CA  6E22               	movwf	lcd_8bit_send_string_pos@string^0,c
  1383   0022CC  0E10               	movlw	high STR_4
  1384   0022CE  6E23               	movwf	(lcd_8bit_send_string_pos@string+1)^0,c
  1385   0022D0  ECAE  F01F         	call	_lcd_8bit_send_string_pos	;wreg free
  1386   0022D4  6E7A               	movwf	_ret^0,c
  1387   0022D6                     l4135:
  1388                           
  1389                           ;application.c: 72:         ret = lcd_8bit_send_char_pos(&lcd, 1, 16, temperature_level)
      +                          ;
  1390   0022D6  0E9E               	movlw	low _lcd
  1391   0022D8  6E1E               	movwf	lcd_8bit_send_char_pos@lcd^0,c
  1392   0022DA  0E00               	movlw	high _lcd
  1393   0022DC  6E1F               	movwf	(lcd_8bit_send_char_pos@lcd+1)^0,c
  1394   0022DE  0E01               	movlw	1
  1395   0022E0  6E20               	movwf	lcd_8bit_send_char_pos@row^0,c
  1396   0022E2  0E10               	movlw	16
  1397   0022E4  6E21               	movwf	lcd_8bit_send_char_pos@colomn^0,c
  1398   0022E6  C076  F022         	movff	_temperature_level,lcd_8bit_send_char_pos@data
  1399   0022EA  EC10  F020         	call	_lcd_8bit_send_char_pos	;wreg free
  1400   0022EE  6E7A               	movwf	_ret^0,c
  1401   0022F0  EF5F  F010         	goto	l4087
  1402   0022F4  EF00  F000         	goto	start
  1403   0022F8                     __end_of_main:
  1404                           	callstack 0
  1405                           
  1406 ;; *************** function _roundf *****************
  1407 ;; Defined at:
  1408 ;;		line 12 in file "C:\Program Files\Microchip\xc8\v2.40\pic\sources\c99\common\roundf.c"
  1409 ;; Parameters:    Size  Location     Type
  1410 ;;  x               4   64[COMRAM] float 
  1411 ;; Auto vars:     Size  Location     Type
  1412 ;;  y               4   86[COMRAM] float 
  1413 ;;  u               4   82[COMRAM] struct .
  1414 ;;  e               2   76[COMRAM] int 
  1415 ;; Return value:  Size  Location     Type
  1416 ;;                  4   64[COMRAM] float 
  1417 ;; Registers used:
  1418 ;;		wreg, status,2, status,0, prodl, prodh, cstack
  1419 ;; Tracked objects:
  1420 ;;		On entry : 0/0
  1421 ;;		On exit  : 0/0
  1422 ;;		Unchanged: 0/0
  1423 ;; Data sizes:     COMRAM   BANK0   BANK1   BANK2   BANK3   BANK4   BANK5   BANK6   BANK7   BANK8   BANK9  BANK10  BANK1
      +1  BANK12  BANK13  BANK14  BANK15
  1424 ;;      Params:         4       0       0       0       0       0       0       0       0       0       0       0       
      +0       0       0       0       0
  1425 ;;      Locals:        18       0       0       0       0       0       0       0       0       0       0       0       
      +0       0       0       0       0
  1426 ;;      Temps:          4       0       0       0       0       0       0       0       0       0       0       0       
      +0       0       0       0       0
  1427 ;;      Totals:        26       0       0       0       0       0       0       0       0       0       0       0       
      +0       0       0       0       0
  1428 ;;Total ram usage:       26 bytes
  1429 ;; Hardware stack levels used: 1
  1430 ;; Hardware stack levels required when called: 2
  1431 ;; This function calls:
  1432 ;;		___fladd
  1433 ;;		___flge
  1434 ;;		___flmul
  1435 ;;		___flneg
  1436 ;;		___flsub
  1437 ;; This function is called by:
  1438 ;;		_main
  1439 ;; This function uses a non-reentrant model
  1440 ;;
  1441                           
  1442                           	psect	text1
  1443   001914                     __ptext1:
  1444                           	callstack 0
  1445   001914                     _roundf:
  1446                           	callstack 28
  1447   001914  C0B2  F053         	movff	roundf@F527,roundf@u
  1448   001918  C0B3  F054         	movff	roundf@F527+1,roundf@u+1
  1449   00191C  C0B4  F055         	movff	roundf@F527+2,roundf@u+2
  1450   001920  C0B5  F056         	movff	roundf@F527+3,roundf@u+3
  1451   001924  C041  F053         	movff	roundf@x,roundf@u
  1452   001928  C042  F054         	movff	roundf@x+1,roundf@u+1
  1453   00192C  C043  F055         	movff	roundf@x+2,roundf@u+2
  1454   001930  C044  F056         	movff	roundf@x+3,roundf@u+3
  1455   001934  C053  F045         	movff	roundf@u,??_roundf
  1456   001938  C054  F046         	movff	roundf@u+1,??_roundf+1
  1457   00193C  C055  F047         	movff	roundf@u+2,??_roundf+2
  1458   001940  C056  F048         	movff	roundf@u+3,??_roundf+3
  1459   001944  0E18               	movlw	24
  1460   001946  EFAA  F00C         	goto	u4210
  1461   00194A                     u4215:
  1462   00194A  90D8               	bcf	status,0,c
  1463   00194C  3248               	rrcf	(??_roundf+3)^0,f,c
  1464   00194E  3247               	rrcf	(??_roundf+2)^0,f,c
  1465   001950  3246               	rrcf	(??_roundf+1)^0,f,c
  1466   001952  3245               	rrcf	??_roundf^0,f,c
  1467   001954                     u4210:
  1468   001954  2EE8               	decfsz	wreg,f,c
  1469   001956  EFA5  F00C         	goto	u4215
  1470   00195A  5045               	movf	??_roundf^0,w,c
  1471   00195C  6E4D               	movwf	roundf@e^0,c
  1472   00195E  6A4E               	clrf	(roundf@e+1)^0,c
  1473   001960  BE4E               	btfsc	(roundf@e+1)^0,7,c
  1474   001962  EFBC  F00C         	goto	u4221
  1475   001966  504E               	movf	(roundf@e+1)^0,w,c
  1476   001968  E109               	bnz	u4220
  1477   00196A  0E96               	movlw	150
  1478   00196C  5C4D               	subwf	roundf@e^0,w,c
  1479   00196E  A0D8               	btfss	status,0,c
  1480   001970  EFBC  F00C         	goto	u4221
  1481   001974  EFBE  F00C         	goto	u4220
  1482   001978                     u4221:
  1483   001978  EFC8  F00C         	goto	l4017
  1484   00197C                     u4220:
  1485   00197C  C041  F041         	movff	roundf@x,?_roundf
  1486   001980  C042  F042         	movff	roundf@x+1,?_roundf+1
  1487   001984  C043  F043         	movff	roundf@x+2,?_roundf+2
  1488   001988  C044  F044         	movff	roundf@x+3,?_roundf+3
  1489   00198C  EF60  F00E         	goto	l1124
  1490   001990                     l4017:
  1491   001990  C053  F045         	movff	roundf@u,??_roundf
  1492   001994  C054  F046         	movff	roundf@u+1,??_roundf+1
  1493   001998  C055  F047         	movff	roundf@u+2,??_roundf+2
  1494   00199C  C056  F048         	movff	roundf@u+3,??_roundf+3
  1495   0019A0  0E20               	movlw	32
  1496   0019A2  EFD8  F00C         	goto	u4230
  1497   0019A6                     u4235:
  1498   0019A6  90D8               	bcf	status,0,c
  1499   0019A8  3248               	rrcf	(??_roundf+3)^0,f,c
  1500   0019AA  3247               	rrcf	(??_roundf+2)^0,f,c
  1501   0019AC  3246               	rrcf	(??_roundf+1)^0,f,c
  1502   0019AE  3245               	rrcf	??_roundf^0,f,c
  1503   0019B0                     u4230:
  1504   0019B0  2EE8               	decfsz	wreg,f,c
  1505   0019B2  EFD3  F00C         	goto	u4235
  1506   0019B6  5045               	movf	??_roundf^0,w,c
  1507   0019B8  1046               	iorwf	(??_roundf+1)^0,w,c
  1508   0019BA  1047               	iorwf	(??_roundf+2)^0,w,c
  1509   0019BC  1048               	iorwf	(??_roundf+3)^0,w,c
  1510   0019BE  B4D8               	btfsc	status,2,c
  1511   0019C0  EFE4  F00C         	goto	u4241
  1512   0019C4  EFE6  F00C         	goto	u4240
  1513   0019C8                     u4241:
  1514   0019C8  EFF8  F00C         	goto	l4021
  1515   0019CC                     u4240:
  1516   0019CC  C041  F001         	movff	roundf@x,___flneg@f1
  1517   0019D0  C042  F002         	movff	roundf@x+1,___flneg@f1+1
  1518   0019D4  C043  F003         	movff	roundf@x+2,___flneg@f1+2
  1519   0019D8  C044  F004         	movff	roundf@x+3,___flneg@f1+3
  1520   0019DC  EC30  F020         	call	___flneg	;wreg free
  1521   0019E0  C001  F041         	movff	?___flneg,roundf@x
  1522   0019E4  C002  F042         	movff	?___flneg+1,roundf@x+1
  1523   0019E8  C003  F043         	movff	?___flneg+2,roundf@x+2
  1524   0019EC  C004  F044         	movff	?___flneg+3,roundf@x+3
  1525   0019F0                     l4021:
  1526   0019F0  BE4E               	btfsc	(roundf@e+1)^0,7,c
  1527   0019F2  EF06  F00D         	goto	u4250
  1528   0019F6  504E               	movf	(roundf@e+1)^0,w,c
  1529   0019F8  E107               	bnz	u4251
  1530   0019FA  0E7E               	movlw	126
  1531   0019FC  5C4D               	subwf	roundf@e^0,w,c
  1532   0019FE  B0D8               	btfsc	status,0,c
  1533   001A00  EF04  F00D         	goto	u4251
  1534   001A04  EF06  F00D         	goto	u4250
  1535   001A08                     u4251:
  1536   001A08  EF22  F00D         	goto	l4027
  1537   001A0C                     u4250:
  1538   001A0C  C053  F028         	movff	roundf@u,___flmul@b
  1539   001A10  C054  F029         	movff	roundf@u+1,___flmul@b+1
  1540   001A14  C055  F02A         	movff	roundf@u+2,___flmul@b+2
  1541   001A18  C056  F02B         	movff	roundf@u+3,___flmul@b+3
  1542   001A1C  0E00               	movlw	0
  1543   001A1E  6E2C               	movwf	___flmul@a^0,c
  1544   001A20  0E00               	movlw	0
  1545   001A22  6E2D               	movwf	(___flmul@a+1)^0,c
  1546   001A24  0E00               	movlw	0
  1547   001A26  6E2E               	movwf	(___flmul@a+2)^0,c
  1548   001A28  0E00               	movlw	0
  1549   001A2A  6E2F               	movwf	(___flmul@a+3)^0,c
  1550   001A2C  EC75  F00A         	call	___flmul	;wreg free
  1551   001A30  C028  F041         	movff	?___flmul,?_roundf
  1552   001A34  C029  F042         	movff	?___flmul+1,?_roundf+1
  1553   001A38  C02A  F043         	movff	?___flmul+2,?_roundf+2
  1554   001A3C  C02B  F044         	movff	?___flmul+3,?_roundf+3
  1555   001A40  EF60  F00E         	goto	l1124
  1556   001A44                     l4027:
  1557   001A44  0E00               	movlw	0
  1558   001A46  6E05               	movwf	___fladd@a^0,c
  1559   001A48  0E00               	movlw	0
  1560   001A4A  6E06               	movwf	(___fladd@a+1)^0,c
  1561   001A4C  0E00               	movlw	0
  1562   001A4E  6E07               	movwf	(___fladd@a+2)^0,c
  1563   001A50  0E4B               	movlw	75
  1564   001A52  6E08               	movwf	(___fladd@a+3)^0,c
  1565   001A54  C041  F001         	movff	roundf@x,___fladd@b
  1566   001A58  C042  F002         	movff	roundf@x+1,___fladd@b+1
  1567   001A5C  C043  F003         	movff	roundf@x+2,___fladd@b+2
  1568   001A60  C044  F004         	movff	roundf@x+3,___fladd@b+3
  1569   001A64  EC15  F008         	call	___fladd	;wreg free
  1570   001A68  C001  F04F         	movff	?___fladd,_roundf$1766
  1571   001A6C  C002  F050         	movff	?___fladd+1,_roundf$1766+1
  1572   001A70  C003  F051         	movff	?___fladd+2,_roundf$1766+2
  1573   001A74  C004  F052         	movff	?___fladd+3,_roundf$1766+3
  1574   001A78  0E00               	movlw	0
  1575   001A7A  6E05               	movwf	___fladd@a^0,c
  1576   001A7C  0E00               	movlw	0
  1577   001A7E  6E06               	movwf	(___fladd@a+1)^0,c
  1578   001A80  0E00               	movlw	0
  1579   001A82  6E07               	movwf	(___fladd@a+2)^0,c
  1580   001A84  0ECB               	movlw	203
  1581   001A86  6E08               	movwf	(___fladd@a+3)^0,c
  1582   001A88  C04F  F001         	movff	_roundf$1766,___fladd@b
  1583   001A8C  C050  F002         	movff	_roundf$1766+1,___fladd@b+1
  1584   001A90  C051  F003         	movff	_roundf$1766+2,___fladd@b+2
  1585   001A94  C052  F004         	movff	_roundf$1766+3,___fladd@b+3
  1586   001A98  EC15  F008         	call	___fladd	;wreg free
  1587   001A9C  C001  F049         	movff	?___fladd,_roundf$1767
  1588   001AA0  C002  F04A         	movff	?___fladd+1,_roundf$1767+1
  1589   001AA4  C003  F04B         	movff	?___fladd+2,_roundf$1767+2
  1590   001AA8  C004  F04C         	movff	?___fladd+3,_roundf$1767+3
  1591   001AAC  C049  F011         	movff	_roundf$1767,___flsub@b
  1592   001AB0  C04A  F012         	movff	_roundf$1767+1,___flsub@b+1
  1593   001AB4  C04B  F013         	movff	_roundf$1767+2,___flsub@b+2
  1594   001AB8  C04C  F014         	movff	_roundf$1767+3,___flsub@b+3
  1595   001ABC  C041  F015         	movff	roundf@x,___flsub@a
  1596   001AC0  C042  F016         	movff	roundf@x+1,___flsub@a+1
  1597   001AC4  C043  F017         	movff	roundf@x+2,___flsub@a+2
  1598   001AC8  C044  F018         	movff	roundf@x+3,___flsub@a+3
  1599   001ACC  EC69  F01F         	call	___flsub	;wreg free
  1600   001AD0  C011  F057         	movff	?___flsub,roundf@y
  1601   001AD4  C012  F058         	movff	?___flsub+1,roundf@y+1
  1602   001AD8  C013  F059         	movff	?___flsub+2,roundf@y+2
  1603   001ADC  C014  F05A         	movff	?___flsub+3,roundf@y+3
  1604   001AE0  0E00               	movlw	0
  1605   001AE2  6E01               	movwf	___flge@ff1^0,c
  1606   001AE4  0E00               	movlw	0
  1607   001AE6  6E02               	movwf	(___flge@ff1+1)^0,c
  1608   001AE8  0E00               	movlw	0
  1609   001AEA  6E03               	movwf	(___flge@ff1+2)^0,c
  1610   001AEC  0E3F               	movlw	63
  1611   001AEE  6E04               	movwf	(___flge@ff1+3)^0,c
  1612   001AF0  C057  F005         	movff	roundf@y,___flge@ff2
  1613   001AF4  C058  F006         	movff	roundf@y+1,___flge@ff2+1
  1614   001AF8  C059  F007         	movff	roundf@y+2,___flge@ff2+2
  1615   001AFC  C05A  F008         	movff	roundf@y+3,___flge@ff2+3
  1616   001B00  EC45  F019         	call	___flge	;wreg free
  1617   001B04  B0D8               	btfsc	status,0,c
  1618   001B06  EF87  F00D         	goto	u4261
  1619   001B0A  EF89  F00D         	goto	u4260
  1620   001B0E                     u4261:
  1621   001B0E  EFBF  F00D         	goto	l4031
  1622   001B12                     u4260:
  1623   001B12  C041  F005         	movff	roundf@x,___fladd@a
  1624   001B16  C042  F006         	movff	roundf@x+1,___fladd@a+1
  1625   001B1A  C043  F007         	movff	roundf@x+2,___fladd@a+2
  1626   001B1E  C044  F008         	movff	roundf@x+3,___fladd@a+3
  1627   001B22  C057  F001         	movff	roundf@y,___fladd@b
  1628   001B26  C058  F002         	movff	roundf@y+1,___fladd@b+1
  1629   001B2A  C059  F003         	movff	roundf@y+2,___fladd@b+2
  1630   001B2E  C05A  F004         	movff	roundf@y+3,___fladd@b+3
  1631   001B32  EC15  F008         	call	___fladd	;wreg free
  1632   001B36  C001  F04F         	movff	?___fladd,_roundf$1766
  1633   001B3A  C002  F050         	movff	?___fladd+1,_roundf$1766+1
  1634   001B3E  C003  F051         	movff	?___fladd+2,_roundf$1766+2
  1635   001B42  C004  F052         	movff	?___fladd+3,_roundf$1766+3
  1636   001B46  C04F  F001         	movff	_roundf$1766,___fladd@b
  1637   001B4A  C050  F002         	movff	_roundf$1766+1,___fladd@b+1
  1638   001B4E  C051  F003         	movff	_roundf$1766+2,___fladd@b+2
  1639   001B52  C052  F004         	movff	_roundf$1766+3,___fladd@b+3
  1640   001B56  0E00               	movlw	0
  1641   001B58  6E05               	movwf	___fladd@a^0,c
  1642   001B5A  0E00               	movlw	0
  1643   001B5C  6E06               	movwf	(___fladd@a+1)^0,c
  1644   001B5E  0E80               	movlw	128
  1645   001B60  6E07               	movwf	(___fladd@a+2)^0,c
  1646   001B62  0EBF               	movlw	191
  1647   001B64  6E08               	movwf	(___fladd@a+3)^0,c
  1648   001B66  EC15  F008         	call	___fladd	;wreg free
  1649   001B6A  C001  F057         	movff	?___fladd,roundf@y
  1650   001B6E  C002  F058         	movff	?___fladd+1,roundf@y+1
  1651   001B72  C003  F059         	movff	?___fladd+2,roundf@y+2
  1652   001B76  C004  F05A         	movff	?___fladd+3,roundf@y+3
  1653   001B7A  EF28  F00E         	goto	l4037
  1654   001B7E                     l4031:
  1655   001B7E  0E00               	movlw	0
  1656   001B80  6E01               	movwf	___flge@ff1^0,c
  1657   001B82  0E00               	movlw	0
  1658   001B84  6E02               	movwf	(___flge@ff1+1)^0,c
  1659   001B86  0E00               	movlw	0
  1660   001B88  6E03               	movwf	(___flge@ff1+2)^0,c
  1661   001B8A  0EBF               	movlw	191
  1662   001B8C  6E04               	movwf	(___flge@ff1+3)^0,c
  1663   001B8E  C057  F005         	movff	roundf@y,___flge@ff2
  1664   001B92  C058  F006         	movff	roundf@y+1,___flge@ff2+1
  1665   001B96  C059  F007         	movff	roundf@y+2,___flge@ff2+2
  1666   001B9A  C05A  F008         	movff	roundf@y+3,___flge@ff2+3
  1667   001B9E  EC45  F019         	call	___flge	;wreg free
  1668   001BA2  A0D8               	btfss	status,0,c
  1669   001BA4  EFD6  F00D         	goto	u4271
  1670   001BA8  EFD8  F00D         	goto	u4270
  1671   001BAC                     u4271:
  1672   001BAC  EF0E  F00E         	goto	l4035
  1673   001BB0                     u4270:
  1674   001BB0  C041  F005         	movff	roundf@x,___fladd@a
  1675   001BB4  C042  F006         	movff	roundf@x+1,___fladd@a+1
  1676   001BB8  C043  F007         	movff	roundf@x+2,___fladd@a+2
  1677   001BBC  C044  F008         	movff	roundf@x+3,___fladd@a+3
  1678   001BC0  C057  F001         	movff	roundf@y,___fladd@b
  1679   001BC4  C058  F002         	movff	roundf@y+1,___fladd@b+1
  1680   001BC8  C059  F003         	movff	roundf@y+2,___fladd@b+2
  1681   001BCC  C05A  F004         	movff	roundf@y+3,___fladd@b+3
  1682   001BD0  EC15  F008         	call	___fladd	;wreg free
  1683   001BD4  C001  F04F         	movff	?___fladd,_roundf$1766
  1684   001BD8  C002  F050         	movff	?___fladd+1,_roundf$1766+1
  1685   001BDC  C003  F051         	movff	?___fladd+2,_roundf$1766+2
  1686   001BE0  C004  F052         	movff	?___fladd+3,_roundf$1766+3
  1687   001BE4  C04F  F001         	movff	_roundf$1766,___fladd@b
  1688   001BE8  C050  F002         	movff	_roundf$1766+1,___fladd@b+1
  1689   001BEC  C051  F003         	movff	_roundf$1766+2,___fladd@b+2
  1690   001BF0  C052  F004         	movff	_roundf$1766+3,___fladd@b+3
  1691   001BF4  0E00               	movlw	0
  1692   001BF6  6E05               	movwf	___fladd@a^0,c
  1693   001BF8  0E00               	movlw	0
  1694   001BFA  6E06               	movwf	(___fladd@a+1)^0,c
  1695   001BFC  0E80               	movlw	128
  1696   001BFE  6E07               	movwf	(___fladd@a+2)^0,c
  1697   001C00  0E3F               	movlw	63
  1698   001C02  6E08               	movwf	(___fladd@a+3)^0,c
  1699   001C04  EC15  F008         	call	___fladd	;wreg free
  1700   001C08  C001  F057         	movff	?___fladd,roundf@y
  1701   001C0C  C002  F058         	movff	?___fladd+1,roundf@y+1
  1702   001C10  C003  F059         	movff	?___fladd+2,roundf@y+2
  1703   001C14  C004  F05A         	movff	?___fladd+3,roundf@y+3
  1704   001C18  EF28  F00E         	goto	l4037
  1705   001C1C                     l4035:
  1706   001C1C  C057  F001         	movff	roundf@y,___fladd@b
  1707   001C20  C058  F002         	movff	roundf@y+1,___fladd@b+1
  1708   001C24  C059  F003         	movff	roundf@y+2,___fladd@b+2
  1709   001C28  C05A  F004         	movff	roundf@y+3,___fladd@b+3
  1710   001C2C  C041  F005         	movff	roundf@x,___fladd@a
  1711   001C30  C042  F006         	movff	roundf@x+1,___fladd@a+1
  1712   001C34  C043  F007         	movff	roundf@x+2,___fladd@a+2
  1713   001C38  C044  F008         	movff	roundf@x+3,___fladd@a+3
  1714   001C3C  EC15  F008         	call	___fladd	;wreg free
  1715   001C40  C001  F057         	movff	?___fladd,roundf@y
  1716   001C44  C002  F058         	movff	?___fladd+1,roundf@y+1
  1717   001C48  C003  F059         	movff	?___fladd+2,roundf@y+2
  1718   001C4C  C004  F05A         	movff	?___fladd+3,roundf@y+3
  1719   001C50                     l4037:
  1720   001C50  C053  F045         	movff	roundf@u,??_roundf
  1721   001C54  C054  F046         	movff	roundf@u+1,??_roundf+1
  1722   001C58  C055  F047         	movff	roundf@u+2,??_roundf+2
  1723   001C5C  C056  F048         	movff	roundf@u+3,??_roundf+3
  1724   001C60  0E20               	movlw	32
  1725   001C62  EF38  F00E         	goto	u4280
  1726   001C66                     u4285:
  1727   001C66  90D8               	bcf	status,0,c
  1728   001C68  3248               	rrcf	(??_roundf+3)^0,f,c
  1729   001C6A  3247               	rrcf	(??_roundf+2)^0,f,c
  1730   001C6C  3246               	rrcf	(??_roundf+1)^0,f,c
  1731   001C6E  3245               	rrcf	??_roundf^0,f,c
  1732   001C70                     u4280:
  1733   001C70  2EE8               	decfsz	wreg,f,c
  1734   001C72  EF33  F00E         	goto	u4285
  1735   001C76  5045               	movf	??_roundf^0,w,c
  1736   001C78  1046               	iorwf	(??_roundf+1)^0,w,c
  1737   001C7A  1047               	iorwf	(??_roundf+2)^0,w,c
  1738   001C7C  1048               	iorwf	(??_roundf+3)^0,w,c
  1739   001C7E  B4D8               	btfsc	status,2,c
  1740   001C80  EF44  F00E         	goto	u4291
  1741   001C84  EF46  F00E         	goto	u4290
  1742   001C88                     u4291:
  1743   001C88  EF58  F00E         	goto	l4041
  1744   001C8C                     u4290:
  1745   001C8C  C057  F001         	movff	roundf@y,___flneg@f1
  1746   001C90  C058  F002         	movff	roundf@y+1,___flneg@f1+1
  1747   001C94  C059  F003         	movff	roundf@y+2,___flneg@f1+2
  1748   001C98  C05A  F004         	movff	roundf@y+3,___flneg@f1+3
  1749   001C9C  EC30  F020         	call	___flneg	;wreg free
  1750   001CA0  C001  F057         	movff	?___flneg,roundf@y
  1751   001CA4  C002  F058         	movff	?___flneg+1,roundf@y+1
  1752   001CA8  C003  F059         	movff	?___flneg+2,roundf@y+2
  1753   001CAC  C004  F05A         	movff	?___flneg+3,roundf@y+3
  1754   001CB0                     l4041:
  1755   001CB0  C057  F041         	movff	roundf@y,?_roundf
  1756   001CB4  C058  F042         	movff	roundf@y+1,?_roundf+1
  1757   001CB8  C059  F043         	movff	roundf@y+2,?_roundf+2
  1758   001CBC  C05A  F044         	movff	roundf@y+3,?_roundf+3
  1759   001CC0                     l1124:
  1760   001CC0  0012               	return		;funcret
  1761   001CC2                     __end_of_roundf:
  1762                           	callstack 0
  1763                           
  1764 ;; *************** function ___flsub *****************
  1765 ;; Defined at:
  1766 ;;		line 245 in file "C:\Program Files\Microchip\xc8\v2.40\pic\sources\c99\common\sprcadd.c"
  1767 ;; Parameters:    Size  Location     Type
  1768 ;;  b               4   16[COMRAM] float 
  1769 ;;  a               4   20[COMRAM] float 
  1770 ;; Auto vars:     Size  Location     Type
  1771 ;;		None
  1772 ;; Return value:  Size  Location     Type
  1773 ;;                  4   16[COMRAM] float 
  1774 ;; Registers used:
  1775 ;;		wreg, status,2, status,0, cstack
  1776 ;; Tracked objects:
  1777 ;;		On entry : 0/0
  1778 ;;		On exit  : 0/0
  1779 ;;		Unchanged: 0/0
  1780 ;; Data sizes:     COMRAM   BANK0   BANK1   BANK2   BANK3   BANK4   BANK5   BANK6   BANK7   BANK8   BANK9  BANK10  BANK1
      +1  BANK12  BANK13  BANK14  BANK15
  1781 ;;      Params:         8       0       0       0       0       0       0       0       0       0       0       0       
      +0       0       0       0       0
  1782 ;;      Locals:         0       0       0       0       0       0       0       0       0       0       0       0       
      +0       0       0       0       0
  1783 ;;      Temps:          0       0       0       0       0       0       0       0       0       0       0       0       
      +0       0       0       0       0
  1784 ;;      Totals:         8       0       0       0       0       0       0       0       0       0       0       0       
      +0       0       0       0       0
  1785 ;;Total ram usage:        8 bytes
  1786 ;; Hardware stack levels used: 1
  1787 ;; Hardware stack levels required when called: 1
  1788 ;; This function calls:
  1789 ;;		___fladd
  1790 ;; This function is called by:
  1791 ;;		_roundf
  1792 ;; This function uses a non-reentrant model
  1793 ;;
  1794                           
  1795                           	psect	text2
  1796   003ED2                     __ptext2:
  1797                           	callstack 0
  1798   003ED2                     ___flsub:
  1799                           	callstack 28
  1800   003ED2  0E00               	movlw	0
  1801   003ED4  1A15               	xorwf	___flsub@a^0,f,c
  1802   003ED6  0E00               	movlw	0
  1803   003ED8  1A16               	xorwf	(___flsub@a+1)^0,f,c
  1804   003EDA  0E00               	movlw	0
  1805   003EDC  1A17               	xorwf	(___flsub@a+2)^0,f,c
  1806   003EDE  0E80               	movlw	128
  1807   003EE0  1A18               	xorwf	(___flsub@a+3)^0,f,c
  1808   003EE2  C011  F001         	movff	___flsub@b,___fladd@b
  1809   003EE6  C012  F002         	movff	___flsub@b+1,___fladd@b+1
  1810   003EEA  C013  F003         	movff	___flsub@b+2,___fladd@b+2
  1811   003EEE  C014  F004         	movff	___flsub@b+3,___fladd@b+3
  1812   003EF2  C015  F005         	movff	___flsub@a,___fladd@a
  1813   003EF6  C016  F006         	movff	___flsub@a+1,___fladd@a+1
  1814   003EFA  C017  F007         	movff	___flsub@a+2,___fladd@a+2
  1815   003EFE  C018  F008         	movff	___flsub@a+3,___fladd@a+3
  1816   003F02  EC15  F008         	call	___fladd	;wreg free
  1817   003F06  C001  F011         	movff	?___fladd,?___flsub
  1818   003F0A  C002  F012         	movff	?___fladd+1,?___flsub+1
  1819   003F0E  C003  F013         	movff	?___fladd+2,?___flsub+2
  1820   003F12  C004  F014         	movff	?___fladd+3,?___flsub+3
  1821   003F16  0012               	return		;funcret
  1822   003F18                     __end_of___flsub:
  1823                           	callstack 0
  1824                           
  1825 ;; *************** function ___fladd *****************
  1826 ;; Defined at:
  1827 ;;		line 10 in file "C:\Program Files\Microchip\xc8\v2.40\pic\sources\c99\common\sprcadd.c"
  1828 ;; Parameters:    Size  Location     Type
  1829 ;;  b               4    0[COMRAM] float 
  1830 ;;  a               4    4[COMRAM] float 
  1831 ;; Auto vars:     Size  Location     Type
  1832 ;;  grs             1   15[COMRAM] unsigned char 
  1833 ;;  bexp            1   14[COMRAM] unsigned char 
  1834 ;;  aexp            1   13[COMRAM] unsigned char 
  1835 ;;  signs           1   12[COMRAM] unsigned char 
  1836 ;; Return value:  Size  Location     Type
  1837 ;;                  4    0[COMRAM] unsigned char 
  1838 ;; Registers used:
  1839 ;;		wreg, status,2, status,0
  1840 ;; Tracked objects:
  1841 ;;		On entry : 0/0
  1842 ;;		On exit  : 0/0
  1843 ;;		Unchanged: 0/0
  1844 ;; Data sizes:     COMRAM   BANK0   BANK1   BANK2   BANK3   BANK4   BANK5   BANK6   BANK7   BANK8   BANK9  BANK10  BANK1
      +1  BANK12  BANK13  BANK14  BANK15
  1845 ;;      Params:         8       0       0       0       0       0       0       0       0       0       0       0       
      +0       0       0       0       0
  1846 ;;      Locals:         4       0       0       0       0       0       0       0       0       0       0       0       
      +0       0       0       0       0
  1847 ;;      Temps:          4       0       0       0       0       0       0       0       0       0       0       0       
      +0       0       0       0       0
  1848 ;;      Totals:        16       0       0       0       0       0       0       0       0       0       0       0       
      +0       0       0       0       0
  1849 ;;Total ram usage:       16 bytes
  1850 ;; Hardware stack levels used: 1
  1851 ;; This function calls:
  1852 ;;		Nothing
  1853 ;; This function is called by:
  1854 ;;		___flsub
  1855 ;;		_roundf
  1856 ;; This function uses a non-reentrant model
  1857 ;;
  1858                           
  1859                           	psect	text3
  1860   00102A                     __ptext3:
  1861                           	callstack 0
  1862   00102A                     ___fladd:
  1863                           	callstack 28
  1864   00102A  5004               	movf	(___fladd@b+3)^0,w,c
  1865   00102C  0B80               	andlw	128
  1866   00102E  6E0D               	movwf	___fladd@signs^0,c
  1867   001030  5004               	movf	(___fladd@b+3)^0,w,c
  1868   001032  2404               	addwf	(___fladd@b+3)^0,w,c
  1869   001034  6E0F               	movwf	___fladd@bexp^0,c
  1870   001036  AE03               	btfss	(___fladd@b+2)^0,7,c
  1871   001038  EF20  F008         	goto	u2891
  1872   00103C  EF22  F008         	goto	u2890
  1873   001040                     u2891:
  1874   001040  EF23  F008         	goto	l3171
  1875   001044                     u2890:
  1876   001044  800F               	bsf	___fladd@bexp^0,0,c
  1877   001046                     l3171:
  1878   001046  500F               	movf	___fladd@bexp^0,w,c
  1879   001048  B4D8               	btfsc	status,2,c
  1880   00104A  EF29  F008         	goto	u2901
  1881   00104E  EF2B  F008         	goto	u2900
  1882   001052                     u2901:
  1883   001052  EF40  F008         	goto	l3181
  1884   001056                     u2900:
  1885   001056  280F               	incf	___fladd@bexp^0,w,c
  1886   001058  A4D8               	btfss	status,2,c
  1887   00105A  EF31  F008         	goto	u2911
  1888   00105E  EF33  F008         	goto	u2910
  1889   001062                     u2911:
  1890   001062  EF3B  F008         	goto	l3177
  1891   001066                     u2910:
  1892   001066  0E00               	movlw	0
  1893   001068  6E01               	movwf	___fladd@b^0,c
  1894   00106A  0E00               	movlw	0
  1895   00106C  6E02               	movwf	(___fladd@b+1)^0,c
  1896   00106E  0E00               	movlw	0
  1897   001070  6E03               	movwf	(___fladd@b+2)^0,c
  1898   001072  0E00               	movlw	0
  1899   001074  6E04               	movwf	(___fladd@b+3)^0,c
  1900   001076                     l3177:
  1901   001076  8E03               	bsf	(___fladd@b+2)^0,7,c
  1902   001078  0E00               	movlw	0
  1903   00107A  6E04               	movwf	(___fladd@b+3)^0,c
  1904   00107C  EF48  F008         	goto	l3183
  1905   001080                     l3181:
  1906   001080  0E00               	movlw	0
  1907   001082  6E01               	movwf	___fladd@b^0,c
  1908   001084  0E00               	movlw	0
  1909   001086  6E02               	movwf	(___fladd@b+1)^0,c
  1910   001088  0E00               	movlw	0
  1911   00108A  6E03               	movwf	(___fladd@b+2)^0,c
  1912   00108C  0E00               	movlw	0
  1913   00108E  6E04               	movwf	(___fladd@b+3)^0,c
  1914   001090                     l3183:
  1915   001090  5008               	movf	(___fladd@a+3)^0,w,c
  1916   001092  0B80               	andlw	128
  1917   001094  6E0E               	movwf	___fladd@aexp^0,c
  1918   001096  500D               	movf	___fladd@signs^0,w,c
  1919   001098  180E               	xorwf	___fladd@aexp^0,w,c
  1920   00109A  B4D8               	btfsc	status,2,c
  1921   00109C  EF52  F008         	goto	u2921
  1922   0010A0  EF54  F008         	goto	u2920
  1923   0010A4                     u2921:
  1924   0010A4  EF55  F008         	goto	l3189
  1925   0010A8                     u2920:
  1926   0010A8  8C0D               	bsf	___fladd@signs^0,6,c
  1927   0010AA                     l3189:
  1928   0010AA  5008               	movf	(___fladd@a+3)^0,w,c
  1929   0010AC  2408               	addwf	(___fladd@a+3)^0,w,c
  1930   0010AE  6E0E               	movwf	___fladd@aexp^0,c
  1931   0010B0  AE07               	btfss	(___fladd@a+2)^0,7,c
  1932   0010B2  EF5D  F008         	goto	u2931
  1933   0010B6  EF5F  F008         	goto	u2930
  1934   0010BA                     u2931:
  1935   0010BA  EF60  F008         	goto	l3195
  1936   0010BE                     u2930:
  1937   0010BE  800E               	bsf	___fladd@aexp^0,0,c
  1938   0010C0                     l3195:
  1939   0010C0  500E               	movf	___fladd@aexp^0,w,c
  1940   0010C2  B4D8               	btfsc	status,2,c
  1941   0010C4  EF66  F008         	goto	u2941
  1942   0010C8  EF68  F008         	goto	u2940
  1943   0010CC                     u2941:
  1944   0010CC  EF7D  F008         	goto	l3205
  1945   0010D0                     u2940:
  1946   0010D0  280E               	incf	___fladd@aexp^0,w,c
  1947   0010D2  A4D8               	btfss	status,2,c
  1948   0010D4  EF6E  F008         	goto	u2951
  1949   0010D8  EF70  F008         	goto	u2950
  1950   0010DC                     u2951:
  1951   0010DC  EF78  F008         	goto	l3201
  1952   0010E0                     u2950:
  1953   0010E0  0E00               	movlw	0
  1954   0010E2  6E05               	movwf	___fladd@a^0,c
  1955   0010E4  0E00               	movlw	0
  1956   0010E6  6E06               	movwf	(___fladd@a+1)^0,c
  1957   0010E8  0E00               	movlw	0
  1958   0010EA  6E07               	movwf	(___fladd@a+2)^0,c
  1959   0010EC  0E00               	movlw	0
  1960   0010EE  6E08               	movwf	(___fladd@a+3)^0,c
  1961   0010F0                     l3201:
  1962   0010F0  8E07               	bsf	(___fladd@a+2)^0,7,c
  1963   0010F2  0E00               	movlw	0
  1964   0010F4  6E08               	movwf	(___fladd@a+3)^0,c
  1965   0010F6  EF85  F008         	goto	l3207
  1966   0010FA                     l3205:
  1967   0010FA  0E00               	movlw	0
  1968   0010FC  6E05               	movwf	___fladd@a^0,c
  1969   0010FE  0E00               	movlw	0
  1970   001100  6E06               	movwf	(___fladd@a+1)^0,c
  1971   001102  0E00               	movlw	0
  1972   001104  6E07               	movwf	(___fladd@a+2)^0,c
  1973   001106  0E00               	movlw	0
  1974   001108  6E08               	movwf	(___fladd@a+3)^0,c
  1975   00110A                     l3207:
  1976   00110A  500F               	movf	___fladd@bexp^0,w,c
  1977   00110C  5C0E               	subwf	___fladd@aexp^0,w,c
  1978   00110E  B0D8               	btfsc	status,0,c
  1979   001110  EF8C  F008         	goto	u2961
  1980   001114  EF8E  F008         	goto	u2960
  1981   001118                     u2961:
  1982   001118  EFB5  F008         	goto	l3243
  1983   00111C                     u2960:
  1984   00111C  AC0D               	btfss	___fladd@signs^0,6,c
  1985   00111E  EF93  F008         	goto	u2971
  1986   001122  EF95  F008         	goto	u2970
  1987   001126                     u2971:
  1988   001126  EF97  F008         	goto	l3213
  1989   00112A                     u2970:
  1990   00112A  0E80               	movlw	128
  1991   00112C  1A0D               	xorwf	___fladd@signs^0,f,c
  1992   00112E                     l3213:
  1993   00112E  C00F  F010         	movff	___fladd@bexp,___fladd@grs
  1994   001132  C00E  F00F         	movff	___fladd@aexp,___fladd@bexp
  1995   001136  C010  F00E         	movff	___fladd@grs,___fladd@aexp
  1996   00113A  C001  F010         	movff	___fladd@b,___fladd@grs
  1997   00113E  C005  F001         	movff	___fladd@a,___fladd@b
  1998   001142  C010  F005         	movff	___fladd@grs,___fladd@a
  1999   001146  C002  F010         	movff	___fladd@b+1,___fladd@grs
  2000   00114A  C006  F002         	movff	___fladd@a+1,___fladd@b+1
  2001   00114E  C010  F006         	movff	___fladd@grs,___fladd@a+1
  2002   001152  C003  F010         	movff	___fladd@b+2,___fladd@grs
  2003   001156  C007  F003         	movff	___fladd@a+2,___fladd@b+2
  2004   00115A  C010  F007         	movff	___fladd@grs,___fladd@a+2
  2005   00115E  C004  F010         	movff	___fladd@b+3,___fladd@grs
  2006   001162  C008  F004         	movff	___fladd@a+3,___fladd@b+3
  2007   001166  C010  F008         	movff	___fladd@grs,___fladd@a+3
  2008   00116A                     l3243:
  2009   00116A  0E00               	movlw	0
  2010   00116C  6E10               	movwf	___fladd@grs^0,c
  2011   00116E  500F               	movf	___fladd@bexp^0,w,c
  2012   001170  C00E  F009         	movff	___fladd@aexp,??___fladd
  2013   001174  6A0A               	clrf	(??___fladd+1)^0,c
  2014   001176  5E09               	subwf	??___fladd^0,f,c
  2015   001178  0E00               	movlw	0
  2016   00117A  5A0A               	subwfb	(??___fladd+1)^0,f,c
  2017   00117C  BE0A               	btfsc	(??___fladd+1)^0,7,c
  2018   00117E  EFCA  F008         	goto	u2981
  2019   001182  500A               	movf	(??___fladd+1)^0,w,c
  2020   001184  E109               	bnz	u2980
  2021   001186  0E1A               	movlw	26
  2022   001188  5C09               	subwf	??___fladd^0,w,c
  2023   00118A  A0D8               	btfss	status,0,c
  2024   00118C  EFCA  F008         	goto	u2981
  2025   001190  EFCC  F008         	goto	u2980
  2026   001194                     u2981:
  2027   001194  EF03  F009         	goto	l869
  2028   001198                     u2980:
  2029   001198  5001               	movf	___fladd@b^0,w,c
  2030   00119A  1002               	iorwf	(___fladd@b+1)^0,w,c
  2031   00119C  1003               	iorwf	(___fladd@b+2)^0,w,c
  2032   00119E  1004               	iorwf	(___fladd@b+3)^0,w,c
  2033   0011A0  A4D8               	btfss	status,2,c
  2034   0011A2  EFD5  F008         	goto	u2991
  2035   0011A6  EFD8  F008         	goto	u2990
  2036   0011AA                     u2991:
  2037   0011AA  0E01               	movlw	1
  2038   0011AC  EFD9  F008         	goto	u3000
  2039   0011B0                     u2990:
  2040   0011B0  0E00               	movlw	0
  2041   0011B2                     u3000:
  2042   0011B2  6E10               	movwf	___fladd@grs^0,c
  2043   0011B4  0E00               	movlw	0
  2044   0011B6  6E01               	movwf	___fladd@b^0,c
  2045   0011B8  0E00               	movlw	0
  2046   0011BA  6E02               	movwf	(___fladd@b+1)^0,c
  2047   0011BC  0E00               	movlw	0
  2048   0011BE  6E03               	movwf	(___fladd@b+2)^0,c
  2049   0011C0  0E00               	movlw	0
  2050   0011C2  6E04               	movwf	(___fladd@b+3)^0,c
  2051   0011C4  C00E  F00F         	movff	___fladd@aexp,___fladd@bexp
  2052   0011C8  EF0C  F009         	goto	l868
  2053   0011CC                     l870:
  2054   0011CC  A010               	btfss	___fladd@grs^0,0,c
  2055   0011CE  EFEB  F008         	goto	u3011
  2056   0011D2  EFED  F008         	goto	u3010
  2057   0011D6                     u3011:
  2058   0011D6  EFF3  F008         	goto	l3255
  2059   0011DA                     u3010:
  2060   0011DA  90D8               	bcf	status,0,c
  2061   0011DC  3010               	rrcf	___fladd@grs^0,w,c
  2062   0011DE  0901               	iorlw	1
  2063   0011E0  6E10               	movwf	___fladd@grs^0,c
  2064   0011E2  EFF5  F008         	goto	l3257
  2065   0011E6                     l3255:
  2066   0011E6  90D8               	bcf	status,0,c
  2067   0011E8  3210               	rrcf	___fladd@grs^0,f,c
  2068   0011EA                     l3257:
  2069   0011EA  A001               	btfss	___fladd@b^0,0,c
  2070   0011EC  EFFA  F008         	goto	u3021
  2071   0011F0  EFFC  F008         	goto	u3020
  2072   0011F4                     u3021:
  2073   0011F4  EFFD  F008         	goto	l3261
  2074   0011F8                     u3020:
  2075   0011F8  8E10               	bsf	___fladd@grs^0,7,c
  2076   0011FA                     l3261:
  2077   0011FA  3404               	rlcf	(___fladd@b+3)^0,w,c
  2078   0011FC  3204               	rrcf	(___fladd@b+3)^0,f,c
  2079   0011FE  3203               	rrcf	(___fladd@b+2)^0,f,c
  2080   001200  3202               	rrcf	(___fladd@b+1)^0,f,c
  2081   001202  3201               	rrcf	___fladd@b^0,f,c
  2082   001204  2A0F               	incf	___fladd@bexp^0,f,c
  2083   001206                     l869:
  2084   001206  500E               	movf	___fladd@aexp^0,w,c
  2085   001208  5C0F               	subwf	___fladd@bexp^0,w,c
  2086   00120A  A0D8               	btfss	status,0,c
  2087   00120C  EF0A  F009         	goto	u3031
  2088   001210  EF0C  F009         	goto	u3030
  2089   001214                     u3031:
  2090   001214  EFE6  F008         	goto	l870
  2091   001218                     u3030:
  2092   001218                     l868:
  2093   001218  BC0D               	btfsc	___fladd@signs^0,6,c
  2094   00121A  EF11  F009         	goto	u3041
  2095   00121E  EF13  F009         	goto	u3040
  2096   001222                     u3041:
  2097   001222  EF53  F009         	goto	l3289
  2098   001226                     u3040:
  2099   001226  500F               	movf	___fladd@bexp^0,w,c
  2100   001228  A4D8               	btfss	status,2,c
  2101   00122A  EF19  F009         	goto	u3051
  2102   00122E  EF1B  F009         	goto	u3050
  2103   001232                     u3051:
  2104   001232  EF25  F009         	goto	l3271
  2105   001236                     u3050:
  2106   001236  0E00               	movlw	0
  2107   001238  6E01               	movwf	?___fladd^0,c
  2108   00123A  0E00               	movlw	0
  2109   00123C  6E02               	movwf	(?___fladd+1)^0,c
  2110   00123E  0E00               	movlw	0
  2111   001240  6E03               	movwf	(?___fladd+2)^0,c
  2112   001242  0E00               	movlw	0
  2113   001244  6E04               	movwf	(?___fladd+3)^0,c
  2114   001246  EF74  F00A         	goto	l877
  2115   00124A                     l3271:
  2116   00124A  5005               	movf	___fladd@a^0,w,c
  2117   00124C  2601               	addwf	___fladd@b^0,f,c
  2118   00124E  5006               	movf	(___fladd@a+1)^0,w,c
  2119   001250  2202               	addwfc	(___fladd@b+1)^0,f,c
  2120   001252  5007               	movf	(___fladd@a+2)^0,w,c
  2121   001254  2203               	addwfc	(___fladd@b+2)^0,f,c
  2122   001256  5008               	movf	(___fladd@a+3)^0,w,c
  2123   001258  2204               	addwfc	(___fladd@b+3)^0,f,c
  2124   00125A  A004               	btfss	(___fladd@b+3)^0,0,c
  2125   00125C  EF32  F009         	goto	u3061
  2126   001260  EF34  F009         	goto	u3060
  2127   001264                     u3061:
  2128   001264  EFE0  F009         	goto	l3325
  2129   001268                     u3060:
  2130   001268  A010               	btfss	___fladd@grs^0,0,c
  2131   00126A  EF39  F009         	goto	u3071
  2132   00126E  EF3B  F009         	goto	u3070
  2133   001272                     u3071:
  2134   001272  EF41  F009         	goto	l3279
  2135   001276                     u3070:
  2136   001276  90D8               	bcf	status,0,c
  2137   001278  3010               	rrcf	___fladd@grs^0,w,c
  2138   00127A  0901               	iorlw	1
  2139   00127C  6E10               	movwf	___fladd@grs^0,c
  2140   00127E  EF43  F009         	goto	l3281
  2141   001282                     l3279:
  2142   001282  90D8               	bcf	status,0,c
  2143   001284  3210               	rrcf	___fladd@grs^0,f,c
  2144   001286                     l3281:
  2145   001286  A001               	btfss	___fladd@b^0,0,c
  2146   001288  EF48  F009         	goto	u3081
  2147   00128C  EF4A  F009         	goto	u3080
  2148   001290                     u3081:
  2149   001290  EF4B  F009         	goto	l3285
  2150   001294                     u3080:
  2151   001294  8E10               	bsf	___fladd@grs^0,7,c
  2152   001296                     l3285:
  2153   001296  3404               	rlcf	(___fladd@b+3)^0,w,c
  2154   001298  3204               	rrcf	(___fladd@b+3)^0,f,c
  2155   00129A  3203               	rrcf	(___fladd@b+2)^0,f,c
  2156   00129C  3202               	rrcf	(___fladd@b+1)^0,f,c
  2157   00129E  3201               	rrcf	___fladd@b^0,f,c
  2158   0012A0  2A0F               	incf	___fladd@bexp^0,f,c
  2159   0012A2  EFE0  F009         	goto	l3325
  2160   0012A6                     l3289:
  2161   0012A6  5005               	movf	___fladd@a^0,w,c
  2162   0012A8  5C01               	subwf	___fladd@b^0,w,c
  2163   0012AA  5006               	movf	(___fladd@a+1)^0,w,c
  2164   0012AC  5802               	subwfb	(___fladd@b+1)^0,w,c
  2165   0012AE  5007               	movf	(___fladd@a+2)^0,w,c
  2166   0012B0  5803               	subwfb	(___fladd@b+2)^0,w,c
  2167   0012B2  5004               	movf	(___fladd@b+3)^0,w,c
  2168   0012B4  0A80               	xorlw	128
  2169   0012B6  6E09               	movwf	??___fladd^0,c
  2170   0012B8  5008               	movf	(___fladd@a+3)^0,w,c
  2171   0012BA  0A80               	xorlw	128
  2172   0012BC  5809               	subwfb	??___fladd^0,w,c
  2173   0012BE  B0D8               	btfsc	status,0,c
  2174   0012C0  EF64  F009         	goto	u3091
  2175   0012C4  EF66  F009         	goto	u3090
  2176   0012C8                     u3091:
  2177   0012C8  EF91  F009         	goto	l3299
  2178   0012CC                     u3090:
  2179   0012CC  5001               	movf	___fladd@b^0,w,c
  2180   0012CE  5C05               	subwf	___fladd@a^0,w,c
  2181   0012D0  6E09               	movwf	??___fladd^0,c
  2182   0012D2  5002               	movf	(___fladd@b+1)^0,w,c
  2183   0012D4  5806               	subwfb	(___fladd@a+1)^0,w,c
  2184   0012D6  6E0A               	movwf	(??___fladd+1)^0,c
  2185   0012D8  5003               	movf	(___fladd@b+2)^0,w,c
  2186   0012DA  5807               	subwfb	(___fladd@a+2)^0,w,c
  2187   0012DC  6E0B               	movwf	(??___fladd+2)^0,c
  2188   0012DE  5004               	movf	(___fladd@b+3)^0,w,c
  2189   0012E0  5808               	subwfb	(___fladd@a+3)^0,w,c
  2190   0012E2  6E0C               	movwf	(??___fladd+3)^0,c
  2191   0012E4  0EFF               	movlw	255
  2192   0012E6  2409               	addwf	??___fladd^0,w,c
  2193   0012E8  6E01               	movwf	___fladd@b^0,c
  2194   0012EA  0EFF               	movlw	255
  2195   0012EC  200A               	addwfc	(??___fladd+1)^0,w,c
  2196   0012EE  6E02               	movwf	(___fladd@b+1)^0,c
  2197   0012F0  0EFF               	movlw	255
  2198   0012F2  200B               	addwfc	(??___fladd+2)^0,w,c
  2199   0012F4  6E03               	movwf	(___fladd@b+2)^0,c
  2200   0012F6  0EFF               	movlw	255
  2201   0012F8  200C               	addwfc	(??___fladd+3)^0,w,c
  2202   0012FA  6E04               	movwf	(___fladd@b+3)^0,c
  2203   0012FC  0E80               	movlw	128
  2204   0012FE  1A0D               	xorwf	___fladd@signs^0,f,c
  2205   001300  6C10               	negf	___fladd@grs^0,c
  2206   001302  5010               	movf	___fladd@grs^0,w,c
  2207   001304  A4D8               	btfss	status,2,c
  2208   001306  EF87  F009         	goto	u3101
  2209   00130A  EF89  F009         	goto	u3100
  2210   00130E                     u3101:
  2211   00130E  EF99  F009         	goto	l885
  2212   001312                     u3100:
  2213   001312  0E01               	movlw	1
  2214   001314  2601               	addwf	___fladd@b^0,f,c
  2215   001316  0E00               	movlw	0
  2216   001318  2202               	addwfc	(___fladd@b+1)^0,f,c
  2217   00131A  2203               	addwfc	(___fladd@b+2)^0,f,c
  2218   00131C  2204               	addwfc	(___fladd@b+3)^0,f,c
  2219   00131E  EF99  F009         	goto	l885
  2220   001322                     l3299:
  2221   001322  5005               	movf	___fladd@a^0,w,c
  2222   001324  5E01               	subwf	___fladd@b^0,f,c
  2223   001326  5006               	movf	(___fladd@a+1)^0,w,c
  2224   001328  5A02               	subwfb	(___fladd@b+1)^0,f,c
  2225   00132A  5007               	movf	(___fladd@a+2)^0,w,c
  2226   00132C  5A03               	subwfb	(___fladd@b+2)^0,f,c
  2227   00132E  5008               	movf	(___fladd@a+3)^0,w,c
  2228   001330  5A04               	subwfb	(___fladd@b+3)^0,f,c
  2229   001332                     l885:
  2230   001332  5001               	movf	___fladd@b^0,w,c
  2231   001334  1002               	iorwf	(___fladd@b+1)^0,w,c
  2232   001336  1003               	iorwf	(___fladd@b+2)^0,w,c
  2233   001338  1004               	iorwf	(___fladd@b+3)^0,w,c
  2234   00133A  A4D8               	btfss	status,2,c
  2235   00133C  EFA2  F009         	goto	u3111
  2236   001340  EFA4  F009         	goto	u3110
  2237   001344                     u3111:
  2238   001344  EFD9  F009         	goto	l3323
  2239   001348                     u3110:
  2240   001348  5010               	movf	___fladd@grs^0,w,c
  2241   00134A  A4D8               	btfss	status,2,c
  2242   00134C  EFAA  F009         	goto	u3121
  2243   001350  EFAC  F009         	goto	u3120
  2244   001354                     u3121:
  2245   001354  EFD9  F009         	goto	l3323
  2246   001358                     u3120:
  2247   001358  0E00               	movlw	0
  2248   00135A  6E01               	movwf	?___fladd^0,c
  2249   00135C  0E00               	movlw	0
  2250   00135E  6E02               	movwf	(?___fladd+1)^0,c
  2251   001360  0E00               	movlw	0
  2252   001362  6E03               	movwf	(?___fladd+2)^0,c
  2253   001364  0E00               	movlw	0
  2254   001366  6E04               	movwf	(?___fladd+3)^0,c
  2255   001368  EF74  F00A         	goto	l877
  2256   00136C                     l3307:
  2257   00136C  90D8               	bcf	status,0,c
  2258   00136E  3601               	rlcf	___fladd@b^0,f,c
  2259   001370  3602               	rlcf	(___fladd@b+1)^0,f,c
  2260   001372  3603               	rlcf	(___fladd@b+2)^0,f,c
  2261   001374  3604               	rlcf	(___fladd@b+3)^0,f,c
  2262   001376  AE10               	btfss	___fladd@grs^0,7,c
  2263   001378  EFC0  F009         	goto	u3131
  2264   00137C  EFC2  F009         	goto	u3130
  2265   001380                     u3131:
  2266   001380  EFC3  F009         	goto	l3313
  2267   001384                     u3130:
  2268   001384  8001               	bsf	___fladd@b^0,0,c
  2269   001386                     l3313:
  2270   001386  A010               	btfss	___fladd@grs^0,0,c
  2271   001388  EFC8  F009         	goto	u3141
  2272   00138C  EFCA  F009         	goto	u3140
  2273   001390                     u3141:
  2274   001390  EFCE  F009         	goto	l3317
  2275   001394                     u3140:
  2276   001394  80D8               	bsf	status,0,c
  2277   001396  3610               	rlcf	___fladd@grs^0,f,c
  2278   001398  EFD0  F009         	goto	l3319
  2279   00139C                     l3317:
  2280   00139C  90D8               	bcf	status,0,c
  2281   00139E  3610               	rlcf	___fladd@grs^0,f,c
  2282   0013A0                     l3319:
  2283   0013A0  500F               	movf	___fladd@bexp^0,w,c
  2284   0013A2  B4D8               	btfsc	status,2,c
  2285   0013A4  EFD6  F009         	goto	u3151
  2286   0013A8  EFD8  F009         	goto	u3150
  2287   0013AC                     u3151:
  2288   0013AC  EFD9  F009         	goto	l3323
  2289   0013B0                     u3150:
  2290   0013B0  060F               	decf	___fladd@bexp^0,f,c
  2291   0013B2                     l3323:
  2292   0013B2  AE03               	btfss	(___fladd@b+2)^0,7,c
  2293   0013B4  EFDE  F009         	goto	u3161
  2294   0013B8  EFE0  F009         	goto	u3160
  2295   0013BC                     u3161:
  2296   0013BC  EFB6  F009         	goto	l3307
  2297   0013C0                     u3160:
  2298   0013C0                     l3325:
  2299   0013C0  0E00               	movlw	0
  2300   0013C2  6E0E               	movwf	___fladd@aexp^0,c
  2301   0013C4  AE10               	btfss	___fladd@grs^0,7,c
  2302   0013C6  EFE7  F009         	goto	u3171
  2303   0013CA  EFE9  F009         	goto	u3170
  2304   0013CE                     u3171:
  2305   0013CE  EF01  F00A         	goto	l894
  2306   0013D2                     u3170:
  2307   0013D2  C010  F009         	movff	___fladd@grs,??___fladd
  2308   0013D6  0E7F               	movlw	127
  2309   0013D8  1609               	andwf	??___fladd^0,f,c
  2310   0013DA  B4D8               	btfsc	status,2,c
  2311   0013DC  EFF2  F009         	goto	u3181
  2312   0013E0  EFF4  F009         	goto	u3180
  2313   0013E4                     u3181:
  2314   0013E4  EFF8  F009         	goto	l895
  2315   0013E8                     u3180:
  2316   0013E8                     l3331:
  2317   0013E8  0E01               	movlw	1
  2318   0013EA  6E0E               	movwf	___fladd@aexp^0,c
  2319   0013EC  EF01  F00A         	goto	l894
  2320   0013F0                     l895:
  2321   0013F0  A001               	btfss	___fladd@b^0,0,c
  2322   0013F2  EFFD  F009         	goto	u3191
  2323   0013F6  EFFF  F009         	goto	u3190
  2324   0013FA                     u3191:
  2325   0013FA  EF01  F00A         	goto	l894
  2326   0013FE                     u3190:
  2327   0013FE  EFF4  F009         	goto	l3331
  2328   001402                     l894:
  2329   001402  500E               	movf	___fladd@aexp^0,w,c
  2330   001404  B4D8               	btfsc	status,2,c
  2331   001406  EF07  F00A         	goto	u3201
  2332   00140A  EF09  F00A         	goto	u3200
  2333   00140E                     u3201:
  2334   00140E  EF34  F00A         	goto	l3343
  2335   001412                     u3200:
  2336   001412  0E01               	movlw	1
  2337   001414  2601               	addwf	___fladd@b^0,f,c
  2338   001416  0E00               	movlw	0
  2339   001418  2202               	addwfc	(___fladd@b+1)^0,f,c
  2340   00141A  2203               	addwfc	(___fladd@b+2)^0,f,c
  2341   00141C  2204               	addwfc	(___fladd@b+3)^0,f,c
  2342   00141E  A004               	btfss	(___fladd@b+3)^0,0,c
  2343   001420  EF14  F00A         	goto	u3211
  2344   001424  EF16  F00A         	goto	u3210
  2345   001428                     u3211:
  2346   001428  EF34  F00A         	goto	l3343
  2347   00142C                     u3210:
  2348   00142C  C001  F009         	movff	___fladd@b,??___fladd
  2349   001430  C002  F00A         	movff	___fladd@b+1,??___fladd+1
  2350   001434  C003  F00B         	movff	___fladd@b+2,??___fladd+2
  2351   001438  C004  F00C         	movff	___fladd@b+3,??___fladd+3
  2352   00143C  340C               	rlcf	(??___fladd+3)^0,w,c
  2353   00143E  320C               	rrcf	(??___fladd+3)^0,f,c
  2354   001440  320B               	rrcf	(??___fladd+2)^0,f,c
  2355   001442  320A               	rrcf	(??___fladd+1)^0,f,c
  2356   001444  3209               	rrcf	??___fladd^0,f,c
  2357   001446  C009  F001         	movff	??___fladd,___fladd@b
  2358   00144A  C00A  F002         	movff	??___fladd+1,___fladd@b+1
  2359   00144E  C00B  F003         	movff	??___fladd+2,___fladd@b+2
  2360   001452  C00C  F004         	movff	??___fladd+3,___fladd@b+3
  2361   001456  280F               	incf	___fladd@bexp^0,w,c
  2362   001458  B4D8               	btfsc	status,2,c
  2363   00145A  EF31  F00A         	goto	u3221
  2364   00145E  EF33  F00A         	goto	u3220
  2365   001462                     u3221:
  2366   001462  EF34  F00A         	goto	l3343
  2367   001466                     u3220:
  2368   001466  2A0F               	incf	___fladd@bexp^0,f,c
  2369   001468                     l3343:
  2370   001468  280F               	incf	___fladd@bexp^0,w,c
  2371   00146A  B4D8               	btfsc	status,2,c
  2372   00146C  EF3A  F00A         	goto	u3231
  2373   001470  EF3C  F00A         	goto	u3230
  2374   001474                     u3231:
  2375   001474  EF44  F00A         	goto	l3347
  2376   001478                     u3230:
  2377   001478  500F               	movf	___fladd@bexp^0,w,c
  2378   00147A  A4D8               	btfss	status,2,c
  2379   00147C  EF42  F00A         	goto	u3241
  2380   001480  EF44  F00A         	goto	u3240
  2381   001484                     u3241:
  2382   001484  EF56  F00A         	goto	l3351
  2383   001488                     u3240:
  2384   001488                     l3347:
  2385   001488  0E00               	movlw	0
  2386   00148A  6E01               	movwf	___fladd@b^0,c
  2387   00148C  0E00               	movlw	0
  2388   00148E  6E02               	movwf	(___fladd@b+1)^0,c
  2389   001490  0E00               	movlw	0
  2390   001492  6E03               	movwf	(___fladd@b+2)^0,c
  2391   001494  0E00               	movlw	0
  2392   001496  6E04               	movwf	(___fladd@b+3)^0,c
  2393   001498  500F               	movf	___fladd@bexp^0,w,c
  2394   00149A  A4D8               	btfss	status,2,c
  2395   00149C  EF52  F00A         	goto	u3251
  2396   0014A0  EF54  F00A         	goto	u3250
  2397   0014A4                     u3251:
  2398   0014A4  EF56  F00A         	goto	l3351
  2399   0014A8                     u3250:
  2400   0014A8  0E00               	movlw	0
  2401   0014AA  6E0D               	movwf	___fladd@signs^0,c
  2402   0014AC                     l3351:
  2403   0014AC  A00F               	btfss	___fladd@bexp^0,0,c
  2404   0014AE  EF5B  F00A         	goto	u3261
  2405   0014B2  EF5D  F00A         	goto	u3260
  2406   0014B6                     u3261:
  2407   0014B6  EF60  F00A         	goto	l3355
  2408   0014BA                     u3260:
  2409   0014BA  8E03               	bsf	(___fladd@b+2)^0,7,c
  2410   0014BC  EF61  F00A         	goto	l3357
  2411   0014C0                     l3355:
  2412   0014C0  9E03               	bcf	(___fladd@b+2)^0,7,c
  2413   0014C2                     l3357:
  2414   0014C2  90D8               	bcf	status,0,c
  2415   0014C4  300F               	rrcf	___fladd@bexp^0,w,c
  2416   0014C6  6E04               	movwf	(___fladd@b+3)^0,c
  2417   0014C8  AE0D               	btfss	___fladd@signs^0,7,c
  2418   0014CA  EF69  F00A         	goto	u3271
  2419   0014CE  EF6B  F00A         	goto	u3270
  2420   0014D2                     u3271:
  2421   0014D2  EF6C  F00A         	goto	l3363
  2422   0014D6                     u3270:
  2423   0014D6  8E04               	bsf	(___fladd@b+3)^0,7,c
  2424   0014D8                     l3363:
  2425   0014D8  C001  F001         	movff	___fladd@b,?___fladd
  2426   0014DC  C002  F002         	movff	___fladd@b+1,?___fladd+1
  2427   0014E0  C003  F003         	movff	___fladd@b+2,?___fladd+2
  2428   0014E4  C004  F004         	movff	___fladd@b+3,?___fladd+3
  2429   0014E8                     l877:
  2430   0014E8  0012               	return		;funcret
  2431   0014EA                     __end_of___fladd:
  2432                           	callstack 0
  2433                           
  2434 ;; *************** function ___flneg *****************
  2435 ;; Defined at:
  2436 ;;		line 15 in file "C:\Program Files\Microchip\xc8\v2.40\pic\sources\c99\common\flneg.c"
  2437 ;; Parameters:    Size  Location     Type
  2438 ;;  f1              4    0[COMRAM] unsigned char 
  2439 ;; Auto vars:     Size  Location     Type
  2440 ;;		None
  2441 ;; Return value:  Size  Location     Type
  2442 ;;                  4    0[COMRAM] unsigned char 
  2443 ;; Registers used:
  2444 ;;		wreg, status,2, status,0
  2445 ;; Tracked objects:
  2446 ;;		On entry : 0/0
  2447 ;;		On exit  : 0/0
  2448 ;;		Unchanged: 0/0
  2449 ;; Data sizes:     COMRAM   BANK0   BANK1   BANK2   BANK3   BANK4   BANK5   BANK6   BANK7   BANK8   BANK9  BANK10  BANK1
      +1  BANK12  BANK13  BANK14  BANK15
  2450 ;;      Params:         4       0       0       0       0       0       0       0       0       0       0       0       
      +0       0       0       0       0
  2451 ;;      Locals:         0       0       0       0       0       0       0       0       0       0       0       0       
      +0       0       0       0       0
  2452 ;;      Temps:          0       0       0       0       0       0       0       0       0       0       0       0       
      +0       0       0       0       0
  2453 ;;      Totals:         4       0       0       0       0       0       0       0       0       0       0       0       
      +0       0       0       0       0
  2454 ;;Total ram usage:        4 bytes
  2455 ;; Hardware stack levels used: 1
  2456 ;; This function calls:
  2457 ;;		Nothing
  2458 ;; This function is called by:
  2459 ;;		_roundf
  2460 ;; This function uses a non-reentrant model
  2461 ;;
  2462                           
  2463                           	psect	text4
  2464   004060                     __ptext4:
  2465                           	callstack 0
  2466   004060                     ___flneg:
  2467                           	callstack 29
  2468   004060  5001               	movf	___flneg@f1^0,w,c
  2469   004062  1002               	iorwf	(___flneg@f1+1)^0,w,c
  2470   004064  1003               	iorwf	(___flneg@f1+2)^0,w,c
  2471   004066  1004               	iorwf	(___flneg@f1+3)^0,w,c
  2472   004068  B4D8               	btfsc	status,2,c
  2473   00406A  EF39  F020         	goto	u3961
  2474   00406E  EF3B  F020         	goto	u3960
  2475   004072                     u3961:
  2476   004072  EF43  F020         	goto	l3831
  2477   004076                     u3960:
  2478   004076  0E00               	movlw	0
  2479   004078  1A01               	xorwf	___flneg@f1^0,f,c
  2480   00407A  0E00               	movlw	0
  2481   00407C  1A02               	xorwf	(___flneg@f1+1)^0,f,c
  2482   00407E  0E00               	movlw	0
  2483   004080  1A03               	xorwf	(___flneg@f1+2)^0,f,c
  2484   004082  0E80               	movlw	128
  2485   004084  1A04               	xorwf	(___flneg@f1+3)^0,f,c
  2486   004086                     l3831:
  2487   004086  C001  F001         	movff	___flneg@f1,?___flneg
  2488   00408A  C002  F002         	movff	___flneg@f1+1,?___flneg+1
  2489   00408E  C003  F003         	movff	___flneg@f1+2,?___flneg+2
  2490   004092  C004  F004         	movff	___flneg@f1+3,?___flneg+3
  2491   004096  0012               	return		;funcret
  2492   004098                     __end_of___flneg:
  2493                           	callstack 0
  2494                           
  2495 ;; *************** function ___flge *****************
  2496 ;; Defined at:
  2497 ;;		line 4 in file "C:\Program Files\Microchip\xc8\v2.40\pic\sources\c99\common\flge.c"
  2498 ;; Parameters:    Size  Location     Type
  2499 ;;  ff1             4    0[COMRAM] unsigned char 
  2500 ;;  ff2             4    4[COMRAM] unsigned char 
  2501 ;; Auto vars:     Size  Location     Type
  2502 ;;		None
  2503 ;; Return value:  Size  Location     Type
  2504 ;;		None               void
  2505 ;; Registers used:
  2506 ;;		wreg, status,2, status,0
  2507 ;; Tracked objects:
  2508 ;;		On entry : 0/0
  2509 ;;		On exit  : 0/0
  2510 ;;		Unchanged: 0/0
  2511 ;; Data sizes:     COMRAM   BANK0   BANK1   BANK2   BANK3   BANK4   BANK5   BANK6   BANK7   BANK8   BANK9  BANK10  BANK1
      +1  BANK12  BANK13  BANK14  BANK15
  2512 ;;      Params:         8       0       0       0       0       0       0       0       0       0       0       0       
      +0       0       0       0       0
  2513 ;;      Locals:         0       0       0       0       0       0       0       0       0       0       0       0       
      +0       0       0       0       0
  2514 ;;      Temps:          4       0       0       0       0       0       0       0       0       0       0       0       
      +0       0       0       0       0
  2515 ;;      Totals:        12       0       0       0       0       0       0       0       0       0       0       0       
      +0       0       0       0       0
  2516 ;;Total ram usage:       12 bytes
  2517 ;; Hardware stack levels used: 1
  2518 ;; This function calls:
  2519 ;;		Nothing
  2520 ;; This function is called by:
  2521 ;;		_roundf
  2522 ;; This function uses a non-reentrant model
  2523 ;;
  2524                           
  2525                           	psect	text5
  2526   00328A                     __ptext5:
  2527                           	callstack 0
  2528   00328A                     ___flge:
  2529                           	callstack 29
  2530   00328A  0E00               	movlw	0
  2531   00328C  1401               	andwf	___flge@ff1^0,w,c
  2532   00328E  6E09               	movwf	??___flge^0,c
  2533   003290  0E00               	movlw	0
  2534   003292  1402               	andwf	(___flge@ff1+1)^0,w,c
  2535   003294  6E0A               	movwf	(??___flge+1)^0,c
  2536   003296  0E80               	movlw	128
  2537   003298  1403               	andwf	(___flge@ff1+2)^0,w,c
  2538   00329A  6E0B               	movwf	(??___flge+2)^0,c
  2539   00329C  0E7F               	movlw	127
  2540   00329E  1404               	andwf	(___flge@ff1+3)^0,w,c
  2541   0032A0  6E0C               	movwf	(??___flge+3)^0,c
  2542   0032A2  5009               	movf	??___flge^0,w,c
  2543   0032A4  100A               	iorwf	(??___flge+1)^0,w,c
  2544   0032A6  100B               	iorwf	(??___flge+2)^0,w,c
  2545   0032A8  100C               	iorwf	(??___flge+3)^0,w,c
  2546   0032AA  A4D8               	btfss	status,2,c
  2547   0032AC  EF5A  F019         	goto	u3911
  2548   0032B0  EF5C  F019         	goto	u3910
  2549   0032B4                     u3911:
  2550   0032B4  EF64  F019         	goto	l3809
  2551   0032B8                     u3910:
  2552   0032B8  0E00               	movlw	0
  2553   0032BA  6E01               	movwf	___flge@ff1^0,c
  2554   0032BC  0E00               	movlw	0
  2555   0032BE  6E02               	movwf	(___flge@ff1+1)^0,c
  2556   0032C0  0E00               	movlw	0
  2557   0032C2  6E03               	movwf	(___flge@ff1+2)^0,c
  2558   0032C4  0E00               	movlw	0
  2559   0032C6  6E04               	movwf	(___flge@ff1+3)^0,c
  2560   0032C8                     l3809:
  2561   0032C8  0E00               	movlw	0
  2562   0032CA  1405               	andwf	___flge@ff2^0,w,c
  2563   0032CC  6E09               	movwf	??___flge^0,c
  2564   0032CE  0E00               	movlw	0
  2565   0032D0  1406               	andwf	(___flge@ff2+1)^0,w,c
  2566   0032D2  6E0A               	movwf	(??___flge+1)^0,c
  2567   0032D4  0E80               	movlw	128
  2568   0032D6  1407               	andwf	(___flge@ff2+2)^0,w,c
  2569   0032D8  6E0B               	movwf	(??___flge+2)^0,c
  2570   0032DA  0E7F               	movlw	127
  2571   0032DC  1408               	andwf	(___flge@ff2+3)^0,w,c
  2572   0032DE  6E0C               	movwf	(??___flge+3)^0,c
  2573   0032E0  5009               	movf	??___flge^0,w,c
  2574   0032E2  100A               	iorwf	(??___flge+1)^0,w,c
  2575   0032E4  100B               	iorwf	(??___flge+2)^0,w,c
  2576   0032E6  100C               	iorwf	(??___flge+3)^0,w,c
  2577   0032E8  A4D8               	btfss	status,2,c
  2578   0032EA  EF79  F019         	goto	u3921
  2579   0032EE  EF7B  F019         	goto	u3920
  2580   0032F2                     u3921:
  2581   0032F2  EF83  F019         	goto	l3813
  2582   0032F6                     u3920:
  2583   0032F6  0E00               	movlw	0
  2584   0032F8  6E05               	movwf	___flge@ff2^0,c
  2585   0032FA  0E00               	movlw	0
  2586   0032FC  6E06               	movwf	(___flge@ff2+1)^0,c
  2587   0032FE  0E00               	movlw	0
  2588   003300  6E07               	movwf	(___flge@ff2+2)^0,c
  2589   003302  0E00               	movlw	0
  2590   003304  6E08               	movwf	(___flge@ff2+3)^0,c
  2591   003306                     l3813:
  2592   003306  AE04               	btfss	(___flge@ff1+3)^0,7,c
  2593   003308  EF88  F019         	goto	u3931
  2594   00330C  EF8A  F019         	goto	u3930
  2595   003310                     u3931:
  2596   003310  EF93  F019         	goto	l3817
  2597   003314                     u3930:
  2598   003314  6C01               	negf	___flge@ff1^0,c
  2599   003316  1E02               	comf	(___flge@ff1+1)^0,f,c
  2600   003318  B0D8               	btfsc	status,0,c
  2601   00331A  2A02               	incf	(___flge@ff1+1)^0,f,c
  2602   00331C  1E03               	comf	(___flge@ff1+2)^0,f,c
  2603   00331E  B0D8               	btfsc	status,0,c
  2604   003320  2A03               	incf	(___flge@ff1+2)^0,f,c
  2605   003322  0E80               	movlw	128
  2606   003324  5604               	subfwb	(___flge@ff1+3)^0,f,c
  2607   003326                     l3817:
  2608   003326  AE08               	btfss	(___flge@ff2+3)^0,7,c
  2609   003328  EF98  F019         	goto	u3941
  2610   00332C  EF9A  F019         	goto	u3940
  2611   003330                     u3941:
  2612   003330  EFA3  F019         	goto	l605
  2613   003334                     u3940:
  2614   003334  6C05               	negf	___flge@ff2^0,c
  2615   003336  1E06               	comf	(___flge@ff2+1)^0,f,c
  2616   003338  B0D8               	btfsc	status,0,c
  2617   00333A  2A06               	incf	(___flge@ff2+1)^0,f,c
  2618   00333C  1E07               	comf	(___flge@ff2+2)^0,f,c
  2619   00333E  B0D8               	btfsc	status,0,c
  2620   003340  2A07               	incf	(___flge@ff2+2)^0,f,c
  2621   003342  0E80               	movlw	128
  2622   003344  5608               	subfwb	(___flge@ff2+3)^0,f,c
  2623   003346                     l605:
  2624   003346  0E00               	movlw	0
  2625   003348  1A01               	xorwf	___flge@ff1^0,f,c
  2626   00334A  0E00               	movlw	0
  2627   00334C  1A02               	xorwf	(___flge@ff1+1)^0,f,c
  2628   00334E  0E00               	movlw	0
  2629   003350  1A03               	xorwf	(___flge@ff1+2)^0,f,c
  2630   003352  0E80               	movlw	128
  2631   003354  1A04               	xorwf	(___flge@ff1+3)^0,f,c
  2632   003356  0E00               	movlw	0
  2633   003358  1A05               	xorwf	___flge@ff2^0,f,c
  2634   00335A  0E00               	movlw	0
  2635   00335C  1A06               	xorwf	(___flge@ff2+1)^0,f,c
  2636   00335E  0E00               	movlw	0
  2637   003360  1A07               	xorwf	(___flge@ff2+2)^0,f,c
  2638   003362  0E80               	movlw	128
  2639   003364  1A08               	xorwf	(___flge@ff2+3)^0,f,c
  2640   003366  5005               	movf	___flge@ff2^0,w,c
  2641   003368  5C01               	subwf	___flge@ff1^0,w,c
  2642   00336A  5006               	movf	(___flge@ff2+1)^0,w,c
  2643   00336C  5802               	subwfb	(___flge@ff1+1)^0,w,c
  2644   00336E  5007               	movf	(___flge@ff2+2)^0,w,c
  2645   003370  5803               	subwfb	(___flge@ff1+2)^0,w,c
  2646   003372  5008               	movf	(___flge@ff2+3)^0,w,c
  2647   003374  5804               	subwfb	(___flge@ff1+3)^0,w,c
  2648   003376  B0D8               	btfsc	status,0,c
  2649   003378  EFC0  F019         	goto	u3951
  2650   00337C  EFC2  F019         	goto	u3950
  2651   003380                     u3951:
  2652   003380  EFC5  F019         	goto	l3823
  2653   003384                     u3950:
  2654   003384  90D8               	bcf	status,0,c
  2655   003386  EFC6  F019         	goto	l610
  2656   00338A                     l3823:
  2657   00338A  80D8               	bsf	status,0,c
  2658   00338C                     l610:
  2659   00338C  0012               	return		;funcret
  2660   00338E                     __end_of___flge:
  2661                           	callstack 0
  2662                           
  2663 ;; *************** function _motor_move *****************
  2664 ;; Defined at:
  2665 ;;		line 20 in file "ECU_Layer/DC_Motor/ecu_dc_motor.c"
  2666 ;; Parameters:    Size  Location     Type
  2667 ;;  motor           2   10[COMRAM] PTR const struct .
  2668 ;;		 -> motor(2), 
  2669 ;; Auto vars:     Size  Location     Type
  2670 ;;  ret             1   12[COMRAM] unsigned char 
  2671 ;; Return value:  Size  Location     Type
  2672 ;;                  1    wreg      unsigned char 
  2673 ;; Registers used:
  2674 ;;		wreg, fsr2l, fsr2h, status,2, status,0, prodl, prodh, cstack
  2675 ;; Tracked objects:
  2676 ;;		On entry : 0/0
  2677 ;;		On exit  : 0/0
  2678 ;;		Unchanged: 0/0
  2679 ;; Data sizes:     COMRAM   BANK0   BANK1   BANK2   BANK3   BANK4   BANK5   BANK6   BANK7   BANK8   BANK9  BANK10  BANK1
      +1  BANK12  BANK13  BANK14  BANK15
  2680 ;;      Params:         2       0       0       0       0       0       0       0       0       0       0       0       
      +0       0       0       0       0
  2681 ;;      Locals:         1       0       0       0       0       0       0       0       0       0       0       0       
      +0       0       0       0       0
  2682 ;;      Temps:          0       0       0       0       0       0       0       0       0       0       0       0       
      +0       0       0       0       0
  2683 ;;      Totals:         3       0       0       0       0       0       0       0       0       0       0       0       
      +0       0       0       0       0
  2684 ;;Total ram usage:        3 bytes
  2685 ;; Hardware stack levels used: 1
  2686 ;; Hardware stack levels required when called: 1
  2687 ;; This function calls:
  2688 ;;		_gpio_pin_write_logic
  2689 ;; This function is called by:
  2690 ;;		_main
  2691 ;; This function uses a non-reentrant model
  2692 ;;
  2693                           
  2694                           	psect	text6
  2695   003FA0                     __ptext6:
  2696                           	callstack 0
  2697   003FA0                     _motor_move:
  2698                           	callstack 29
  2699   003FA0                     
  2700                           ;ECU_Layer/DC_Motor/ecu_dc_motor.c: 21:     Std_ReturnType ret = (Std_ReturnType)0x00;
  2701   003FA0  0E00               	movlw	0
  2702   003FA2  6E0D               	movwf	motor_move@ret^0,c
  2703   003FA4                     
  2704                           ;ECU_Layer/DC_Motor/ecu_dc_motor.c: 22:     if(((void*)0) != motor){
  2705   003FA4  500B               	movf	motor_move@motor^0,w,c
  2706   003FA6  100C               	iorwf	(motor_move@motor+1)^0,w,c
  2707   003FA8  B4D8               	btfsc	status,2,c
  2708   003FAA  EFD9  F01F         	goto	u4141
  2709   003FAE  EFDB  F01F         	goto	u4140
  2710   003FB2                     u4141:
  2711   003FB2  EFEE  F01F         	goto	l11
  2712   003FB6                     u4140:
  2713   003FB6  C00B  F001         	movff	motor_move@motor,gpio_pin_write_logic@_pin_config
  2714   003FBA  C00C  F002         	movff	motor_move@motor+1,gpio_pin_write_logic@_pin_config+1
  2715   003FBE  0E01               	movlw	1
  2716   003FC0  6E03               	movwf	gpio_pin_write_logic@logic^0,c
  2717   003FC2  EC0D  F017         	call	_gpio_pin_write_logic	;wreg free
  2718   003FC6                     
  2719                           ;ECU_Layer/DC_Motor/ecu_dc_motor.c: 25:         ret = gpio_pin_write_logic(&motor->motor
      +                          _pin[0x01], GPIO_LOW);
  2720   003FC6  0E01               	movlw	1
  2721   003FC8  240B               	addwf	motor_move@motor^0,w,c
  2722   003FCA  6E01               	movwf	gpio_pin_write_logic@_pin_config^0,c
  2723   003FCC  0E00               	movlw	0
  2724   003FCE  200C               	addwfc	(motor_move@motor+1)^0,w,c
  2725   003FD0  6E02               	movwf	(gpio_pin_write_logic@_pin_config+1)^0,c
  2726   003FD2  0E00               	movlw	0
  2727   003FD4  6E03               	movwf	gpio_pin_write_logic@logic^0,c
  2728   003FD6  EC0D  F017         	call	_gpio_pin_write_logic	;wreg free
  2729   003FDA  6E0D               	movwf	motor_move@ret^0,c
  2730   003FDC                     l11:
  2731                           
  2732                           ;ECU_Layer/DC_Motor/ecu_dc_motor.c: 27:     return ret;
  2733   003FDC  500D               	movf	motor_move@ret^0,w,c
  2734   003FDE  0012               	return		;funcret
  2735   003FE0                     __end_of_motor_move:
  2736                           	callstack 0
  2737                           
  2738 ;; *************** function _lcd_convert_byte_to_string *****************
  2739 ;; Defined at:
  2740 ;;		line 122 in file "ECU_Layer/LCD/ecu_lcd.c"
  2741 ;; Parameters:    Size  Location     Type
  2742 ;;  value           1    wreg     unsigned char 
  2743 ;;  str             2  107[COMRAM] PTR unsigned char 
  2744 ;;		 -> lm35_value_text(4), 
  2745 ;; Auto vars:     Size  Location     Type
  2746 ;;  value           1  109[COMRAM] unsigned char 
  2747 ;;  index           1  111[COMRAM] unsigned char 
  2748 ;;  ret             1  110[COMRAM] unsigned char 
  2749 ;; Return value:  Size  Location     Type
  2750 ;;                  1    wreg      unsigned char 
  2751 ;; Registers used:
  2752 ;;		wreg, fsr1l, fsr1h, fsr2l, fsr2h, status,2, status,0, tblptrl, tblptrh, tblptru, cstack
  2753 ;; Tracked objects:
  2754 ;;		On entry : 0/0
  2755 ;;		On exit  : 0/0
  2756 ;;		Unchanged: 0/0
  2757 ;; Data sizes:     COMRAM   BANK0   BANK1   BANK2   BANK3   BANK4   BANK5   BANK6   BANK7   BANK8   BANK9  BANK10  BANK1
      +1  BANK12  BANK13  BANK14  BANK15
  2758 ;;      Params:         2       0       0       0       0       0       0       0       0       0       0       0       
      +0       0       0       0       0
  2759 ;;      Locals:         3       0       0       0       0       0       0       0       0       0       0       0       
      +0       0       0       0       0
  2760 ;;      Temps:          0       0       0       0       0       0       0       0       0       0       0       0       
      +0       0       0       0       0
  2761 ;;      Totals:         5       0       0       0       0       0       0       0       0       0       0       0       
      +0       0       0       0       0
  2762 ;;Total ram usage:        5 bytes
  2763 ;; Hardware stack levels used: 1
  2764 ;; Hardware stack levels required when called: 8
  2765 ;; This function calls:
  2766 ;;		_memset
  2767 ;;		_sprintf
  2768 ;; This function is called by:
  2769 ;;		_main
  2770 ;; This function uses a non-reentrant model
  2771 ;;
  2772                           
  2773                           	psect	text7
  2774   003878                     __ptext7:
  2775                           	callstack 0
  2776   003878                     _lcd_convert_byte_to_string:
  2777                           	callstack 22
  2778                           
  2779                           ;incstack = 0
  2780                           ;lcd_convert_byte_to_string@value stored from wreg
  2781   003878  6E6E               	movwf	lcd_convert_byte_to_string@value^0,c
  2782   00387A                     
  2783                           ;ECU_Layer/LCD/ecu_lcd.c: 123:     Std_ReturnType ret = (Std_ReturnType)0x00;
  2784   00387A  0E00               	movlw	0
  2785   00387C  6E6F               	movwf	lcd_convert_byte_to_string@ret^0,c
  2786   00387E                     
  2787                           ;ECU_Layer/LCD/ecu_lcd.c: 124:     if(((void*)0) != str){
  2788   00387E  506C               	movf	lcd_convert_byte_to_string@str^0,w,c
  2789   003880  106D               	iorwf	(lcd_convert_byte_to_string@str+1)^0,w,c
  2790   003882  B4D8               	btfsc	status,2,c
  2791   003884  EF46  F01C         	goto	u4301
  2792   003888  EF48  F01C         	goto	u4300
  2793   00388C                     u4301:
  2794   00388C  EF88  F01C         	goto	l4063
  2795   003890                     u4300:
  2796   003890                     
  2797                           ;ECU_Layer/LCD/ecu_lcd.c: 125:         ret = (Std_ReturnType)0x01;
  2798   003890  0E01               	movlw	1
  2799   003892  6E6F               	movwf	lcd_convert_byte_to_string@ret^0,c
  2800   003894                     
  2801                           ;ECU_Layer/LCD/ecu_lcd.c: 126:         memset(str, '\0', 4);
  2802   003894  C06C  F001         	movff	lcd_convert_byte_to_string@str,memset@dest
  2803   003898  C06D  F002         	movff	lcd_convert_byte_to_string@str+1,memset@dest+1
  2804   00389C  0E00               	movlw	0
  2805   00389E  6E04               	movwf	(memset@c+1)^0,c
  2806   0038A0  0E00               	movlw	0
  2807   0038A2  6E03               	movwf	memset@c^0,c
  2808   0038A4  0E00               	movlw	0
  2809   0038A6  6E06               	movwf	(memset@n+1)^0,c
  2810   0038A8  0E04               	movlw	4
  2811   0038AA  6E05               	movwf	memset@n^0,c
  2812   0038AC  EC58  F014         	call	_memset	;wreg free
  2813   0038B0                     
  2814                           ;ECU_Layer/LCD/ecu_lcd.c: 127:         sprintf(str, "%i", value);
  2815   0038B0  C06C  F059         	movff	lcd_convert_byte_to_string@str,sprintf@s
  2816   0038B4  C06D  F05A         	movff	lcd_convert_byte_to_string@str+1,sprintf@s+1
  2817   0038B8  0E25               	movlw	low STR_5
  2818   0038BA  6E5B               	movwf	sprintf@fmt^0,c
  2819   0038BC  0E10               	movlw	high STR_5
  2820   0038BE  6E5C               	movwf	(sprintf@fmt+1)^0,c
  2821   0038C0  C06E  F05D         	movff	lcd_convert_byte_to_string@value,?_sprintf+4
  2822   0038C4  6A5E               	clrf	(?_sprintf+5)^0,c
  2823   0038C6  ECF6  F01E         	call	_sprintf	;wreg free
  2824   0038CA                     
  2825                           ;ECU_Layer/LCD/ecu_lcd.c: 131:         uint8 index = 0;
  2826   0038CA  0E00               	movlw	0
  2827   0038CC  6E70               	movwf	lcd_convert_byte_to_string@index^0,c
  2828                           
  2829                           ;ECU_Layer/LCD/ecu_lcd.c: 132:         while(++index < 3){
  2830   0038CE  EF7F  F01C         	goto	l4061
  2831   0038D2                     l4057:
  2832                           
  2833                           ;ECU_Layer/LCD/ecu_lcd.c: 133:             if('\0' == str[index]){ str[index] = ' '; }
  2834   0038D2  5070               	movf	lcd_convert_byte_to_string@index^0,w,c
  2835   0038D4  246C               	addwf	lcd_convert_byte_to_string@str^0,w,c
  2836   0038D6  6ED9               	movwf	fsr2l,c
  2837   0038D8  0E00               	movlw	0
  2838   0038DA  206D               	addwfc	(lcd_convert_byte_to_string@str+1)^0,w,c
  2839   0038DC  6EDA               	movwf	fsr2h,c
  2840   0038DE  50DF               	movf	indf2,w,c
  2841   0038E0  A4D8               	btfss	status,2,c
  2842   0038E2  EF75  F01C         	goto	u4311
  2843   0038E6  EF77  F01C         	goto	u4310
  2844   0038EA                     u4311:
  2845   0038EA  EF7F  F01C         	goto	l4061
  2846   0038EE                     u4310:
  2847   0038EE  5070               	movf	lcd_convert_byte_to_string@index^0,w,c
  2848   0038F0  246C               	addwf	lcd_convert_byte_to_string@str^0,w,c
  2849   0038F2  6ED9               	movwf	fsr2l,c
  2850   0038F4  0E00               	movlw	0
  2851   0038F6  206D               	addwfc	(lcd_convert_byte_to_string@str+1)^0,w,c
  2852   0038F8  6EDA               	movwf	fsr2h,c
  2853   0038FA  0E20               	movlw	32
  2854   0038FC  6EDF               	movwf	indf2,c
  2855   0038FE                     l4061:
  2856                           
  2857                           ;ECU_Layer/LCD/ecu_lcd.c: 132:         while(++index < 3){
  2858   0038FE  2A70               	incf	lcd_convert_byte_to_string@index^0,f,c
  2859   003900  0E02               	movlw	2
  2860   003902  6470               	cpfsgt	lcd_convert_byte_to_string@index^0,c
  2861   003904  EF86  F01C         	goto	u4321
  2862   003908  EF88  F01C         	goto	u4320
  2863   00390C                     u4321:
  2864   00390C  EF69  F01C         	goto	l4057
  2865   003910                     u4320:
  2866   003910                     l4063:
  2867                           
  2868                           ;ECU_Layer/LCD/ecu_lcd.c: 136:     return ret;
  2869   003910  506F               	movf	lcd_convert_byte_to_string@ret^0,w,c
  2870   003912  0012               	return		;funcret
  2871   003914                     __end_of_lcd_convert_byte_to_string:
  2872                           	callstack 0
  2873                           
  2874 ;; *************** function _sprintf *****************
  2875 ;; Defined at:
  2876 ;;		line 9 in file "C:\Program Files\Microchip\xc8\v2.40\pic\sources\c99\common\nf_sprintf.c"
  2877 ;; Parameters:    Size  Location     Type
  2878 ;;  s               2   88[COMRAM] PTR unsigned char 
  2879 ;;		 -> lm35_value_text(4), 
  2880 ;;  fmt             2   90[COMRAM] PTR const unsigned char 
  2881 ;;		 -> STR_5(3), 
  2882 ;; Auto vars:     Size  Location     Type
  2883 ;;  f              11   96[COMRAM] struct _IO_FILE
  2884 ;;  ap              2   94[COMRAM] PTR void [1]
  2885 ;;		 -> ?_sprintf(2), 
  2886 ;;  ret             2    0        int 
  2887 ;; Return value:  Size  Location     Type
  2888 ;;                  2   88[COMRAM] int 
  2889 ;; Registers used:
  2890 ;;		wreg, fsr1l, fsr1h, fsr2l, fsr2h, status,2, status,0, tblptrl, tblptrh, tblptru, cstack
  2891 ;; Tracked objects:
  2892 ;;		On entry : 0/0
  2893 ;;		On exit  : 0/0
  2894 ;;		Unchanged: 0/0
  2895 ;; Data sizes:     COMRAM   BANK0   BANK1   BANK2   BANK3   BANK4   BANK5   BANK6   BANK7   BANK8   BANK9  BANK10  BANK1
      +1  BANK12  BANK13  BANK14  BANK15
  2896 ;;      Params:         6       0       0       0       0       0       0       0       0       0       0       0       
      +0       0       0       0       0
  2897 ;;      Locals:        13       0       0       0       0       0       0       0       0       0       0       0       
      +0       0       0       0       0
  2898 ;;      Temps:          0       0       0       0       0       0       0       0       0       0       0       0       
      +0       0       0       0       0
  2899 ;;      Totals:        19       0       0       0       0       0       0       0       0       0       0       0       
      +0       0       0       0       0
  2900 ;;Total ram usage:       19 bytes
  2901 ;; Hardware stack levels used: 1
  2902 ;; Hardware stack levels required when called: 7
  2903 ;; This function calls:
  2904 ;;		_vfprintf
  2905 ;; This function is called by:
  2906 ;;		_lcd_convert_byte_to_string
  2907 ;; This function uses a non-reentrant model
  2908 ;;
  2909                           
  2910                           	psect	text8
  2911   003DEC                     __ptext8:
  2912                           	callstack 0
  2913   003DEC                     _sprintf:
  2914                           	callstack 22
  2915   003DEC  0E5D               	movlw	low (?_sprintf+4)
  2916   003DEE  6E5F               	movwf	sprintf@ap^0,c
  2917   003DF0  0E00               	movlw	high (?_sprintf+4)
  2918   003DF2  6E60               	movwf	(sprintf@ap+1)^0,c
  2919   003DF4  C059  F061         	movff	sprintf@s,sprintf@f
  2920   003DF8  C05A  F062         	movff	sprintf@s+1,sprintf@f+1
  2921   003DFC  0E00               	movlw	0
  2922   003DFE  6E65               	movwf	(sprintf@f+4)^0,c
  2923   003E00  0E00               	movlw	0
  2924   003E02  6E64               	movwf	(sprintf@f+3)^0,c
  2925   003E04  0E00               	movlw	0
  2926   003E06  6E6B               	movwf	(sprintf@f+10)^0,c
  2927   003E08  0E00               	movlw	0
  2928   003E0A  6E6A               	movwf	(sprintf@f+9)^0,c
  2929   003E0C  0E61               	movlw	low sprintf@f
  2930   003E0E  6E51               	movwf	vfprintf@fp^0,c
  2931   003E10  0E00               	movlw	high sprintf@f
  2932   003E12  6E52               	movwf	(vfprintf@fp+1)^0,c
  2933   003E14  C05B  F053         	movff	sprintf@fmt,vfprintf@fmt
  2934   003E18  C05C  F054         	movff	sprintf@fmt+1,vfprintf@fmt+1
  2935   003E1C  0E5F               	movlw	low sprintf@ap
  2936   003E1E  6E55               	movwf	vfprintf@ap^0,c
  2937   003E20  0E00               	movlw	high sprintf@ap
  2938   003E22  6E56               	movwf	(vfprintf@ap+1)^0,c
  2939   003E24  EC1D  F01F         	call	_vfprintf	;wreg free
  2940   003E28  5064               	movf	(sprintf@f+3)^0,w,c
  2941   003E2A  2459               	addwf	sprintf@s^0,w,c
  2942   003E2C  6ED9               	movwf	fsr2l,c
  2943   003E2E  5065               	movf	(sprintf@f+4)^0,w,c
  2944   003E30  205A               	addwfc	(sprintf@s+1)^0,w,c
  2945   003E32  6EDA               	movwf	fsr2h,c
  2946   003E34  0E00               	movlw	0
  2947   003E36  6EDF               	movwf	indf2,c
  2948   003E38  0012               	return		;funcret
  2949   003E3A                     __end_of_sprintf:
  2950                           	callstack 0
  2951                           
  2952 ;; *************** function _vfprintf *****************
  2953 ;; Defined at:
  2954 ;;		line 1520 in file "C:\Program Files\Microchip\xc8\v2.40\pic\sources\c99\common\doprnt.c"
  2955 ;; Parameters:    Size  Location     Type
  2956 ;;  fp              2   80[COMRAM] PTR struct _IO_FILE
  2957 ;;		 -> sprintf@f(11), 
  2958 ;;  fmt             2   82[COMRAM] PTR const unsigned char 
  2959 ;;		 -> STR_5(3), 
  2960 ;;  ap              2   84[COMRAM] PTR PTR void 
  2961 ;;		 -> sprintf@ap(2), 
  2962 ;; Auto vars:     Size  Location     Type
  2963 ;;  cfmt            2   86[COMRAM] PTR unsigned char 
  2964 ;;		 -> STR_5(3), 
  2965 ;; Return value:  Size  Location     Type
  2966 ;;                  2   80[COMRAM] int 
  2967 ;; Registers used:
  2968 ;;		wreg, fsr1l, fsr1h, fsr2l, fsr2h, status,2, status,0, tblptrl, tblptrh, tblptru, cstack
  2969 ;; Tracked objects:
  2970 ;;		On entry : 0/0
  2971 ;;		On exit  : 0/0
  2972 ;;		Unchanged: 0/0
  2973 ;; Data sizes:     COMRAM   BANK0   BANK1   BANK2   BANK3   BANK4   BANK5   BANK6   BANK7   BANK8   BANK9  BANK10  BANK1
      +1  BANK12  BANK13  BANK14  BANK15
  2974 ;;      Params:         6       0       0       0       0       0       0       0       0       0       0       0       
      +0       0       0       0       0
  2975 ;;      Locals:         2       0       0       0       0       0       0       0       0       0       0       0       
      +0       0       0       0       0
  2976 ;;      Temps:          0       0       0       0       0       0       0       0       0       0       0       0       
      +0       0       0       0       0
  2977 ;;      Totals:         8       0       0       0       0       0       0       0       0       0       0       0       
      +0       0       0       0       0
  2978 ;;Total ram usage:        8 bytes
  2979 ;; Hardware stack levels used: 1
  2980 ;; Hardware stack levels required when called: 6
  2981 ;; This function calls:
  2982 ;;		_vfpfcnvrt
  2983 ;; This function is called by:
  2984 ;;		_sprintf
  2985 ;; This function uses a non-reentrant model
  2986 ;;
  2987                           
  2988                           	psect	text9
  2989   003E3A                     __ptext9:
  2990                           	callstack 0
  2991   003E3A                     _vfprintf:
  2992                           	callstack 22
  2993   003E3A                     
  2994                           ;C:\Program Files\Microchip\xc8\v2.40\pic\sources\c99\common\doprnt.c: 1520: int vfprint
      +                          f(FILE *fp, const char *fmt, va_list ap);C:\Program Files\Microchip\xc8\v2.40\pic\source
      +                          s\c99\common\doprnt.c: 1521: {;C:\Program Files\Microchip\xc8\v2.40\pic\sources\c99\comm
      +                          on\doprnt.c: 1523:     char *cfmt;;C:\Program Files\Microchip\xc8\v2.40\pic\sources\c99\
      +                          common\doprnt.c: 1525:     cfmt = (char *)fmt;
  2995   003E3A  C053  F057         	movff	vfprintf@fmt,vfprintf@cfmt
  2996   003E3E  C054  F058         	movff	vfprintf@fmt+1,vfprintf@cfmt+1
  2997                           
  2998                           ;C:\Program Files\Microchip\xc8\v2.40\pic\sources\c99\common\doprnt.c: 1529:     while (
      +                          *cfmt) {
  2999   003E42  EF31  F01F         	goto	l3371
  3000   003E46                     l3369:
  3001                           
  3002                           ;C:\Program Files\Microchip\xc8\v2.40\pic\sources\c99\common\doprnt.c: 1533:    vfpfcnvr
      +                          t(fp, &cfmt, ap);
  3003   003E46  C051  F03F         	movff	vfprintf@fp,vfpfcnvrt@fp
  3004   003E4A  C052  F040         	movff	vfprintf@fp+1,vfpfcnvrt@fp+1
  3005   003E4E  0E57               	movlw	low vfprintf@cfmt
  3006   003E50  6E41               	movwf	vfpfcnvrt@fmt^0,c
  3007   003E52  0E00               	movlw	high vfprintf@cfmt
  3008   003E54  6E42               	movwf	(vfpfcnvrt@fmt+1)^0,c
  3009   003E56  C055  F043         	movff	vfprintf@ap,vfpfcnvrt@ap
  3010   003E5A  C056  F044         	movff	vfprintf@ap+1,vfpfcnvrt@ap+1
  3011   003E5E  ECC5  F015         	call	_vfpfcnvrt	;wreg free
  3012   003E62                     l3371:
  3013                           
  3014                           ;C:\Program Files\Microchip\xc8\v2.40\pic\sources\c99\common\doprnt.c: 1529:     while (
      +                          *cfmt) {
  3015   003E62  C057  FFF6         	movff	vfprintf@cfmt,tblptrl
  3016   003E66  C058  FFF7         	movff	vfprintf@cfmt+1,tblptrh
  3017   003E6A                     	if	0	;tblptru may be non-zero
  3018   003E6A                     	endif
  3019   003E6A                     	if	0	;tblptru may be non-zero
  3020   003E6A                     	endif
  3021   003E6A  0008               	tblrd		*
  3022   003E6C  50F5               	movf	tablat,w,c
  3023   003E6E  0900               	iorlw	0
  3024   003E70  A4D8               	btfss	status,2,c
  3025   003E72  EF3D  F01F         	goto	u3281
  3026   003E76  EF3F  F01F         	goto	u3280
  3027   003E7A                     u3281:
  3028   003E7A  EF23  F01F         	goto	l3369
  3029   003E7E                     u3280:
  3030   003E7E                     
  3031                           ;C:\Program Files\Microchip\xc8\v2.40\pic\sources\c99\common\doprnt.c: 1538:  return 0;
  3032   003E7E  0E00               	movlw	0
  3033   003E80  6E52               	movwf	(?_vfprintf+1)^0,c
  3034   003E82  0E00               	movlw	0
  3035   003E84  6E51               	movwf	?_vfprintf^0,c
  3036   003E86  0012               	return		;funcret
  3037   003E88                     __end_of_vfprintf:
  3038                           	callstack 0
  3039                           
  3040 ;; *************** function _vfpfcnvrt *****************
  3041 ;; Defined at:
  3042 ;;		line 1007 in file "C:\Program Files\Microchip\xc8\v2.40\pic\sources\c99\common\doprnt.c"
  3043 ;; Parameters:    Size  Location     Type
  3044 ;;  fp              2   62[COMRAM] PTR struct _IO_FILE
  3045 ;;		 -> sprintf@f(11), 
  3046 ;;  fmt             2   64[COMRAM] PTR PTR unsigned char 
  3047 ;;		 -> vfprintf@cfmt(2), 
  3048 ;;  ap              2   66[COMRAM] PTR PTR void 
  3049 ;;		 -> sprintf@ap(2), 
  3050 ;; Auto vars:     Size  Location     Type
  3051 ;;  convarg         8   70[COMRAM] struct .
  3052 ;;  cp              2   78[COMRAM] PTR unsigned char 
  3053 ;;		 -> STR_5(3), 
  3054 ;;  i               2    0        int 
  3055 ;;  done            2    0        int 
  3056 ;;  c               1    0        unsigned char 
  3057 ;; Return value:  Size  Location     Type
  3058 ;;                  1    wreg      void 
  3059 ;; Registers used:
  3060 ;;		wreg, fsr1l, fsr1h, fsr2l, fsr2h, status,2, status,0, tblptrl, tblptrh, tblptru, cstack
  3061 ;; Tracked objects:
  3062 ;;		On entry : 0/0
  3063 ;;		On exit  : 0/0
  3064 ;;		Unchanged: 0/0
  3065 ;; Data sizes:     COMRAM   BANK0   BANK1   BANK2   BANK3   BANK4   BANK5   BANK6   BANK7   BANK8   BANK9  BANK10  BANK1
      +1  BANK12  BANK13  BANK14  BANK15
  3066 ;;      Params:         6       0       0       0       0       0       0       0       0       0       0       0       
      +0       0       0       0       0
  3067 ;;      Locals:        10       0       0       0       0       0       0       0       0       0       0       0       
      +0       0       0       0       0
  3068 ;;      Temps:          2       0       0       0       0       0       0       0       0       0       0       0       
      +0       0       0       0       0
  3069 ;;      Totals:        18       0       0       0       0       0       0       0       0       0       0       0       
      +0       0       0       0       0
  3070 ;;Total ram usage:       18 bytes
  3071 ;; Hardware stack levels used: 1
  3072 ;; Hardware stack levels required when called: 5
  3073 ;; This function calls:
  3074 ;;		_dtoa
  3075 ;;		_fputc
  3076 ;; This function is called by:
  3077 ;;		_vfprintf
  3078 ;; This function uses a non-reentrant model
  3079 ;;
  3080                           
  3081                           	psect	text10
  3082   002B8A                     __ptext10:
  3083                           	callstack 0
  3084   002B8A                     _vfpfcnvrt:
  3085                           	callstack 22
  3086   002B8A                     
  3087                           ;C:\Program Files\Microchip\xc8\v2.40\pic\sources\c99\common\doprnt.c: 1007: vfpfcnvrt(F
      +                          ILE *fp, char *fmt[], va_list ap);C:\Program Files\Microchip\xc8\v2.40\pic\sources\c99\c
      +                          ommon\doprnt.c: 1008: {;C:\Program Files\Microchip\xc8\v2.40\pic\sources\c99\common\dopr
      +                          nt.c: 1009:     char c, *cp;;C:\Program Files\Microchip\xc8\v2.40\pic\sources\c99\common
      +                          \doprnt.c: 1010:     int done, i;;C:\Program Files\Microchip\xc8\v2.40\pic\sources\c99\c
      +                          ommon\doprnt.c: 1016:  } convarg;;C:\Program Files\Microchip\xc8\v2.40\pic\sources\c99\c
      +                          ommon\doprnt.c: 1019:     if ((*fmt)[0] == '%') {
  3088   002B8A  C041  FFD9         	movff	vfpfcnvrt@fmt,fsr2l
  3089   002B8E  C042  FFDA         	movff	vfpfcnvrt@fmt+1,fsr2h
  3090   002B92  CFDE FFF6          	movff	postinc2,tblptrl
  3091   002B96  CFDD FFF7          	movff	postdec2,tblptrh
  3092   002B9A                     	if	0	;tblptru may be non-zero
  3093   002B9A                     	endif
  3094   002B9A                     	if	0	;tblptru may be non-zero
  3095   002B9A                     	endif
  3096   002B9A  0008               	tblrd		*
  3097   002B9C  50F5               	movf	tablat,w,c
  3098   002B9E  0A25               	xorlw	37
  3099   002BA0  A4D8               	btfss	status,2,c
  3100   002BA2  EFD5  F015         	goto	u2741
  3101   002BA6  EFD7  F015         	goto	u2740
  3102   002BAA                     u2741:
  3103   002BAA  EF56  F016         	goto	l3013
  3104   002BAE                     u2740:
  3105   002BAE                     
  3106                           ;C:\Program Files\Microchip\xc8\v2.40\pic\sources\c99\common\doprnt.c: 1020:         ++*
      +                          fmt;
  3107   002BAE  C041  FFD9         	movff	vfpfcnvrt@fmt,fsr2l
  3108   002BB2  C042  FFDA         	movff	vfpfcnvrt@fmt+1,fsr2h
  3109   002BB6  2ADE               	incf	postinc2,f,c
  3110   002BB8  0E00               	movlw	0
  3111   002BBA  22DD               	addwfc	postdec2,f,c
  3112   002BBC                     
  3113                           ;C:\Program Files\Microchip\xc8\v2.40\pic\sources\c99\common\doprnt.c: 1022:         fla
      +                          gs = width = 0;
  3114   002BBC  0E00               	movlw	0
  3115   002BBE  6E72               	movwf	(_width+1)^0,c
  3116   002BC0  0E00               	movlw	0
  3117   002BC2  6E71               	movwf	_width^0,c
  3118   002BC4  C071  F075         	movff	_width,_flags
  3119   002BC8                     
  3120                           ;C:\Program Files\Microchip\xc8\v2.40\pic\sources\c99\common\doprnt.c: 1023:         pre
      +                          c = -1;
  3121   002BC8  6873               	setf	_prec^0,c
  3122   002BCA  6874               	setf	(_prec+1)^0,c
  3123   002BCC                     
  3124                           ;C:\Program Files\Microchip\xc8\v2.40\pic\sources\c99\common\doprnt.c: 1117:   cp = *fmt
      +                          ;
  3125   002BCC  C041  FFD9         	movff	vfpfcnvrt@fmt,fsr2l
  3126   002BD0  C042  FFDA         	movff	vfpfcnvrt@fmt+1,fsr2h
  3127   002BD4  CFDE F04F          	movff	postinc2,vfpfcnvrt@cp
  3128   002BD8  CFDD F050          	movff	postdec2,vfpfcnvrt@cp+1
  3129   002BDC                     
  3130                           ;C:\Program Files\Microchip\xc8\v2.40\pic\sources\c99\common\doprnt.c: 1187:   if (*cp =
      +                          = 'd' || *cp == 'i') {
  3131   002BDC  C04F  FFF6         	movff	vfpfcnvrt@cp,tblptrl
  3132   002BE0  C050  FFF7         	movff	vfpfcnvrt@cp+1,tblptrh
  3133   002BE4                     	if	0	;tblptru may be non-zero
  3134   002BE4                     	endif
  3135   002BE4                     	if	0	;tblptru may be non-zero
  3136   002BE4                     	endif
  3137   002BE4  0008               	tblrd		*
  3138   002BE6  50F5               	movf	tablat,w,c
  3139   002BE8  0A64               	xorlw	100
  3140   002BEA  B4D8               	btfsc	status,2,c
  3141   002BEC  EFFA  F015         	goto	u2751
  3142   002BF0  EFFC  F015         	goto	u2750
  3143   002BF4                     u2751:
  3144   002BF4  EF0A  F016         	goto	l3003
  3145   002BF8                     u2750:
  3146   002BF8  C04F  FFF6         	movff	vfpfcnvrt@cp,tblptrl
  3147   002BFC  C050  FFF7         	movff	vfpfcnvrt@cp+1,tblptrh
  3148   002C00                     	if	0	;tblptru may be non-zero
  3149   002C00                     	endif
  3150   002C00                     	if	0	;tblptru may be non-zero
  3151   002C00                     	endif
  3152   002C00  0008               	tblrd		*
  3153   002C02  50F5               	movf	tablat,w,c
  3154   002C04  0A69               	xorlw	105
  3155   002C06  A4D8               	btfss	status,2,c
  3156   002C08  EF08  F016         	goto	u2761
  3157   002C0C  EF0A  F016         	goto	u2760
  3158   002C10                     u2761:
  3159   002C10  EF4D  F016         	goto	l3009
  3160   002C14                     u2760:
  3161   002C14                     l3003:
  3162                           
  3163                           ;C:\Program Files\Microchip\xc8\v2.40\pic\sources\c99\common\doprnt.c: 1230:    convarg.
      +                          ll = (long long)(int)(*(int *)__va_arg(*(int **)ap, (int)0));
  3164   002C14  C043  FFD9         	movff	vfpfcnvrt@ap,fsr2l
  3165   002C18  C044  FFDA         	movff	vfpfcnvrt@ap+1,fsr2h
  3166   002C1C  CFDF F045          	movff	indf2,??_vfpfcnvrt
  3167   002C20  0E02               	movlw	2
  3168   002C22  26DE               	addwf	postinc2,f,c
  3169   002C24  CFDF F046          	movff	indf2,??_vfpfcnvrt+1
  3170   002C28  0E00               	movlw	0
  3171   002C2A  22DD               	addwfc	postdec2,f,c
  3172   002C2C  C045  FFD9         	movff	??_vfpfcnvrt,fsr2l
  3173   002C30  C046  FFDA         	movff	??_vfpfcnvrt+1,fsr2h
  3174   002C34  CFDE F047          	movff	postinc2,vfpfcnvrt@convarg
  3175   002C38  CFDD F048          	movff	postdec2,vfpfcnvrt@convarg+1
  3176   002C3C  0E00               	movlw	0
  3177   002C3E  BE48               	btfsc	(vfpfcnvrt@convarg+1)^0,7,c
  3178   002C40  0EFF               	movlw	-1
  3179   002C42  6E49               	movwf	(vfpfcnvrt@convarg+2)^0,c
  3180   002C44  6E4A               	movwf	(vfpfcnvrt@convarg+3)^0,c
  3181   002C46  6E4B               	movwf	(vfpfcnvrt@convarg+4)^0,c
  3182   002C48  6E4C               	movwf	(vfpfcnvrt@convarg+5)^0,c
  3183   002C4A  6E4D               	movwf	(vfpfcnvrt@convarg+6)^0,c
  3184   002C4C  6E4E               	movwf	(vfpfcnvrt@convarg+7)^0,c
  3185                           
  3186                           ;C:\Program Files\Microchip\xc8\v2.40\pic\sources\c99\common\doprnt.c: 1232:    *fmt = c
      +                          p+1;
  3187   002C4E  0E01               	movlw	1
  3188   002C50  244F               	addwf	vfpfcnvrt@cp^0,w,c
  3189   002C52  6E45               	movwf	??_vfpfcnvrt^0,c
  3190   002C54  0E00               	movlw	0
  3191   002C56  2050               	addwfc	(vfpfcnvrt@cp+1)^0,w,c
  3192   002C58  6E46               	movwf	(??_vfpfcnvrt+1)^0,c
  3193   002C5A  C041  FFD9         	movff	vfpfcnvrt@fmt,fsr2l
  3194   002C5E  C042  FFDA         	movff	vfpfcnvrt@fmt+1,fsr2h
  3195   002C62  C045  FFDE         	movff	??_vfpfcnvrt,postinc2
  3196   002C66  C046  FFDD         	movff	??_vfpfcnvrt+1,postdec2
  3197   002C6A                     
  3198                           ;C:\Program Files\Microchip\xc8\v2.40\pic\sources\c99\common\doprnt.c: 1233:    return (
      +                          void) dtoa(fp, convarg.ll);;	Return value of _vfpfcnvrt is never used
  3199   002C6A  C03F  F01C         	movff	vfpfcnvrt@fp,dtoa@fp
  3200   002C6E  C040  F01D         	movff	vfpfcnvrt@fp+1,dtoa@fp+1
  3201   002C72  C047  F01E         	movff	vfpfcnvrt@convarg,dtoa@d
  3202   002C76  C048  F01F         	movff	vfpfcnvrt@convarg+1,dtoa@d+1
  3203   002C7A  C049  F020         	movff	vfpfcnvrt@convarg+2,dtoa@d+2
  3204   002C7E  C04A  F021         	movff	vfpfcnvrt@convarg+3,dtoa@d+3
  3205   002C82  C04B  F022         	movff	vfpfcnvrt@convarg+4,dtoa@d+4
  3206   002C86  C04C  F023         	movff	vfpfcnvrt@convarg+5,dtoa@d+5
  3207   002C8A  C04D  F024         	movff	vfpfcnvrt@convarg+6,dtoa@d+6
  3208   002C8E  C04E  F025         	movff	vfpfcnvrt@convarg+7,dtoa@d+7
  3209   002C92  EC7C  F011         	call	_dtoa	;wreg free
  3210   002C96  EF6A  F016         	goto	l1080
  3211   002C9A                     l3009:
  3212                           
  3213                           ;C:\Program Files\Microchip\xc8\v2.40\pic\sources\c99\common\doprnt.c: 1509:         ++*
      +                          fmt;
  3214   002C9A  C041  FFD9         	movff	vfpfcnvrt@fmt,fsr2l
  3215   002C9E  C042  FFDA         	movff	vfpfcnvrt@fmt+1,fsr2h
  3216   002CA2  2ADE               	incf	postinc2,f,c
  3217   002CA4  0E00               	movlw	0
  3218   002CA6  22DD               	addwfc	postdec2,f,c
  3219   002CA8  EF6A  F016         	goto	l1080
  3220   002CAC                     l3013:
  3221                           
  3222                           ;C:\Program Files\Microchip\xc8\v2.40\pic\sources\c99\common\doprnt.c: 1514:     fputc((
      +                          int)(*fmt)[0], fp);
  3223   002CAC  C041  FFD9         	movff	vfpfcnvrt@fmt,fsr2l
  3224   002CB0  C042  FFDA         	movff	vfpfcnvrt@fmt+1,fsr2h
  3225   002CB4  CFDE FFF6          	movff	postinc2,tblptrl
  3226   002CB8  CFDD FFF7          	movff	postdec2,tblptrh
  3227   002CBC                     	if	0	;tblptru may be non-zero
  3228   002CBC                     	endif
  3229   002CBC                     	if	0	;tblptru may be non-zero
  3230   002CBC                     	endif
  3231   002CBC  0008               	tblrd		*
  3232   002CBE  50F5               	movf	tablat,w,c
  3233   002CC0  6E01               	movwf	fputc@c^0,c
  3234   002CC2  6A02               	clrf	(fputc@c+1)^0,c
  3235   002CC4  C03F  F003         	movff	vfpfcnvrt@fp,fputc@fp
  3236   002CC8  C040  F004         	movff	vfpfcnvrt@fp+1,fputc@fp+1
  3237   002CCC  EC85  F01B         	call	_fputc	;wreg free
  3238   002CD0  EF4D  F016         	goto	l3009
  3239   002CD4                     l1080:
  3240   002CD4  0012               	return		;funcret
  3241   002CD6                     __end_of_vfpfcnvrt:
  3242                           	callstack 0
  3243                           
  3244 ;; *************** function _dtoa *****************
  3245 ;; Defined at:
  3246 ;;		line 443 in file "C:\Program Files\Microchip\xc8\v2.40\pic\sources\c99\common\doprnt.c"
  3247 ;; Parameters:    Size  Location     Type
  3248 ;;  fp              2   27[COMRAM] PTR struct _IO_FILE
  3249 ;;		 -> sprintf@f(11), 
  3250 ;;  d               8   29[COMRAM] long long 
  3251 ;; Auto vars:     Size  Location     Type
  3252 ;;  n               8   51[COMRAM] long long 
  3253 ;;  i               2   59[COMRAM] int 
  3254 ;;  w               2   49[COMRAM] int 
  3255 ;;  p               2   47[COMRAM] int 
  3256 ;;  s               1   61[COMRAM] unsigned char 
  3257 ;; Return value:  Size  Location     Type
  3258 ;;                  1    wreg      void 
  3259 ;; Registers used:
  3260 ;;		wreg, fsr1l, fsr1h, fsr2l, fsr2h, status,2, status,0, cstack
  3261 ;; Tracked objects:
  3262 ;;		On entry : 0/0
  3263 ;;		On exit  : 0/0
  3264 ;;		Unchanged: 0/0
  3265 ;; Data sizes:     COMRAM   BANK0   BANK1   BANK2   BANK3   BANK4   BANK5   BANK6   BANK7   BANK8   BANK9  BANK10  BANK1
      +1  BANK12  BANK13  BANK14  BANK15
  3266 ;;      Params:        10       0       0       0       0       0       0       0       0       0       0       0       
      +0       0       0       0       0
  3267 ;;      Locals:        17       0       0       0       0       0       0       0       0       0       0       0       
      +0       0       0       0       0
  3268 ;;      Temps:          8       0       0       0       0       0       0       0       0       0       0       0       
      +0       0       0       0       0
  3269 ;;      Totals:        35       0       0       0       0       0       0       0       0       0       0       0       
      +0       0       0       0       0
  3270 ;;Total ram usage:       35 bytes
  3271 ;; Hardware stack levels used: 1
  3272 ;; Hardware stack levels required when called: 4
  3273 ;; This function calls:
  3274 ;;		___aodiv
  3275 ;;		___aomod
  3276 ;;		_abs
  3277 ;;		_pad
  3278 ;; This function is called by:
  3279 ;;		_vfpfcnvrt
  3280 ;; This function uses a non-reentrant model
  3281 ;;
  3282                           
  3283                           	psect	text11
  3284   0022F8                     __ptext11:
  3285                           	callstack 0
  3286   0022F8                     _dtoa:
  3287                           	callstack 22
  3288   0022F8                     
  3289                           ;C:\Program Files\Microchip\xc8\v2.40\pic\sources\c99\common\doprnt.c: 443: static void 
      +                          dtoa(FILE *fp, long long d);C:\Program Files\Microchip\xc8\v2.40\pic\sources\c99\common\
      +                          doprnt.c: 444: {;C:\Program Files\Microchip\xc8\v2.40\pic\sources\c99\common\doprnt.c: 4
      +                          45:  char s;;C:\Program Files\Microchip\xc8\v2.40\pic\sources\c99\common\doprnt.c: 446: 
      +                              int i, p, w;;C:\Program Files\Microchip\xc8\v2.40\pic\sources\c99\common\doprnt.c: 4
      +                          47:     long long n;;C:\Program Files\Microchip\xc8\v2.40\pic\sources\c99\common\doprnt.
      +                          c: 450:     n = d;
  3290   0022F8  C01E  F034         	movff	dtoa@d,dtoa@n
  3291   0022FC  C01F  F035         	movff	dtoa@d+1,dtoa@n+1
  3292   002300  C020  F036         	movff	dtoa@d+2,dtoa@n+2
  3293   002304  C021  F037         	movff	dtoa@d+3,dtoa@n+3
  3294   002308  C022  F038         	movff	dtoa@d+4,dtoa@n+4
  3295   00230C  C023  F039         	movff	dtoa@d+5,dtoa@n+5
  3296   002310  C024  F03A         	movff	dtoa@d+6,dtoa@n+6
  3297   002314  C025  F03B         	movff	dtoa@d+7,dtoa@n+7
  3298   002318                     
  3299                           ;C:\Program Files\Microchip\xc8\v2.40\pic\sources\c99\common\doprnt.c: 451:     s = n < 
      +                          0 ? 1 : 0;
  3300   002318  BE3B               	btfsc	(dtoa@n+7)^0,7,c
  3301   00231A  EF91  F011         	goto	u2541
  3302   00231E  EF94  F011         	goto	u2540
  3303   002322                     u2541:
  3304   002322  0E01               	movlw	1
  3305   002324  EF95  F011         	goto	u2550
  3306   002328                     u2540:
  3307   002328  0E00               	movlw	0
  3308   00232A                     u2550:
  3309   00232A  6E3E               	movwf	dtoa@s^0,c
  3310   00232C                     
  3311                           ;C:\Program Files\Microchip\xc8\v2.40\pic\sources\c99\common\doprnt.c: 452:     if (s) {
  3312   00232C  503E               	movf	dtoa@s^0,w,c
  3313   00232E  B4D8               	btfsc	status,2,c
  3314   002330  EF9C  F011         	goto	u2561
  3315   002334  EF9E  F011         	goto	u2560
  3316   002338                     u2561:
  3317   002338  EFAE  F011         	goto	l2833
  3318   00233C                     u2560:
  3319   00233C                     
  3320                           ;C:\Program Files\Microchip\xc8\v2.40\pic\sources\c99\common\doprnt.c: 453:         n = 
      +                          -n;
  3321   00233C  1E3B               	comf	(dtoa@n+7)^0,f,c
  3322   00233E  1E3A               	comf	(dtoa@n+6)^0,f,c
  3323   002340  1E39               	comf	(dtoa@n+5)^0,f,c
  3324   002342  1E38               	comf	(dtoa@n+4)^0,f,c
  3325   002344  1E37               	comf	(dtoa@n+3)^0,f,c
  3326   002346  1E36               	comf	(dtoa@n+2)^0,f,c
  3327   002348  1E35               	comf	(dtoa@n+1)^0,f,c
  3328   00234A  6C34               	negf	dtoa@n^0,c
  3329   00234C  0E00               	movlw	0
  3330   00234E  2235               	addwfc	(dtoa@n+1)^0,f,c
  3331   002350  2236               	addwfc	(dtoa@n+2)^0,f,c
  3332   002352  2237               	addwfc	(dtoa@n+3)^0,f,c
  3333   002354  2238               	addwfc	(dtoa@n+4)^0,f,c
  3334   002356  2239               	addwfc	(dtoa@n+5)^0,f,c
  3335   002358  223A               	addwfc	(dtoa@n+6)^0,f,c
  3336   00235A  223B               	addwfc	(dtoa@n+7)^0,f,c
  3337   00235C                     l2833:
  3338                           
  3339                           ;C:\Program Files\Microchip\xc8\v2.40\pic\sources\c99\common\doprnt.c: 462:     p = (0 <
      +                           prec) ? prec : 1;
  3340   00235C  BE74               	btfsc	(_prec+1)^0,7,c
  3341   00235E  EFBB  F011         	goto	u2570
  3342   002362  5074               	movf	(_prec+1)^0,w,c
  3343   002364  E106               	bnz	u2571
  3344   002366  0473               	decf	_prec^0,w,c
  3345   002368  B0D8               	btfsc	status,0,c
  3346   00236A  EFB9  F011         	goto	u2571
  3347   00236E  EFBB  F011         	goto	u2570
  3348   002372                     u2571:
  3349   002372  EFC1  F011         	goto	l1059
  3350   002376                     u2570:
  3351   002376  0E00               	movlw	0
  3352   002378  6E31               	movwf	(dtoa@p+1)^0,c
  3353   00237A  0E01               	movlw	1
  3354   00237C  6E30               	movwf	dtoa@p^0,c
  3355   00237E  EFC5  F011         	goto	l1061
  3356   002382                     l1059:
  3357   002382  C073  F030         	movff	_prec,dtoa@p
  3358   002386  C074  F031         	movff	_prec+1,dtoa@p+1
  3359   00238A                     l1061:
  3360                           
  3361                           ;C:\Program Files\Microchip\xc8\v2.40\pic\sources\c99\common\doprnt.c: 463:     w = widt
      +                          h;
  3362   00238A  C071  F032         	movff	_width,dtoa@w
  3363   00238E  C072  F033         	movff	_width+1,dtoa@w+1
  3364   002392                     
  3365                           ;C:\Program Files\Microchip\xc8\v2.40\pic\sources\c99\common\doprnt.c: 464:     if (s
  3366   002392  503E               	movf	dtoa@s^0,w,c
  3367   002394  B4D8               	btfsc	status,2,c
  3368   002396  EFCF  F011         	goto	u2581
  3369   00239A  EFD1  F011         	goto	u2580
  3370   00239E                     u2581:
  3371   00239E  EFE8  F011         	goto	l1062
  3372   0023A2                     u2580:
  3373   0023A2                     
  3374                           ;C:\Program Files\Microchip\xc8\v2.40\pic\sources\c99\common\doprnt.c: 468:     ) {;C:\P
      +                          rogram Files\Microchip\xc8\v2.40\pic\sources\c99\common\doprnt.c: 469:         --w;
  3375   0023A2  0632               	decf	dtoa@w^0,f,c
  3376   0023A4  A0D8               	btfss	status,0,c
  3377   0023A6  0633               	decf	(dtoa@w+1)^0,f,c
  3378   0023A8                     
  3379                           ;C:\Program Files\Microchip\xc8\v2.40\pic\sources\c99\common\doprnt.c: 470:   s = s ? '-
      +                          ' : '+';
  3380   0023A8  503E               	movf	dtoa@s^0,w,c
  3381   0023AA  A4D8               	btfss	status,2,c
  3382   0023AC  EFDA  F011         	goto	u2591
  3383   0023B0  EFDC  F011         	goto	u2590
  3384   0023B4                     u2591:
  3385   0023B4  EFE2  F011         	goto	l2845
  3386   0023B8                     u2590:
  3387   0023B8  0E00               	movlw	0
  3388   0023BA  6E2F               	movwf	(_dtoa$1479+1)^0,c
  3389   0023BC  0E2B               	movlw	43
  3390   0023BE  6E2E               	movwf	_dtoa$1479^0,c
  3391   0023C0  EFE6  F011         	goto	l2847
  3392   0023C4                     l2845:
  3393   0023C4  0E00               	movlw	0
  3394   0023C6  6E2F               	movwf	(_dtoa$1479+1)^0,c
  3395   0023C8  0E2D               	movlw	45
  3396   0023CA  6E2E               	movwf	_dtoa$1479^0,c
  3397   0023CC                     l2847:
  3398   0023CC  C02E  F03E         	movff	_dtoa$1479,dtoa@s
  3399   0023D0                     l1062:
  3400                           
  3401                           ;C:\Program Files\Microchip\xc8\v2.40\pic\sources\c99\common\doprnt.c: 480:     i = size
      +                          of(dbuf) - 1;
  3402   0023D0  0E00               	movlw	0
  3403   0023D2  6E3D               	movwf	(dtoa@i+1)^0,c
  3404   0023D4  0E1F               	movlw	31
  3405   0023D6  6E3C               	movwf	dtoa@i^0,c
  3406   0023D8                     
  3407                           ;C:\Program Files\Microchip\xc8\v2.40\pic\sources\c99\common\doprnt.c: 481:     dbuf[i] 
      +                          = '\0';
  3408   0023D8  0E00               	movlw	0
  3409   0023DA  0100               	movlb	0	; () banked
  3410   0023DC  6FD5               	movwf	(_dbuf+31)& (0+255),b
  3411                           
  3412                           ;C:\Program Files\Microchip\xc8\v2.40\pic\sources\c99\common\doprnt.c: 482:     while (!
      +                          (i < 1) && (n || (0 < p)
  3413   0023DE  EF6D  F012         	goto	l2861
  3414   0023E2                     l2851:
  3415                           
  3416                           ;C:\Program Files\Microchip\xc8\v2.40\pic\sources\c99\common\doprnt.c: 486:     )) {;C:\
      +                          Program Files\Microchip\xc8\v2.40\pic\sources\c99\common\doprnt.c: 487:         --i;
  3417   0023E2  063C               	decf	dtoa@i^0,f,c
  3418   0023E4  A0D8               	btfss	status,0,c
  3419   0023E6  063D               	decf	(dtoa@i+1)^0,f,c
  3420   0023E8                     
  3421                           ;C:\Program Files\Microchip\xc8\v2.40\pic\sources\c99\common\doprnt.c: 488:         dbuf
      +                          [i] = (char)((int)'0' + abs(n % 10));
  3422   0023E8  0EB6               	movlw	low _dbuf
  3423   0023EA  243C               	addwf	dtoa@i^0,w,c
  3424   0023EC  6ED9               	movwf	fsr2l,c
  3425   0023EE  0E00               	movlw	high _dbuf
  3426   0023F0  203D               	addwfc	(dtoa@i+1)^0,w,c
  3427   0023F2  6EDA               	movwf	fsr2h,c
  3428   0023F4  C034  F001         	movff	dtoa@n,___aomod@dividend
  3429   0023F8  C035  F002         	movff	dtoa@n+1,___aomod@dividend+1
  3430   0023FC  C036  F003         	movff	dtoa@n+2,___aomod@dividend+2
  3431   002400  C037  F004         	movff	dtoa@n+3,___aomod@dividend+3
  3432   002404  C038  F005         	movff	dtoa@n+4,___aomod@dividend+4
  3433   002408  C039  F006         	movff	dtoa@n+5,___aomod@dividend+5
  3434   00240C  C03A  F007         	movff	dtoa@n+6,___aomod@dividend+6
  3435   002410  C03B  F008         	movff	dtoa@n+7,___aomod@dividend+7
  3436   002414  0E0A               	movlw	10
  3437   002416  6E09               	movwf	___aomod@divisor^0,c
  3438   002418  0E00               	movlw	0
  3439   00241A  6E0A               	movwf	(___aomod@divisor+1)^0,c
  3440   00241C  0E00               	movlw	0
  3441   00241E  6E0B               	movwf	(___aomod@divisor+2)^0,c
  3442   002420  0E00               	movlw	0
  3443   002422  6E0C               	movwf	(___aomod@divisor+3)^0,c
  3444   002424  0E00               	movlw	0
  3445   002426  6E0D               	movwf	(___aomod@divisor+4)^0,c
  3446   002428  0E00               	movlw	0
  3447   00242A  6E0E               	movwf	(___aomod@divisor+5)^0,c
  3448   00242C  0E00               	movlw	0
  3449   00242E  6E0F               	movwf	(___aomod@divisor+6)^0,c
  3450   002430  0E00               	movlw	0
  3451   002432  6E10               	movwf	(___aomod@divisor+7)^0,c
  3452   002434  EC13  F015         	call	___aomod	;wreg free
  3453   002438  C001  F026         	movff	?___aomod,??_dtoa
  3454   00243C  C002  F027         	movff	?___aomod+1,??_dtoa+1
  3455   002440  C003  F028         	movff	?___aomod+2,??_dtoa+2
  3456   002444  C004  F029         	movff	?___aomod+3,??_dtoa+3
  3457   002448  C005  F02A         	movff	?___aomod+4,??_dtoa+4
  3458   00244C  C006  F02B         	movff	?___aomod+5,??_dtoa+5
  3459   002450  C007  F02C         	movff	?___aomod+6,??_dtoa+6
  3460   002454  C008  F02D         	movff	?___aomod+7,??_dtoa+7
  3461   002458  C026  F013         	movff	??_dtoa,abs@a
  3462   00245C  C027  F014         	movff	??_dtoa+1,abs@a+1
  3463   002460  ECF0  F01F         	call	_abs	;wreg free
  3464   002464  5013               	movf	?_abs^0,w,c
  3465   002466  0F30               	addlw	48
  3466   002468  6EDF               	movwf	indf2,c
  3467   00246A                     
  3468                           ;C:\Program Files\Microchip\xc8\v2.40\pic\sources\c99\common\doprnt.c: 489:         --p;
  3469   00246A  0630               	decf	dtoa@p^0,f,c
  3470   00246C  A0D8               	btfss	status,0,c
  3471   00246E  0631               	decf	(dtoa@p+1)^0,f,c
  3472   002470                     
  3473                           ;C:\Program Files\Microchip\xc8\v2.40\pic\sources\c99\common\doprnt.c: 490:         --w;
  3474   002470  0632               	decf	dtoa@w^0,f,c
  3475   002472  A0D8               	btfss	status,0,c
  3476   002474  0633               	decf	(dtoa@w+1)^0,f,c
  3477   002476                     
  3478                           ;C:\Program Files\Microchip\xc8\v2.40\pic\sources\c99\common\doprnt.c: 491:         n = 
      +                          n / 10;
  3479   002476  C034  F001         	movff	dtoa@n,___aodiv@dividend
  3480   00247A  C035  F002         	movff	dtoa@n+1,___aodiv@dividend+1
  3481   00247E  C036  F003         	movff	dtoa@n+2,___aodiv@dividend+2
  3482   002482  C037  F004         	movff	dtoa@n+3,___aodiv@dividend+3
  3483   002486  C038  F005         	movff	dtoa@n+4,___aodiv@dividend+4
  3484   00248A  C039  F006         	movff	dtoa@n+5,___aodiv@dividend+5
  3485   00248E  C03A  F007         	movff	dtoa@n+6,___aodiv@dividend+6
  3486   002492  C03B  F008         	movff	dtoa@n+7,___aodiv@dividend+7
  3487   002496  0E0A               	movlw	10
  3488   002498  6E09               	movwf	___aodiv@divisor^0,c
  3489   00249A  0E00               	movlw	0
  3490   00249C  6E0A               	movwf	(___aodiv@divisor+1)^0,c
  3491   00249E  0E00               	movlw	0
  3492   0024A0  6E0B               	movwf	(___aodiv@divisor+2)^0,c
  3493   0024A2  0E00               	movlw	0
  3494   0024A4  6E0C               	movwf	(___aodiv@divisor+3)^0,c
  3495   0024A6  0E00               	movlw	0
  3496   0024A8  6E0D               	movwf	(___aodiv@divisor+4)^0,c
  3497   0024AA  0E00               	movlw	0
  3498   0024AC  6E0E               	movwf	(___aodiv@divisor+5)^0,c
  3499   0024AE  0E00               	movlw	0
  3500   0024B0  6E0F               	movwf	(___aodiv@divisor+6)^0,c
  3501   0024B2  0E00               	movlw	0
  3502   0024B4  6E10               	movwf	(___aodiv@divisor+7)^0,c
  3503   0024B6  EC94  F013         	call	___aodiv	;wreg free
  3504   0024BA  C001  F034         	movff	?___aodiv,dtoa@n
  3505   0024BE  C002  F035         	movff	?___aodiv+1,dtoa@n+1
  3506   0024C2  C003  F036         	movff	?___aodiv+2,dtoa@n+2
  3507   0024C6  C004  F037         	movff	?___aodiv+3,dtoa@n+3
  3508   0024CA  C005  F038         	movff	?___aodiv+4,dtoa@n+4
  3509   0024CE  C006  F039         	movff	?___aodiv+5,dtoa@n+5
  3510   0024D2  C007  F03A         	movff	?___aodiv+6,dtoa@n+6
  3511   0024D6  C008  F03B         	movff	?___aodiv+7,dtoa@n+7
  3512   0024DA                     l2861:
  3513                           
  3514                           ;C:\Program Files\Microchip\xc8\v2.40\pic\sources\c99\common\doprnt.c: 482:     while (!
      +                          (i < 1) && (n || (0 < p)
  3515   0024DA  BE3D               	btfsc	(dtoa@i+1)^0,7,c
  3516   0024DC  EF78  F012         	goto	u2601
  3517   0024E0  503D               	movf	(dtoa@i+1)^0,w,c
  3518   0024E2  E108               	bnz	u2600
  3519   0024E4  043C               	decf	dtoa@i^0,w,c
  3520   0024E6  A0D8               	btfss	status,0,c
  3521   0024E8  EF78  F012         	goto	u2601
  3522   0024EC  EF7A  F012         	goto	u2600
  3523   0024F0                     u2601:
  3524   0024F0  EF96  F012         	goto	l2867
  3525   0024F4                     u2600:
  3526   0024F4  5034               	movf	dtoa@n^0,w,c
  3527   0024F6  1035               	iorwf	(dtoa@n+1)^0,w,c
  3528   0024F8  1036               	iorwf	(dtoa@n+2)^0,w,c
  3529   0024FA  1037               	iorwf	(dtoa@n+3)^0,w,c
  3530   0024FC  1038               	iorwf	(dtoa@n+4)^0,w,c
  3531   0024FE  1039               	iorwf	(dtoa@n+5)^0,w,c
  3532   002500  103A               	iorwf	(dtoa@n+6)^0,w,c
  3533   002502  103B               	iorwf	(dtoa@n+7)^0,w,c
  3534   002504  A4D8               	btfss	status,2,c
  3535   002506  EF87  F012         	goto	u2611
  3536   00250A  EF89  F012         	goto	u2610
  3537   00250E                     u2611:
  3538   00250E  EFF1  F011         	goto	l2851
  3539   002512                     u2610:
  3540   002512  BE31               	btfsc	(dtoa@p+1)^0,7,c
  3541   002514  EF96  F012         	goto	u2620
  3542   002518  5031               	movf	(dtoa@p+1)^0,w,c
  3543   00251A  E106               	bnz	u2621
  3544   00251C  0430               	decf	dtoa@p^0,w,c
  3545   00251E  B0D8               	btfsc	status,0,c
  3546   002520  EF94  F012         	goto	u2621
  3547   002524  EF96  F012         	goto	u2620
  3548   002528                     u2621:
  3549   002528  EFF1  F011         	goto	l2851
  3550   00252C                     u2620:
  3551   00252C                     l2867:
  3552                           
  3553                           ;C:\Program Files\Microchip\xc8\v2.40\pic\sources\c99\common\doprnt.c: 495:     if (s !=
      +                           0) {
  3554   00252C  503E               	movf	dtoa@s^0,w,c
  3555   00252E  B4D8               	btfsc	status,2,c
  3556   002530  EF9C  F012         	goto	u2631
  3557   002534  EF9E  F012         	goto	u2630
  3558   002538                     u2631:
  3559   002538  EFA9  F012         	goto	l2873
  3560   00253C                     u2630:
  3561   00253C                     
  3562                           ;C:\Program Files\Microchip\xc8\v2.40\pic\sources\c99\common\doprnt.c: 496:         --i;
  3563   00253C  063C               	decf	dtoa@i^0,f,c
  3564   00253E  A0D8               	btfss	status,0,c
  3565   002540  063D               	decf	(dtoa@i+1)^0,f,c
  3566   002542                     
  3567                           ;C:\Program Files\Microchip\xc8\v2.40\pic\sources\c99\common\doprnt.c: 497:         dbuf
      +                          [i] = s;
  3568   002542  0EB6               	movlw	low _dbuf
  3569   002544  243C               	addwf	dtoa@i^0,w,c
  3570   002546  6ED9               	movwf	fsr2l,c
  3571   002548  0E00               	movlw	high _dbuf
  3572   00254A  203D               	addwfc	(dtoa@i+1)^0,w,c
  3573   00254C  6EDA               	movwf	fsr2h,c
  3574   00254E  C03E  FFDF         	movff	dtoa@s,indf2
  3575   002552                     l2873:
  3576                           
  3577                           ;C:\Program Files\Microchip\xc8\v2.40\pic\sources\c99\common\doprnt.c: 501:     return (
      +                          void) pad(fp, &dbuf[i], w);
  3578   002552  C01C  F011         	movff	dtoa@fp,pad@fp
  3579   002556  C01D  F012         	movff	dtoa@fp+1,pad@fp+1
  3580   00255A  0EB6               	movlw	low _dbuf
  3581   00255C  243C               	addwf	dtoa@i^0,w,c
  3582   00255E  6E13               	movwf	pad@buf^0,c
  3583   002560  0E00               	movlw	high _dbuf
  3584   002562  203D               	addwfc	(dtoa@i+1)^0,w,c
  3585   002564  6E14               	movwf	(pad@buf+1)^0,c
  3586   002566  C032  F015         	movff	dtoa@w,pad@p
  3587   00256A  C033  F016         	movff	dtoa@w+1,pad@p+1
  3588   00256E  ECAA  F01D         	call	_pad	;wreg free
  3589   002572  0012               	return		;funcret
  3590   002574                     __end_of_dtoa:
  3591                           	callstack 0
  3592                           
  3593 ;; *************** function _pad *****************
  3594 ;; Defined at:
  3595 ;;		line 133 in file "C:\Program Files\Microchip\xc8\v2.40\pic\sources\c99\common\doprnt.c"
  3596 ;; Parameters:    Size  Location     Type
  3597 ;;  fp              2   16[COMRAM] PTR struct _IO_FILE
  3598 ;;		 -> sprintf@f(11), 
  3599 ;;  buf             2   18[COMRAM] PTR unsigned char 
  3600 ;;		 -> dbuf(32), 
  3601 ;;  p               2   20[COMRAM] int 
  3602 ;; Auto vars:     Size  Location     Type
  3603 ;;  w               2   25[COMRAM] int 
  3604 ;;  i               2   23[COMRAM] int 
  3605 ;; Return value:  Size  Location     Type
  3606 ;;                  1    wreg      void 
  3607 ;; Registers used:
  3608 ;;		wreg, fsr1l, fsr1h, fsr2l, fsr2h, status,2, status,0, cstack
  3609 ;; Tracked objects:
  3610 ;;		On entry : 0/0
  3611 ;;		On exit  : 0/0
  3612 ;;		Unchanged: 0/0
  3613 ;; Data sizes:     COMRAM   BANK0   BANK1   BANK2   BANK3   BANK4   BANK5   BANK6   BANK7   BANK8   BANK9  BANK10  BANK1
      +1  BANK12  BANK13  BANK14  BANK15
  3614 ;;      Params:         6       0       0       0       0       0       0       0       0       0       0       0       
      +0       0       0       0       0
  3615 ;;      Locals:         4       0       0       0       0       0       0       0       0       0       0       0       
      +0       0       0       0       0
  3616 ;;      Temps:          1       0       0       0       0       0       0       0       0       0       0       0       
      +0       0       0       0       0
  3617 ;;      Totals:        11       0       0       0       0       0       0       0       0       0       0       0       
      +0       0       0       0       0
  3618 ;;Total ram usage:       11 bytes
  3619 ;; Hardware stack levels used: 1
  3620 ;; Hardware stack levels required when called: 3
  3621 ;; This function calls:
  3622 ;;		_fputc
  3623 ;;		_fputs
  3624 ;; This function is called by:
  3625 ;;		_dtoa
  3626 ;; This function uses a non-reentrant model
  3627 ;;
  3628                           
  3629                           	psect	text12
  3630   003B54                     __ptext12:
  3631                           	callstack 0
  3632   003B54                     _pad:
  3633                           	callstack 22
  3634   003B54                     
  3635                           ;C:\Program Files\Microchip\xc8\v2.40\pic\sources\c99\common\doprnt.c: 133: static void 
      +                          pad(FILE *fp, char *buf, int p);C:\Program Files\Microchip\xc8\v2.40\pic\sources\c99\com
      +                          mon\doprnt.c: 134: {;C:\Program Files\Microchip\xc8\v2.40\pic\sources\c99\common\doprnt.
      +                          c: 135:     int i, w;;C:\Program Files\Microchip\xc8\v2.40\pic\sources\c99\common\doprnt
      +                          .c: 145:     w = (p < 0) ? 0 : p;
  3636   003B54  BE16               	btfsc	(pad@p+1)^0,7,c
  3637   003B56  EFAF  F01D         	goto	u2441
  3638   003B5A  EFB1  F01D         	goto	u2440
  3639   003B5E                     u2441:
  3640   003B5E  EFB7  F01D         	goto	l2773
  3641   003B62                     u2440:
  3642   003B62  C015  F01A         	movff	pad@p,pad@w
  3643   003B66  C016  F01B         	movff	pad@p+1,pad@w+1
  3644   003B6A  EFBB  F01D         	goto	l1050
  3645   003B6E                     l2773:
  3646   003B6E  0E00               	movlw	0
  3647   003B70  6E1B               	movwf	(pad@w+1)^0,c
  3648   003B72  0E00               	movlw	0
  3649   003B74  6E1A               	movwf	pad@w^0,c
  3650   003B76                     l1050:
  3651                           
  3652                           ;C:\Program Files\Microchip\xc8\v2.40\pic\sources\c99\common\doprnt.c: 146:     i = 0;
  3653   003B76  0E00               	movlw	0
  3654   003B78  6E19               	movwf	(pad@i+1)^0,c
  3655   003B7A  0E00               	movlw	0
  3656   003B7C  6E18               	movwf	pad@i^0,c
  3657                           
  3658                           ;C:\Program Files\Microchip\xc8\v2.40\pic\sources\c99\common\doprnt.c: 147:     while (i
      +                           < w) {
  3659   003B7E  EFCD  F01D         	goto	l2779
  3660   003B82                     l2775:
  3661                           
  3662                           ;C:\Program Files\Microchip\xc8\v2.40\pic\sources\c99\common\doprnt.c: 148:         fput
      +                          c(' ', fp);
  3663   003B82  0E00               	movlw	0
  3664   003B84  6E02               	movwf	(fputc@c+1)^0,c
  3665   003B86  0E20               	movlw	32
  3666   003B88  6E01               	movwf	fputc@c^0,c
  3667   003B8A  C011  F003         	movff	pad@fp,fputc@fp
  3668   003B8E  C012  F004         	movff	pad@fp+1,fputc@fp+1
  3669   003B92  EC85  F01B         	call	_fputc	;wreg free
  3670   003B96                     
  3671                           ;C:\Program Files\Microchip\xc8\v2.40\pic\sources\c99\common\doprnt.c: 149:         ++i;
  3672   003B96  4A18               	infsnz	pad@i^0,f,c
  3673   003B98  2A19               	incf	(pad@i+1)^0,f,c
  3674   003B9A                     l2779:
  3675                           
  3676                           ;C:\Program Files\Microchip\xc8\v2.40\pic\sources\c99\common\doprnt.c: 147:     while (i
      +                           < w) {
  3677   003B9A  501A               	movf	pad@w^0,w,c
  3678   003B9C  5C18               	subwf	pad@i^0,w,c
  3679   003B9E  5019               	movf	(pad@i+1)^0,w,c
  3680   003BA0  0A80               	xorlw	128
  3681   003BA2  6E17               	movwf	??_pad^0,c
  3682   003BA4  501B               	movf	(pad@w+1)^0,w,c
  3683   003BA6  0A80               	xorlw	128
  3684   003BA8  5817               	subwfb	??_pad^0,w,c
  3685   003BAA  A0D8               	btfss	status,0,c
  3686   003BAC  EFDA  F01D         	goto	u2451
  3687   003BB0  EFDC  F01D         	goto	u2450
  3688   003BB4                     u2451:
  3689   003BB4  EFC1  F01D         	goto	l2775
  3690   003BB8                     u2450:
  3691   003BB8                     
  3692                           ;C:\Program Files\Microchip\xc8\v2.40\pic\sources\c99\common\doprnt.c: 156:         fput
      +                          s((const char *)buf, fp);
  3693   003BB8  C013  F00A         	movff	pad@buf,fputs@s
  3694   003BBC  C014  F00B         	movff	pad@buf+1,fputs@s+1
  3695   003BC0  C011  F00C         	movff	pad@fp,fputs@fp
  3696   003BC4  C012  F00D         	movff	pad@fp+1,fputs@fp+1
  3697   003BC8  EC8C  F01F         	call	_fputs	;wreg free
  3698   003BCC  0012               	return		;funcret
  3699   003BCE                     __end_of_pad:
  3700                           	callstack 0
  3701                           
  3702 ;; *************** function _fputs *****************
  3703 ;; Defined at:
  3704 ;;		line 8 in file "C:\Program Files\Microchip\xc8\v2.40\pic\sources\c99\common\nf_fputs.c"
  3705 ;; Parameters:    Size  Location     Type
  3706 ;;  s               2    9[COMRAM] PTR const unsigned char 
  3707 ;;		 -> dbuf(32), 
  3708 ;;  fp              2   11[COMRAM] PTR struct _IO_FILE
  3709 ;;		 -> sprintf@f(11), 
  3710 ;; Auto vars:     Size  Location     Type
  3711 ;;  i               2   14[COMRAM] int 
  3712 ;;  c               1   13[COMRAM] unsigned char 
  3713 ;; Return value:  Size  Location     Type
  3714 ;;                  2    9[COMRAM] int 
  3715 ;; Registers used:
  3716 ;;		wreg, fsr1l, fsr1h, fsr2l, fsr2h, status,2, status,0, cstack
  3717 ;; Tracked objects:
  3718 ;;		On entry : 0/0
  3719 ;;		On exit  : 0/0
  3720 ;;		Unchanged: 0/0
  3721 ;; Data sizes:     COMRAM   BANK0   BANK1   BANK2   BANK3   BANK4   BANK5   BANK6   BANK7   BANK8   BANK9  BANK10  BANK1
      +1  BANK12  BANK13  BANK14  BANK15
  3722 ;;      Params:         4       0       0       0       0       0       0       0       0       0       0       0       
      +0       0       0       0       0
  3723 ;;      Locals:         3       0       0       0       0       0       0       0       0       0       0       0       
      +0       0       0       0       0
  3724 ;;      Temps:          0       0       0       0       0       0       0       0       0       0       0       0       
      +0       0       0       0       0
  3725 ;;      Totals:         7       0       0       0       0       0       0       0       0       0       0       0       
      +0       0       0       0       0
  3726 ;;Total ram usage:        7 bytes
  3727 ;; Hardware stack levels used: 1
  3728 ;; Hardware stack levels required when called: 2
  3729 ;; This function calls:
  3730 ;;		_fputc
  3731 ;; This function is called by:
  3732 ;;		_pad
  3733 ;; This function uses a non-reentrant model
  3734 ;;
  3735                           
  3736                           	psect	text13
  3737   003F18                     __ptext13:
  3738                           	callstack 0
  3739   003F18                     _fputs:
  3740                           	callstack 22
  3741   003F18  0E00               	movlw	0
  3742   003F1A  6E10               	movwf	(fputs@i+1)^0,c
  3743   003F1C  0E00               	movlw	0
  3744   003F1E  6E0F               	movwf	fputs@i^0,c
  3745   003F20  EF9D  F01F         	goto	l2663
  3746   003F24                     l2659:
  3747   003F24  C00E  F001         	movff	fputs@c,fputc@c
  3748   003F28  6A02               	clrf	(fputc@c+1)^0,c
  3749   003F2A  C00C  F003         	movff	fputs@fp,fputc@fp
  3750   003F2E  C00D  F004         	movff	fputs@fp+1,fputc@fp+1
  3751   003F32  EC85  F01B         	call	_fputc	;wreg free
  3752   003F36  4A0F               	infsnz	fputs@i^0,f,c
  3753   003F38  2A10               	incf	(fputs@i+1)^0,f,c
  3754   003F3A                     l2663:
  3755   003F3A  500F               	movf	fputs@i^0,w,c
  3756   003F3C  240A               	addwf	fputs@s^0,w,c
  3757   003F3E  6ED9               	movwf	fsr2l,c
  3758   003F40  5010               	movf	(fputs@i+1)^0,w,c
  3759   003F42  200B               	addwfc	(fputs@s+1)^0,w,c
  3760   003F44  6EDA               	movwf	fsr2h,c
  3761   003F46  50DF               	movf	indf2,w,c
  3762   003F48  6E0E               	movwf	fputs@c^0,c
  3763   003F4A  500E               	movf	fputs@c^0,w,c
  3764   003F4C  A4D8               	btfss	status,2,c
  3765   003F4E  EFAB  F01F         	goto	u2261
  3766   003F52  EFAD  F01F         	goto	u2260
  3767   003F56                     u2261:
  3768   003F56  EF92  F01F         	goto	l2659
  3769   003F5A                     u2260:
  3770   003F5A  0012               	return		;funcret
  3771   003F5C                     __end_of_fputs:
  3772                           	callstack 0
  3773                           
  3774 ;; *************** function _fputc *****************
  3775 ;; Defined at:
  3776 ;;		line 8 in file "C:\Program Files\Microchip\xc8\v2.40\pic\sources\c99\common\nf_fputc.c"
  3777 ;; Parameters:    Size  Location     Type
  3778 ;;  c               2    0[COMRAM] int 
  3779 ;;  fp              2    2[COMRAM] PTR struct _IO_FILE
  3780 ;;		 -> sprintf@f(11), 
  3781 ;; Auto vars:     Size  Location     Type
  3782 ;;		None
  3783 ;; Return value:  Size  Location     Type
  3784 ;;                  2    0[COMRAM] int 
  3785 ;; Registers used:
  3786 ;;		wreg, fsr1l, fsr1h, fsr2l, fsr2h, status,2, status,0, cstack
  3787 ;; Tracked objects:
  3788 ;;		On entry : 0/0
  3789 ;;		On exit  : 0/0
  3790 ;;		Unchanged: 0/0
  3791 ;; Data sizes:     COMRAM   BANK0   BANK1   BANK2   BANK3   BANK4   BANK5   BANK6   BANK7   BANK8   BANK9  BANK10  BANK1
      +1  BANK12  BANK13  BANK14  BANK15
  3792 ;;      Params:         4       0       0       0       0       0       0       0       0       0       0       0       
      +0       0       0       0       0
  3793 ;;      Locals:         0       0       0       0       0       0       0       0       0       0       0       0       
      +0       0       0       0       0
  3794 ;;      Temps:          5       0       0       0       0       0       0       0       0       0       0       0       
      +0       0       0       0       0
  3795 ;;      Totals:         9       0       0       0       0       0       0       0       0       0       0       0       
      +0       0       0       0       0
  3796 ;;Total ram usage:        9 bytes
  3797 ;; Hardware stack levels used: 1
  3798 ;; Hardware stack levels required when called: 1
  3799 ;; This function calls:
  3800 ;;		_putch
  3801 ;; This function is called by:
  3802 ;;		_pad
  3803 ;;		_vfpfcnvrt
  3804 ;;		_fputs
  3805 ;; This function uses a non-reentrant model
  3806 ;;
  3807                           
  3808                           	psect	text14
  3809   00370A                     __ptext14:
  3810                           	callstack 0
  3811   00370A                     _fputc:
  3812                           	callstack 25
  3813   00370A  5003               	movf	fputc@fp^0,w,c
  3814   00370C  1004               	iorwf	(fputc@fp+1)^0,w,c
  3815   00370E  B4D8               	btfsc	status,2,c
  3816   003710  EF8C  F01B         	goto	u2221
  3817   003714  EF8E  F01B         	goto	u2220
  3818   003718                     u2221:
  3819   003718  EF97  F01B         	goto	l2647
  3820   00371C                     u2220:
  3821   00371C  5003               	movf	fputc@fp^0,w,c
  3822   00371E  1004               	iorwf	(fputc@fp+1)^0,w,c
  3823   003720  A4D8               	btfss	status,2,c
  3824   003722  EF95  F01B         	goto	u2231
  3825   003726  EF97  F01B         	goto	u2230
  3826   00372A                     u2231:
  3827   00372A  EF9C  F01B         	goto	l2649
  3828   00372E                     u2230:
  3829   00372E                     l2647:
  3830   00372E  5001               	movf	fputc@c^0,w,c
  3831   003730  ECD8  F020         	call	_putch
  3832   003734  EFE9  F01B         	goto	l1105
  3833   003738                     l2649:
  3834   003738  EE20 F009          	lfsr	2,9
  3835   00373C  5003               	movf	fputc@fp^0,w,c
  3836   00373E  26D9               	addwf	fsr2l,f,c
  3837   003740  5004               	movf	(fputc@fp+1)^0,w,c
  3838   003742  22DA               	addwfc	fsr2h,f,c
  3839   003744  50DE               	movf	postinc2,w,c
  3840   003746  10DE               	iorwf	postinc2,w,c
  3841   003748  B4D8               	btfsc	status,2,c
  3842   00374A  EFA9  F01B         	goto	u2241
  3843   00374E  EFAB  F01B         	goto	u2240
  3844   003752                     u2241:
  3845   003752  EFC6  F01B         	goto	l2653
  3846   003756                     u2240:
  3847   003756  EE20 F009          	lfsr	2,9
  3848   00375A  5003               	movf	fputc@fp^0,w,c
  3849   00375C  26D9               	addwf	fsr2l,f,c
  3850   00375E  5004               	movf	(fputc@fp+1)^0,w,c
  3851   003760  22DA               	addwfc	fsr2h,f,c
  3852   003762  EE10 F003          	lfsr	1,3
  3853   003766  5003               	movf	fputc@fp^0,w,c
  3854   003768  26E1               	addwf	fsr1l,f,c
  3855   00376A  5004               	movf	(fputc@fp+1)^0,w,c
  3856   00376C  22E2               	addwfc	fsr1h,f,c
  3857   00376E  50DE               	movf	postinc2,w,c
  3858   003770  5CE6               	subwf	postinc1,w,c
  3859   003772  50E6               	movf	postinc1,w,c
  3860   003774  0A80               	xorlw	128
  3861   003776  6E09               	movwf	(??_fputc+4)^0,c
  3862   003778  50DE               	movf	postinc2,w,c
  3863   00377A  0A80               	xorlw	128
  3864   00377C  5809               	subwfb	(??_fputc+4)^0,w,c
  3865   00377E  B0D8               	btfsc	status,0,c
  3866   003780  EFC4  F01B         	goto	u2251
  3867   003784  EFC6  F01B         	goto	u2250
  3868   003788                     u2251:
  3869   003788  EFE9  F01B         	goto	l1105
  3870   00378C                     u2250:
  3871   00378C                     l2653:
  3872   00378C  EE20 F003          	lfsr	2,3
  3873   003790  5003               	movf	fputc@fp^0,w,c
  3874   003792  26D9               	addwf	fsr2l,f,c
  3875   003794  5004               	movf	(fputc@fp+1)^0,w,c
  3876   003796  22DA               	addwfc	fsr2h,f,c
  3877   003798  CFDE F005          	movff	postinc2,??_fputc
  3878   00379C  CFDD F006          	movff	postdec2,??_fputc+1
  3879   0037A0  C003  FFD9         	movff	fputc@fp,fsr2l
  3880   0037A4  C004  FFDA         	movff	fputc@fp+1,fsr2h
  3881   0037A8  CFDE F007          	movff	postinc2,??_fputc+2
  3882   0037AC  CFDD F008          	movff	postdec2,??_fputc+3
  3883   0037B0  5005               	movf	??_fputc^0,w,c
  3884   0037B2  2407               	addwf	(??_fputc+2)^0,w,c
  3885   0037B4  6ED9               	movwf	fsr2l,c
  3886   0037B6  5006               	movf	(??_fputc+1)^0,w,c
  3887   0037B8  2008               	addwfc	(??_fputc+3)^0,w,c
  3888   0037BA  6EDA               	movwf	fsr2h,c
  3889   0037BC  C001  FFDF         	movff	fputc@c,indf2
  3890   0037C0  EE20 F003          	lfsr	2,3
  3891   0037C4  5003               	movf	fputc@fp^0,w,c
  3892   0037C6  26D9               	addwf	fsr2l,f,c
  3893   0037C8  5004               	movf	(fputc@fp+1)^0,w,c
  3894   0037CA  22DA               	addwfc	fsr2h,f,c
  3895   0037CC  2ADE               	incf	postinc2,f,c
  3896   0037CE  0E00               	movlw	0
  3897   0037D0  22DD               	addwfc	postdec2,f,c
  3898   0037D2                     l1105:
  3899   0037D2  0012               	return		;funcret
  3900   0037D4                     __end_of_fputc:
  3901                           	callstack 0
  3902                           
  3903 ;; *************** function _putch *****************
  3904 ;; Defined at:
  3905 ;;		line 7 in file "C:\Program Files\Microchip\xc8\v2.40\pic\sources\c99\common\putch.c"
  3906 ;; Parameters:    Size  Location     Type
  3907 ;;  c               1    wreg     unsigned char 
  3908 ;; Auto vars:     Size  Location     Type
  3909 ;;  c               1    0[COMRAM] unsigned char 
  3910 ;; Return value:  Size  Location     Type
  3911 ;;                  1    wreg      void 
  3912 ;; Registers used:
  3913 ;;		wreg
  3914 ;; Tracked objects:
  3915 ;;		On entry : 0/0
  3916 ;;		On exit  : 0/0
  3917 ;;		Unchanged: 0/0
  3918 ;; Data sizes:     COMRAM   BANK0   BANK1   BANK2   BANK3   BANK4   BANK5   BANK6   BANK7   BANK8   BANK9  BANK10  BANK1
      +1  BANK12  BANK13  BANK14  BANK15
  3919 ;;      Params:         0       0       0       0       0       0       0       0       0       0       0       0       
      +0       0       0       0       0
  3920 ;;      Locals:         0       0       0       0       0       0       0       0       0       0       0       0       
      +0       0       0       0       0
  3921 ;;      Temps:          0       0       0       0       0       0       0       0       0       0       0       0       
      +0       0       0       0       0
  3922 ;;      Totals:         0       0       0       0       0       0       0       0       0       0       0       0       
      +0       0       0       0       0
  3923 ;;Total ram usage:        0 bytes
  3924 ;; Hardware stack levels used: 1
  3925 ;; This function calls:
  3926 ;;		Nothing
  3927 ;; This function is called by:
  3928 ;;		_fputc
  3929 ;; This function uses a non-reentrant model
  3930 ;;
  3931                           
  3932                           	psect	text15
  3933   0041B0                     __ptext15:
  3934                           	callstack 0
  3935   0041B0                     _putch:
  3936                           	callstack 25
  3937   0041B0  0012               	return		;funcret
  3938   0041B2                     __end_of_putch:
  3939                           	callstack 0
  3940                           
  3941 ;; *************** function _abs *****************
  3942 ;; Defined at:
  3943 ;;		line 1 in file "C:\Program Files\Microchip\xc8\v2.40\pic\sources\c99\common\abs.c"
  3944 ;; Parameters:    Size  Location     Type
  3945 ;;  a               2   18[COMRAM] int 
  3946 ;; Auto vars:     Size  Location     Type
  3947 ;;		None
  3948 ;; Return value:  Size  Location     Type
  3949 ;;                  2   18[COMRAM] int 
  3950 ;; Registers used:
  3951 ;;		wreg, status,2, status,0
  3952 ;; Tracked objects:
  3953 ;;		On entry : 0/0
  3954 ;;		On exit  : 0/0
  3955 ;;		Unchanged: 0/0
  3956 ;; Data sizes:     COMRAM   BANK0   BANK1   BANK2   BANK3   BANK4   BANK5   BANK6   BANK7   BANK8   BANK9  BANK10  BANK1
      +1  BANK12  BANK13  BANK14  BANK15
  3957 ;;      Params:         2       0       0       0       0       0       0       0       0       0       0       0       
      +0       0       0       0       0
  3958 ;;      Locals:         0       0       0       0       0       0       0       0       0       0       0       0       
      +0       0       0       0       0
  3959 ;;      Temps:          2       0       0       0       0       0       0       0       0       0       0       0       
      +0       0       0       0       0
  3960 ;;      Totals:         4       0       0       0       0       0       0       0       0       0       0       0       
      +0       0       0       0       0
  3961 ;;Total ram usage:        4 bytes
  3962 ;; Hardware stack levels used: 1
  3963 ;; This function calls:
  3964 ;;		Nothing
  3965 ;; This function is called by:
  3966 ;;		_dtoa
  3967 ;; This function uses a non-reentrant model
  3968 ;;
  3969                           
  3970                           	psect	text16
  3971   003FE0                     __ptext16:
  3972                           	callstack 0
  3973   003FE0                     _abs:
  3974                           	callstack 25
  3975   003FE0  BE14               	btfsc	(abs@a+1)^0,7,c
  3976   003FE2  EFFD  F01F         	goto	u2460
  3977   003FE6  5014               	movf	(abs@a+1)^0,w,c
  3978   003FE8  E106               	bnz	u2461
  3979   003FEA  0413               	decf	abs@a^0,w,c
  3980   003FEC  B0D8               	btfsc	status,0,c
  3981   003FEE  EFFB  F01F         	goto	u2461
  3982   003FF2  EFFD  F01F         	goto	u2460
  3983   003FF6                     u2461:
  3984   003FF6  EF0B  F020         	goto	l1090
  3985   003FFA                     u2460:
  3986   003FFA  C013  F015         	movff	abs@a,??_abs
  3987   003FFE  C014  F016         	movff	abs@a+1,??_abs+1
  3988   004002  1E15               	comf	??_abs^0,f,c
  3989   004004  1E16               	comf	(??_abs+1)^0,f,c
  3990   004006  4A15               	infsnz	??_abs^0,f,c
  3991   004008  2A16               	incf	(??_abs+1)^0,f,c
  3992   00400A  C015  F013         	movff	??_abs,?_abs
  3993   00400E  C016  F014         	movff	??_abs+1,?_abs+1
  3994   004012  EF0F  F020         	goto	l1093
  3995   004016                     l1090:
  3996   004016  C013  F013         	movff	abs@a,?_abs
  3997   00401A  C014  F014         	movff	abs@a+1,?_abs+1
  3998   00401E                     l1093:
  3999   00401E  0012               	return		;funcret
  4000   004020                     __end_of_abs:
  4001                           	callstack 0
  4002                           
  4003 ;; *************** function ___aomod *****************
  4004 ;; Defined at:
  4005 ;;		line 9 in file "C:\Program Files\Microchip\xc8\v2.40\pic\sources\c99\common\aomod.c"
  4006 ;; Parameters:    Size  Location     Type
  4007 ;;  dividend        8    0[COMRAM] long long 
  4008 ;;  divisor         8    8[COMRAM] long long 
  4009 ;; Auto vars:     Size  Location     Type
  4010 ;;  sign            1   17[COMRAM] unsigned char 
  4011 ;;  counter         1   16[COMRAM] unsigned char 
  4012 ;; Return value:  Size  Location     Type
  4013 ;;                  8    0[COMRAM] long long 
  4014 ;; Registers used:
  4015 ;;		wreg, status,2, status,0
  4016 ;; Tracked objects:
  4017 ;;		On entry : 0/0
  4018 ;;		On exit  : 0/0
  4019 ;;		Unchanged: 0/0
  4020 ;; Data sizes:     COMRAM   BANK0   BANK1   BANK2   BANK3   BANK4   BANK5   BANK6   BANK7   BANK8   BANK9  BANK10  BANK1
      +1  BANK12  BANK13  BANK14  BANK15
  4021 ;;      Params:        16       0       0       0       0       0       0       0       0       0       0       0       
      +0       0       0       0       0
  4022 ;;      Locals:         2       0       0       0       0       0       0       0       0       0       0       0       
      +0       0       0       0       0
  4023 ;;      Temps:          0       0       0       0       0       0       0       0       0       0       0       0       
      +0       0       0       0       0
  4024 ;;      Totals:        18       0       0       0       0       0       0       0       0       0       0       0       
      +0       0       0       0       0
  4025 ;;Total ram usage:       18 bytes
  4026 ;; Hardware stack levels used: 1
  4027 ;; This function calls:
  4028 ;;		Nothing
  4029 ;; This function is called by:
  4030 ;;		_dtoa
  4031 ;; This function uses a non-reentrant model
  4032 ;;
  4033                           
  4034                           	psect	text17
  4035   002A26                     __ptext17:
  4036                           	callstack 0
  4037   002A26                     ___aomod:
  4038                           	callstack 25
  4039   002A26  0E00               	movlw	0
  4040   002A28  6E12               	movwf	___aomod@sign^0,c
  4041   002A2A  BE08               	btfsc	(___aomod@dividend+7)^0,7,c
  4042   002A2C  EF1C  F015         	goto	u2380
  4043   002A30  EF1A  F015         	goto	u2381
  4044   002A34                     u2381:
  4045   002A34  EF2E  F015         	goto	l2741
  4046   002A38                     u2380:
  4047   002A38  1E08               	comf	(___aomod@dividend+7)^0,f,c
  4048   002A3A  1E07               	comf	(___aomod@dividend+6)^0,f,c
  4049   002A3C  1E06               	comf	(___aomod@dividend+5)^0,f,c
  4050   002A3E  1E05               	comf	(___aomod@dividend+4)^0,f,c
  4051   002A40  1E04               	comf	(___aomod@dividend+3)^0,f,c
  4052   002A42  1E03               	comf	(___aomod@dividend+2)^0,f,c
  4053   002A44  1E02               	comf	(___aomod@dividend+1)^0,f,c
  4054   002A46  6C01               	negf	___aomod@dividend^0,c
  4055   002A48  0E00               	movlw	0
  4056   002A4A  2202               	addwfc	(___aomod@dividend+1)^0,f,c
  4057   002A4C  2203               	addwfc	(___aomod@dividend+2)^0,f,c
  4058   002A4E  2204               	addwfc	(___aomod@dividend+3)^0,f,c
  4059   002A50  2205               	addwfc	(___aomod@dividend+4)^0,f,c
  4060   002A52  2206               	addwfc	(___aomod@dividend+5)^0,f,c
  4061   002A54  2207               	addwfc	(___aomod@dividend+6)^0,f,c
  4062   002A56  2208               	addwfc	(___aomod@dividend+7)^0,f,c
  4063   002A58  0E01               	movlw	1
  4064   002A5A  6E12               	movwf	___aomod@sign^0,c
  4065   002A5C                     l2741:
  4066   002A5C  BE10               	btfsc	(___aomod@divisor+7)^0,7,c
  4067   002A5E  EF35  F015         	goto	u2390
  4068   002A62  EF33  F015         	goto	u2391
  4069   002A66                     u2391:
  4070   002A66  EF45  F015         	goto	l2745
  4071   002A6A                     u2390:
  4072   002A6A  1E10               	comf	(___aomod@divisor+7)^0,f,c
  4073   002A6C  1E0F               	comf	(___aomod@divisor+6)^0,f,c
  4074   002A6E  1E0E               	comf	(___aomod@divisor+5)^0,f,c
  4075   002A70  1E0D               	comf	(___aomod@divisor+4)^0,f,c
  4076   002A72  1E0C               	comf	(___aomod@divisor+3)^0,f,c
  4077   002A74  1E0B               	comf	(___aomod@divisor+2)^0,f,c
  4078   002A76  1E0A               	comf	(___aomod@divisor+1)^0,f,c
  4079   002A78  6C09               	negf	___aomod@divisor^0,c
  4080   002A7A  0E00               	movlw	0
  4081   002A7C  220A               	addwfc	(___aomod@divisor+1)^0,f,c
  4082   002A7E  220B               	addwfc	(___aomod@divisor+2)^0,f,c
  4083   002A80  220C               	addwfc	(___aomod@divisor+3)^0,f,c
  4084   002A82  220D               	addwfc	(___aomod@divisor+4)^0,f,c
  4085   002A84  220E               	addwfc	(___aomod@divisor+5)^0,f,c
  4086   002A86  220F               	addwfc	(___aomod@divisor+6)^0,f,c
  4087   002A88  2210               	addwfc	(___aomod@divisor+7)^0,f,c
  4088   002A8A                     l2745:
  4089   002A8A  5009               	movf	___aomod@divisor^0,w,c
  4090   002A8C  100A               	iorwf	(___aomod@divisor+1)^0,w,c
  4091   002A8E  100B               	iorwf	(___aomod@divisor+2)^0,w,c
  4092   002A90  100C               	iorwf	(___aomod@divisor+3)^0,w,c
  4093   002A92  100D               	iorwf	(___aomod@divisor+4)^0,w,c
  4094   002A94  100E               	iorwf	(___aomod@divisor+5)^0,w,c
  4095   002A96  100F               	iorwf	(___aomod@divisor+6)^0,w,c
  4096   002A98  1010               	iorwf	(___aomod@divisor+7)^0,w,c
  4097   002A9A  B4D8               	btfsc	status,2,c
  4098   002A9C  EF52  F015         	goto	u2401
  4099   002AA0  EF54  F015         	goto	u2400
  4100   002AA4                     u2401:
  4101   002AA4  EF9C  F015         	goto	l2761
  4102   002AA8                     u2400:
  4103   002AA8  0E01               	movlw	1
  4104   002AAA  6E11               	movwf	___aomod@counter^0,c
  4105   002AAC  EF62  F015         	goto	l2751
  4106   002AB0                     l2749:
  4107   002AB0  90D8               	bcf	status,0,c
  4108   002AB2  3609               	rlcf	___aomod@divisor^0,f,c
  4109   002AB4  360A               	rlcf	(___aomod@divisor+1)^0,f,c
  4110   002AB6  360B               	rlcf	(___aomod@divisor+2)^0,f,c
  4111   002AB8  360C               	rlcf	(___aomod@divisor+3)^0,f,c
  4112   002ABA  360D               	rlcf	(___aomod@divisor+4)^0,f,c
  4113   002ABC  360E               	rlcf	(___aomod@divisor+5)^0,f,c
  4114   002ABE  360F               	rlcf	(___aomod@divisor+6)^0,f,c
  4115   002AC0  3610               	rlcf	(___aomod@divisor+7)^0,f,c
  4116   002AC2  2A11               	incf	___aomod@counter^0,f,c
  4117   002AC4                     l2751:
  4118   002AC4  AE10               	btfss	(___aomod@divisor+7)^0,7,c
  4119   002AC6  EF67  F015         	goto	u2411
  4120   002ACA  EF69  F015         	goto	u2410
  4121   002ACE                     u2411:
  4122   002ACE  EF58  F015         	goto	l2749
  4123   002AD2                     u2410:
  4124   002AD2                     l2753:
  4125   002AD2  5009               	movf	___aomod@divisor^0,w,c
  4126   002AD4  5C01               	subwf	___aomod@dividend^0,w,c
  4127   002AD6  500A               	movf	(___aomod@divisor+1)^0,w,c
  4128   002AD8  5802               	subwfb	(___aomod@dividend+1)^0,w,c
  4129   002ADA  500B               	movf	(___aomod@divisor+2)^0,w,c
  4130   002ADC  5803               	subwfb	(___aomod@dividend+2)^0,w,c
  4131   002ADE  500C               	movf	(___aomod@divisor+3)^0,w,c
  4132   002AE0  5804               	subwfb	(___aomod@dividend+3)^0,w,c
  4133   002AE2  500D               	movf	(___aomod@divisor+4)^0,w,c
  4134   002AE4  5805               	subwfb	(___aomod@dividend+4)^0,w,c
  4135   002AE6  500E               	movf	(___aomod@divisor+5)^0,w,c
  4136   002AE8  5806               	subwfb	(___aomod@dividend+5)^0,w,c
  4137   002AEA  500F               	movf	(___aomod@divisor+6)^0,w,c
  4138   002AEC  5807               	subwfb	(___aomod@dividend+6)^0,w,c
  4139   002AEE  5010               	movf	(___aomod@divisor+7)^0,w,c
  4140   002AF0  5808               	subwfb	(___aomod@dividend+7)^0,w,c
  4141   002AF2  A0D8               	btfss	status,0,c
  4142   002AF4  EF7E  F015         	goto	u2421
  4143   002AF8  EF80  F015         	goto	u2420
  4144   002AFC                     u2421:
  4145   002AFC  EF90  F015         	goto	l2757
  4146   002B00                     u2420:
  4147   002B00  5009               	movf	___aomod@divisor^0,w,c
  4148   002B02  5E01               	subwf	___aomod@dividend^0,f,c
  4149   002B04  500A               	movf	(___aomod@divisor+1)^0,w,c
  4150   002B06  5A02               	subwfb	(___aomod@dividend+1)^0,f,c
  4151   002B08  500B               	movf	(___aomod@divisor+2)^0,w,c
  4152   002B0A  5A03               	subwfb	(___aomod@dividend+2)^0,f,c
  4153   002B0C  500C               	movf	(___aomod@divisor+3)^0,w,c
  4154   002B0E  5A04               	subwfb	(___aomod@dividend+3)^0,f,c
  4155   002B10  500D               	movf	(___aomod@divisor+4)^0,w,c
  4156   002B12  5A05               	subwfb	(___aomod@dividend+4)^0,f,c
  4157   002B14  500E               	movf	(___aomod@divisor+5)^0,w,c
  4158   002B16  5A06               	subwfb	(___aomod@dividend+5)^0,f,c
  4159   002B18  500F               	movf	(___aomod@divisor+6)^0,w,c
  4160   002B1A  5A07               	subwfb	(___aomod@dividend+6)^0,f,c
  4161   002B1C  5010               	movf	(___aomod@divisor+7)^0,w,c
  4162   002B1E  5A08               	subwfb	(___aomod@dividend+7)^0,f,c
  4163   002B20                     l2757:
  4164   002B20  90D8               	bcf	status,0,c
  4165   002B22  3210               	rrcf	(___aomod@divisor+7)^0,f,c
  4166   002B24  320F               	rrcf	(___aomod@divisor+6)^0,f,c
  4167   002B26  320E               	rrcf	(___aomod@divisor+5)^0,f,c
  4168   002B28  320D               	rrcf	(___aomod@divisor+4)^0,f,c
  4169   002B2A  320C               	rrcf	(___aomod@divisor+3)^0,f,c
  4170   002B2C  320B               	rrcf	(___aomod@divisor+2)^0,f,c
  4171   002B2E  320A               	rrcf	(___aomod@divisor+1)^0,f,c
  4172   002B30  3209               	rrcf	___aomod@divisor^0,f,c
  4173   002B32  2E11               	decfsz	___aomod@counter^0,f,c
  4174   002B34  EF69  F015         	goto	l2753
  4175   002B38                     l2761:
  4176   002B38  5012               	movf	___aomod@sign^0,w,c
  4177   002B3A  B4D8               	btfsc	status,2,c
  4178   002B3C  EFA2  F015         	goto	u2431
  4179   002B40  EFA4  F015         	goto	u2430
  4180   002B44                     u2431:
  4181   002B44  EFB4  F015         	goto	l2765
  4182   002B48                     u2430:
  4183   002B48  1E08               	comf	(___aomod@dividend+7)^0,f,c
  4184   002B4A  1E07               	comf	(___aomod@dividend+6)^0,f,c
  4185   002B4C  1E06               	comf	(___aomod@dividend+5)^0,f,c
  4186   002B4E  1E05               	comf	(___aomod@dividend+4)^0,f,c
  4187   002B50  1E04               	comf	(___aomod@dividend+3)^0,f,c
  4188   002B52  1E03               	comf	(___aomod@dividend+2)^0,f,c
  4189   002B54  1E02               	comf	(___aomod@dividend+1)^0,f,c
  4190   002B56  6C01               	negf	___aomod@dividend^0,c
  4191   002B58  0E00               	movlw	0
  4192   002B5A  2202               	addwfc	(___aomod@dividend+1)^0,f,c
  4193   002B5C  2203               	addwfc	(___aomod@dividend+2)^0,f,c
  4194   002B5E  2204               	addwfc	(___aomod@dividend+3)^0,f,c
  4195   002B60  2205               	addwfc	(___aomod@dividend+4)^0,f,c
  4196   002B62  2206               	addwfc	(___aomod@dividend+5)^0,f,c
  4197   002B64  2207               	addwfc	(___aomod@dividend+6)^0,f,c
  4198   002B66  2208               	addwfc	(___aomod@dividend+7)^0,f,c
  4199   002B68                     l2765:
  4200   002B68  C001  F001         	movff	___aomod@dividend,?___aomod
  4201   002B6C  C002  F002         	movff	___aomod@dividend+1,?___aomod+1
  4202   002B70  C003  F003         	movff	___aomod@dividend+2,?___aomod+2
  4203   002B74  C004  F004         	movff	___aomod@dividend+3,?___aomod+3
  4204   002B78  C005  F005         	movff	___aomod@dividend+4,?___aomod+4
  4205   002B7C  C006  F006         	movff	___aomod@dividend+5,?___aomod+5
  4206   002B80  C007  F007         	movff	___aomod@dividend+6,?___aomod+6
  4207   002B84  C008  F008         	movff	___aomod@dividend+7,?___aomod+7
  4208   002B88  0012               	return		;funcret
  4209   002B8A                     __end_of___aomod:
  4210                           	callstack 0
  4211                           
  4212 ;; *************** function ___aodiv *****************
  4213 ;; Defined at:
  4214 ;;		line 9 in file "C:\Program Files\Microchip\xc8\v2.40\pic\sources\c99\common\aodiv.c"
  4215 ;; Parameters:    Size  Location     Type
  4216 ;;  dividend        8    0[COMRAM] long long 
  4217 ;;  divisor         8    8[COMRAM] long long 
  4218 ;; Auto vars:     Size  Location     Type
  4219 ;;  quotient        8   18[COMRAM] long long 
  4220 ;;  sign            1   17[COMRAM] unsigned char 
  4221 ;;  counter         1   16[COMRAM] unsigned char 
  4222 ;; Return value:  Size  Location     Type
  4223 ;;                  8    0[COMRAM] long long 
  4224 ;; Registers used:
  4225 ;;		wreg, fsr2l, fsr2h, status,2, status,0
  4226 ;; Tracked objects:
  4227 ;;		On entry : 0/0
  4228 ;;		On exit  : 0/0
  4229 ;;		Unchanged: 0/0
  4230 ;; Data sizes:     COMRAM   BANK0   BANK1   BANK2   BANK3   BANK4   BANK5   BANK6   BANK7   BANK8   BANK9  BANK10  BANK1
      +1  BANK12  BANK13  BANK14  BANK15
  4231 ;;      Params:        16       0       0       0       0       0       0       0       0       0       0       0       
      +0       0       0       0       0
  4232 ;;      Locals:        10       0       0       0       0       0       0       0       0       0       0       0       
      +0       0       0       0       0
  4233 ;;      Temps:          0       0       0       0       0       0       0       0       0       0       0       0       
      +0       0       0       0       0
  4234 ;;      Totals:        26       0       0       0       0       0       0       0       0       0       0       0       
      +0       0       0       0       0
  4235 ;;Total ram usage:       26 bytes
  4236 ;; Hardware stack levels used: 1
  4237 ;; This function calls:
  4238 ;;		Nothing
  4239 ;; This function is called by:
  4240 ;;		_dtoa
  4241 ;; This function uses a non-reentrant model
  4242 ;;
  4243                           
  4244                           	psect	text18
  4245   002728                     __ptext18:
  4246                           	callstack 0
  4247   002728                     ___aodiv:
  4248                           	callstack 25
  4249   002728  0E00               	movlw	0
  4250   00272A  6E12               	movwf	___aodiv@sign^0,c
  4251   00272C  BE10               	btfsc	(___aodiv@divisor+7)^0,7,c
  4252   00272E  EF9D  F013         	goto	u2310
  4253   002732  EF9B  F013         	goto	u2311
  4254   002736                     u2311:
  4255   002736  EFAF  F013         	goto	l2697
  4256   00273A                     u2310:
  4257   00273A  1E10               	comf	(___aodiv@divisor+7)^0,f,c
  4258   00273C  1E0F               	comf	(___aodiv@divisor+6)^0,f,c
  4259   00273E  1E0E               	comf	(___aodiv@divisor+5)^0,f,c
  4260   002740  1E0D               	comf	(___aodiv@divisor+4)^0,f,c
  4261   002742  1E0C               	comf	(___aodiv@divisor+3)^0,f,c
  4262   002744  1E0B               	comf	(___aodiv@divisor+2)^0,f,c
  4263   002746  1E0A               	comf	(___aodiv@divisor+1)^0,f,c
  4264   002748  6C09               	negf	___aodiv@divisor^0,c
  4265   00274A  0E00               	movlw	0
  4266   00274C  220A               	addwfc	(___aodiv@divisor+1)^0,f,c
  4267   00274E  220B               	addwfc	(___aodiv@divisor+2)^0,f,c
  4268   002750  220C               	addwfc	(___aodiv@divisor+3)^0,f,c
  4269   002752  220D               	addwfc	(___aodiv@divisor+4)^0,f,c
  4270   002754  220E               	addwfc	(___aodiv@divisor+5)^0,f,c
  4271   002756  220F               	addwfc	(___aodiv@divisor+6)^0,f,c
  4272   002758  2210               	addwfc	(___aodiv@divisor+7)^0,f,c
  4273   00275A  0E01               	movlw	1
  4274   00275C  6E12               	movwf	___aodiv@sign^0,c
  4275   00275E                     l2697:
  4276   00275E  BE08               	btfsc	(___aodiv@dividend+7)^0,7,c
  4277   002760  EFB6  F013         	goto	u2320
  4278   002764  EFB4  F013         	goto	u2321
  4279   002768                     u2321:
  4280   002768  EFC8  F013         	goto	l2703
  4281   00276C                     u2320:
  4282   00276C  1E08               	comf	(___aodiv@dividend+7)^0,f,c
  4283   00276E  1E07               	comf	(___aodiv@dividend+6)^0,f,c
  4284   002770  1E06               	comf	(___aodiv@dividend+5)^0,f,c
  4285   002772  1E05               	comf	(___aodiv@dividend+4)^0,f,c
  4286   002774  1E04               	comf	(___aodiv@dividend+3)^0,f,c
  4287   002776  1E03               	comf	(___aodiv@dividend+2)^0,f,c
  4288   002778  1E02               	comf	(___aodiv@dividend+1)^0,f,c
  4289   00277A  6C01               	negf	___aodiv@dividend^0,c
  4290   00277C  0E00               	movlw	0
  4291   00277E  2202               	addwfc	(___aodiv@dividend+1)^0,f,c
  4292   002780  2203               	addwfc	(___aodiv@dividend+2)^0,f,c
  4293   002782  2204               	addwfc	(___aodiv@dividend+3)^0,f,c
  4294   002784  2205               	addwfc	(___aodiv@dividend+4)^0,f,c
  4295   002786  2206               	addwfc	(___aodiv@dividend+5)^0,f,c
  4296   002788  2207               	addwfc	(___aodiv@dividend+6)^0,f,c
  4297   00278A  2208               	addwfc	(___aodiv@dividend+7)^0,f,c
  4298   00278C  0E01               	movlw	1
  4299   00278E  1A12               	xorwf	___aodiv@sign^0,f,c
  4300   002790                     l2703:
  4301   002790  EE20  F013         	lfsr	2,___aodiv@quotient
  4302   002794  0E07               	movlw	7
  4303   002796                     u2331:
  4304   002796  6ADE               	clrf	postinc2,c
  4305   002798  06E8               	decf	wreg,f,c
  4306   00279A  E2FD               	bc	u2331
  4307   00279C  5009               	movf	___aodiv@divisor^0,w,c
  4308   00279E  100A               	iorwf	(___aodiv@divisor+1)^0,w,c
  4309   0027A0  100B               	iorwf	(___aodiv@divisor+2)^0,w,c
  4310   0027A2  100C               	iorwf	(___aodiv@divisor+3)^0,w,c
  4311   0027A4  100D               	iorwf	(___aodiv@divisor+4)^0,w,c
  4312   0027A6  100E               	iorwf	(___aodiv@divisor+5)^0,w,c
  4313   0027A8  100F               	iorwf	(___aodiv@divisor+6)^0,w,c
  4314   0027AA  1010               	iorwf	(___aodiv@divisor+7)^0,w,c
  4315   0027AC  B4D8               	btfsc	status,2,c
  4316   0027AE  EFDB  F013         	goto	u2341
  4317   0027B2  EFDD  F013         	goto	u2340
  4318   0027B6                     u2341:
  4319   0027B6  EF2F  F014         	goto	l2725
  4320   0027BA                     u2340:
  4321   0027BA  0E01               	movlw	1
  4322   0027BC  6E11               	movwf	___aodiv@counter^0,c
  4323   0027BE  EFEB  F013         	goto	l2711
  4324   0027C2                     l2709:
  4325   0027C2  90D8               	bcf	status,0,c
  4326   0027C4  3609               	rlcf	___aodiv@divisor^0,f,c
  4327   0027C6  360A               	rlcf	(___aodiv@divisor+1)^0,f,c
  4328   0027C8  360B               	rlcf	(___aodiv@divisor+2)^0,f,c
  4329   0027CA  360C               	rlcf	(___aodiv@divisor+3)^0,f,c
  4330   0027CC  360D               	rlcf	(___aodiv@divisor+4)^0,f,c
  4331   0027CE  360E               	rlcf	(___aodiv@divisor+5)^0,f,c
  4332   0027D0  360F               	rlcf	(___aodiv@divisor+6)^0,f,c
  4333   0027D2  3610               	rlcf	(___aodiv@divisor+7)^0,f,c
  4334   0027D4  2A11               	incf	___aodiv@counter^0,f,c
  4335   0027D6                     l2711:
  4336   0027D6  AE10               	btfss	(___aodiv@divisor+7)^0,7,c
  4337   0027D8  EFF0  F013         	goto	u2351
  4338   0027DC  EFF2  F013         	goto	u2350
  4339   0027E0                     u2351:
  4340   0027E0  EFE1  F013         	goto	l2709
  4341   0027E4                     u2350:
  4342   0027E4                     l2713:
  4343   0027E4  90D8               	bcf	status,0,c
  4344   0027E6  3613               	rlcf	___aodiv@quotient^0,f,c
  4345   0027E8  3614               	rlcf	(___aodiv@quotient+1)^0,f,c
  4346   0027EA  3615               	rlcf	(___aodiv@quotient+2)^0,f,c
  4347   0027EC  3616               	rlcf	(___aodiv@quotient+3)^0,f,c
  4348   0027EE  3617               	rlcf	(___aodiv@quotient+4)^0,f,c
  4349   0027F0  3618               	rlcf	(___aodiv@quotient+5)^0,f,c
  4350   0027F2  3619               	rlcf	(___aodiv@quotient+6)^0,f,c
  4351   0027F4  361A               	rlcf	(___aodiv@quotient+7)^0,f,c
  4352   0027F6  5009               	movf	___aodiv@divisor^0,w,c
  4353   0027F8  5C01               	subwf	___aodiv@dividend^0,w,c
  4354   0027FA  500A               	movf	(___aodiv@divisor+1)^0,w,c
  4355   0027FC  5802               	subwfb	(___aodiv@dividend+1)^0,w,c
  4356   0027FE  500B               	movf	(___aodiv@divisor+2)^0,w,c
  4357   002800  5803               	subwfb	(___aodiv@dividend+2)^0,w,c
  4358   002802  500C               	movf	(___aodiv@divisor+3)^0,w,c
  4359   002804  5804               	subwfb	(___aodiv@dividend+3)^0,w,c
  4360   002806  500D               	movf	(___aodiv@divisor+4)^0,w,c
  4361   002808  5805               	subwfb	(___aodiv@dividend+4)^0,w,c
  4362   00280A  500E               	movf	(___aodiv@divisor+5)^0,w,c
  4363   00280C  5806               	subwfb	(___aodiv@dividend+5)^0,w,c
  4364   00280E  500F               	movf	(___aodiv@divisor+6)^0,w,c
  4365   002810  5807               	subwfb	(___aodiv@dividend+6)^0,w,c
  4366   002812  5010               	movf	(___aodiv@divisor+7)^0,w,c
  4367   002814  5808               	subwfb	(___aodiv@dividend+7)^0,w,c
  4368   002816  A0D8               	btfss	status,0,c
  4369   002818  EF10  F014         	goto	u2361
  4370   00281C  EF12  F014         	goto	u2360
  4371   002820                     u2361:
  4372   002820  EF23  F014         	goto	l2721
  4373   002824                     u2360:
  4374   002824  5009               	movf	___aodiv@divisor^0,w,c
  4375   002826  5E01               	subwf	___aodiv@dividend^0,f,c
  4376   002828  500A               	movf	(___aodiv@divisor+1)^0,w,c
  4377   00282A  5A02               	subwfb	(___aodiv@dividend+1)^0,f,c
  4378   00282C  500B               	movf	(___aodiv@divisor+2)^0,w,c
  4379   00282E  5A03               	subwfb	(___aodiv@dividend+2)^0,f,c
  4380   002830  500C               	movf	(___aodiv@divisor+3)^0,w,c
  4381   002832  5A04               	subwfb	(___aodiv@dividend+3)^0,f,c
  4382   002834  500D               	movf	(___aodiv@divisor+4)^0,w,c
  4383   002836  5A05               	subwfb	(___aodiv@dividend+4)^0,f,c
  4384   002838  500E               	movf	(___aodiv@divisor+5)^0,w,c
  4385   00283A  5A06               	subwfb	(___aodiv@dividend+5)^0,f,c
  4386   00283C  500F               	movf	(___aodiv@divisor+6)^0,w,c
  4387   00283E  5A07               	subwfb	(___aodiv@dividend+6)^0,f,c
  4388   002840  5010               	movf	(___aodiv@divisor+7)^0,w,c
  4389   002842  5A08               	subwfb	(___aodiv@dividend+7)^0,f,c
  4390   002844  8013               	bsf	___aodiv@quotient^0,0,c
  4391   002846                     l2721:
  4392   002846  90D8               	bcf	status,0,c
  4393   002848  3210               	rrcf	(___aodiv@divisor+7)^0,f,c
  4394   00284A  320F               	rrcf	(___aodiv@divisor+6)^0,f,c
  4395   00284C  320E               	rrcf	(___aodiv@divisor+5)^0,f,c
  4396   00284E  320D               	rrcf	(___aodiv@divisor+4)^0,f,c
  4397   002850  320C               	rrcf	(___aodiv@divisor+3)^0,f,c
  4398   002852  320B               	rrcf	(___aodiv@divisor+2)^0,f,c
  4399   002854  320A               	rrcf	(___aodiv@divisor+1)^0,f,c
  4400   002856  3209               	rrcf	___aodiv@divisor^0,f,c
  4401   002858  2E11               	decfsz	___aodiv@counter^0,f,c
  4402   00285A  EFF2  F013         	goto	l2713
  4403   00285E                     l2725:
  4404   00285E  5012               	movf	___aodiv@sign^0,w,c
  4405   002860  B4D8               	btfsc	status,2,c
  4406   002862  EF35  F014         	goto	u2371
  4407   002866  EF37  F014         	goto	u2370
  4408   00286A                     u2371:
  4409   00286A  EF47  F014         	goto	l2729
  4410   00286E                     u2370:
  4411   00286E  1E1A               	comf	(___aodiv@quotient+7)^0,f,c
  4412   002870  1E19               	comf	(___aodiv@quotient+6)^0,f,c
  4413   002872  1E18               	comf	(___aodiv@quotient+5)^0,f,c
  4414   002874  1E17               	comf	(___aodiv@quotient+4)^0,f,c
  4415   002876  1E16               	comf	(___aodiv@quotient+3)^0,f,c
  4416   002878  1E15               	comf	(___aodiv@quotient+2)^0,f,c
  4417   00287A  1E14               	comf	(___aodiv@quotient+1)^0,f,c
  4418   00287C  6C13               	negf	___aodiv@quotient^0,c
  4419   00287E  0E00               	movlw	0
  4420   002880  2214               	addwfc	(___aodiv@quotient+1)^0,f,c
  4421   002882  2215               	addwfc	(___aodiv@quotient+2)^0,f,c
  4422   002884  2216               	addwfc	(___aodiv@quotient+3)^0,f,c
  4423   002886  2217               	addwfc	(___aodiv@quotient+4)^0,f,c
  4424   002888  2218               	addwfc	(___aodiv@quotient+5)^0,f,c
  4425   00288A  2219               	addwfc	(___aodiv@quotient+6)^0,f,c
  4426   00288C  221A               	addwfc	(___aodiv@quotient+7)^0,f,c
  4427   00288E                     l2729:
  4428   00288E  C013  F001         	movff	___aodiv@quotient,?___aodiv
  4429   002892  C014  F002         	movff	___aodiv@quotient+1,?___aodiv+1
  4430   002896  C015  F003         	movff	___aodiv@quotient+2,?___aodiv+2
  4431   00289A  C016  F004         	movff	___aodiv@quotient+3,?___aodiv+3
  4432   00289E  C017  F005         	movff	___aodiv@quotient+4,?___aodiv+4
  4433   0028A2  C018  F006         	movff	___aodiv@quotient+5,?___aodiv+5
  4434   0028A6  C019  F007         	movff	___aodiv@quotient+6,?___aodiv+6
  4435   0028AA  C01A  F008         	movff	___aodiv@quotient+7,?___aodiv+7
  4436   0028AE  0012               	return		;funcret
  4437   0028B0                     __end_of___aodiv:
  4438                           	callstack 0
  4439                           
  4440 ;; *************** function _memset *****************
  4441 ;; Defined at:
  4442 ;;		line 4 in file "C:\Program Files\Microchip\xc8\v2.40\pic\sources\c99\common\memset.c"
  4443 ;; Parameters:    Size  Location     Type
  4444 ;;  dest            2    0[COMRAM] PTR void 
  4445 ;;		 -> lm35_value_text(4), 
  4446 ;;  c               2    2[COMRAM] int 
  4447 ;;  n               2    4[COMRAM] unsigned int 
  4448 ;; Auto vars:     Size  Location     Type
  4449 ;;  s               2   10[COMRAM] PTR unsigned char 
  4450 ;;		 -> lm35_value_text(4), 
  4451 ;;  k               2    8[COMRAM] unsigned int 
  4452 ;; Return value:  Size  Location     Type
  4453 ;;                  2    0[COMRAM] PTR void 
  4454 ;; Registers used:
  4455 ;;		wreg, fsr2l, fsr2h, status,2, status,0
  4456 ;; Tracked objects:
  4457 ;;		On entry : 0/0
  4458 ;;		On exit  : 0/0
  4459 ;;		Unchanged: 0/0
  4460 ;; Data sizes:     COMRAM   BANK0   BANK1   BANK2   BANK3   BANK4   BANK5   BANK6   BANK7   BANK8   BANK9  BANK10  BANK1
      +1  BANK12  BANK13  BANK14  BANK15
  4461 ;;      Params:         6       0       0       0       0       0       0       0       0       0       0       0       
      +0       0       0       0       0
  4462 ;;      Locals:         4       0       0       0       0       0       0       0       0       0       0       0       
      +0       0       0       0       0
  4463 ;;      Temps:          2       0       0       0       0       0       0       0       0       0       0       0       
      +0       0       0       0       0
  4464 ;;      Totals:        12       0       0       0       0       0       0       0       0       0       0       0       
      +0       0       0       0       0
  4465 ;;Total ram usage:       12 bytes
  4466 ;; Hardware stack levels used: 1
  4467 ;; This function calls:
  4468 ;;		Nothing
  4469 ;; This function is called by:
  4470 ;;		_lcd_convert_byte_to_string
  4471 ;; This function uses a non-reentrant model
  4472 ;;
  4473                           
  4474                           	psect	text19
  4475   0028B0                     __ptext19:
  4476                           	callstack 0
  4477   0028B0                     _memset:
  4478                           	callstack 29
  4479   0028B0  C001  F00B         	movff	memset@dest,memset@s
  4480   0028B4  C002  F00C         	movff	memset@dest+1,memset@s+1
  4481   0028B8  5005               	movf	memset@n^0,w,c
  4482   0028BA  1006               	iorwf	(memset@n+1)^0,w,c
  4483   0028BC  A4D8               	btfss	status,2,c
  4484   0028BE  EF63  F014         	goto	u3441
  4485   0028C2  EF65  F014         	goto	u3440
  4486   0028C6                     u3441:
  4487   0028C6  EF67  F014         	goto	l3491
  4488   0028CA                     u3440:
  4489   0028CA  EF12  F015         	goto	l1015
  4490   0028CE                     l3491:
  4491   0028CE  C00B  FFD9         	movff	memset@s,fsr2l
  4492   0028D2  C00C  FFDA         	movff	memset@s+1,fsr2h
  4493   0028D6  C003  FFDF         	movff	memset@c,indf2
  4494   0028DA  5005               	movf	memset@n^0,w,c
  4495   0028DC  240B               	addwf	memset@s^0,w,c
  4496   0028DE  6E07               	movwf	??_memset^0,c
  4497   0028E0  5006               	movf	(memset@n+1)^0,w,c
  4498   0028E2  200C               	addwfc	(memset@s+1)^0,w,c
  4499   0028E4  6E08               	movwf	(??_memset+1)^0,c
  4500   0028E6  0EFF               	movlw	255
  4501   0028E8  2407               	addwf	??_memset^0,w,c
  4502   0028EA  6ED9               	movwf	fsr2l,c
  4503   0028EC  0EFF               	movlw	255
  4504   0028EE  2008               	addwfc	(??_memset+1)^0,w,c
  4505   0028F0  6EDA               	movwf	fsr2h,c
  4506   0028F2  C003  FFDF         	movff	memset@c,indf2
  4507   0028F6  5006               	movf	(memset@n+1)^0,w,c
  4508   0028F8  E107               	bnz	u3451
  4509   0028FA  0E03               	movlw	3
  4510   0028FC  5C05               	subwf	memset@n^0,w,c
  4511   0028FE  B0D8               	btfsc	status,0,c
  4512   002900  EF84  F014         	goto	u3451
  4513   002904  EF86  F014         	goto	u3450
  4514   002908                     u3451:
  4515   002908  EF88  F014         	goto	l3497
  4516   00290C                     u3450:
  4517   00290C  EF12  F015         	goto	l1015
  4518   002910                     l3497:
  4519   002910  EE20 F001          	lfsr	2,1
  4520   002914  500B               	movf	memset@s^0,w,c
  4521   002916  26D9               	addwf	fsr2l,f,c
  4522   002918  500C               	movf	(memset@s+1)^0,w,c
  4523   00291A  22DA               	addwfc	fsr2h,f,c
  4524   00291C  C003  FFDF         	movff	memset@c,indf2
  4525   002920  EE20 F002          	lfsr	2,2
  4526   002924  500B               	movf	memset@s^0,w,c
  4527   002926  26D9               	addwf	fsr2l,f,c
  4528   002928  500C               	movf	(memset@s+1)^0,w,c
  4529   00292A  22DA               	addwfc	fsr2h,f,c
  4530   00292C  C003  FFDF         	movff	memset@c,indf2
  4531   002930  5005               	movf	memset@n^0,w,c
  4532   002932  240B               	addwf	memset@s^0,w,c
  4533   002934  6E07               	movwf	??_memset^0,c
  4534   002936  5006               	movf	(memset@n+1)^0,w,c
  4535   002938  200C               	addwfc	(memset@s+1)^0,w,c
  4536   00293A  6E08               	movwf	(??_memset+1)^0,c
  4537   00293C  0EFE               	movlw	254
  4538   00293E  2407               	addwf	??_memset^0,w,c
  4539   002940  6ED9               	movwf	fsr2l,c
  4540   002942  0EFF               	movlw	255
  4541   002944  2008               	addwfc	(??_memset+1)^0,w,c
  4542   002946  6EDA               	movwf	fsr2h,c
  4543   002948  C003  FFDF         	movff	memset@c,indf2
  4544   00294C  5005               	movf	memset@n^0,w,c
  4545   00294E  240B               	addwf	memset@s^0,w,c
  4546   002950  6E07               	movwf	??_memset^0,c
  4547   002952  5006               	movf	(memset@n+1)^0,w,c
  4548   002954  200C               	addwfc	(memset@s+1)^0,w,c
  4549   002956  6E08               	movwf	(??_memset+1)^0,c
  4550   002958  0EFD               	movlw	253
  4551   00295A  2407               	addwf	??_memset^0,w,c
  4552   00295C  6ED9               	movwf	fsr2l,c
  4553   00295E  0EFF               	movlw	255
  4554   002960  2008               	addwfc	(??_memset+1)^0,w,c
  4555   002962  6EDA               	movwf	fsr2h,c
  4556   002964  C003  FFDF         	movff	memset@c,indf2
  4557   002968  5006               	movf	(memset@n+1)^0,w,c
  4558   00296A  E107               	bnz	u3461
  4559   00296C  0E07               	movlw	7
  4560   00296E  5C05               	subwf	memset@n^0,w,c
  4561   002970  B0D8               	btfsc	status,0,c
  4562   002972  EFBD  F014         	goto	u3461
  4563   002976  EFBF  F014         	goto	u3460
  4564   00297A                     u3461:
  4565   00297A  EFC1  F014         	goto	l3503
  4566   00297E                     u3460:
  4567   00297E  EF12  F015         	goto	l1015
  4568   002982                     l3503:
  4569   002982  EE20 F003          	lfsr	2,3
  4570   002986  500B               	movf	memset@s^0,w,c
  4571   002988  26D9               	addwf	fsr2l,f,c
  4572   00298A  500C               	movf	(memset@s+1)^0,w,c
  4573   00298C  22DA               	addwfc	fsr2h,f,c
  4574   00298E  C003  FFDF         	movff	memset@c,indf2
  4575   002992  5005               	movf	memset@n^0,w,c
  4576   002994  240B               	addwf	memset@s^0,w,c
  4577   002996  6E07               	movwf	??_memset^0,c
  4578   002998  5006               	movf	(memset@n+1)^0,w,c
  4579   00299A  200C               	addwfc	(memset@s+1)^0,w,c
  4580   00299C  6E08               	movwf	(??_memset+1)^0,c
  4581   00299E  0EFC               	movlw	252
  4582   0029A0  2407               	addwf	??_memset^0,w,c
  4583   0029A2  6ED9               	movwf	fsr2l,c
  4584   0029A4  0EFF               	movlw	255
  4585   0029A6  2008               	addwfc	(??_memset+1)^0,w,c
  4586   0029A8  6EDA               	movwf	fsr2h,c
  4587   0029AA  C003  FFDF         	movff	memset@c,indf2
  4588   0029AE  5006               	movf	(memset@n+1)^0,w,c
  4589   0029B0  E107               	bnz	u3471
  4590   0029B2  0E09               	movlw	9
  4591   0029B4  5C05               	subwf	memset@n^0,w,c
  4592   0029B6  B0D8               	btfsc	status,0,c
  4593   0029B8  EFE0  F014         	goto	u3471
  4594   0029BC  EFE2  F014         	goto	u3470
  4595   0029C0                     u3471:
  4596   0029C0  EFE4  F014         	goto	l3509
  4597   0029C4                     u3470:
  4598   0029C4  EF12  F015         	goto	l1015
  4599   0029C8                     l3509:
  4600   0029C8  C00B  F007         	movff	memset@s,??_memset
  4601   0029CC  C00C  F008         	movff	memset@s+1,??_memset+1
  4602   0029D0  1E07               	comf	??_memset^0,f,c
  4603   0029D2  1E08               	comf	(??_memset+1)^0,f,c
  4604   0029D4  4A07               	infsnz	??_memset^0,f,c
  4605   0029D6  2A08               	incf	(??_memset+1)^0,f,c
  4606   0029D8  0E03               	movlw	3
  4607   0029DA  1407               	andwf	??_memset^0,w,c
  4608   0029DC  6E09               	movwf	memset@k^0,c
  4609   0029DE  6A0A               	clrf	(memset@k+1)^0,c
  4610   0029E0  5009               	movf	memset@k^0,w,c
  4611   0029E2  260B               	addwf	memset@s^0,f,c
  4612   0029E4  500A               	movf	(memset@k+1)^0,w,c
  4613   0029E6  220C               	addwfc	(memset@s+1)^0,f,c
  4614   0029E8  5009               	movf	memset@k^0,w,c
  4615   0029EA  5E05               	subwf	memset@n^0,f,c
  4616   0029EC  500A               	movf	(memset@k+1)^0,w,c
  4617   0029EE  5A06               	subwfb	(memset@n+1)^0,f,c
  4618   0029F0  0EFC               	movlw	252
  4619   0029F2  1605               	andwf	memset@n^0,f,c
  4620   0029F4  0EFF               	movlw	255
  4621   0029F6  1606               	andwf	(memset@n+1)^0,f,c
  4622   0029F8  EF09  F015         	goto	l3517
  4623   0029FC                     l3511:
  4624   0029FC  C00B  FFD9         	movff	memset@s,fsr2l
  4625   002A00  C00C  FFDA         	movff	memset@s+1,fsr2h
  4626   002A04  C003  FFDF         	movff	memset@c,indf2
  4627   002A08  0605               	decf	memset@n^0,f,c
  4628   002A0A  A0D8               	btfss	status,0,c
  4629   002A0C  0606               	decf	(memset@n+1)^0,f,c
  4630   002A0E  4A0B               	infsnz	memset@s^0,f,c
  4631   002A10  2A0C               	incf	(memset@s+1)^0,f,c
  4632   002A12                     l3517:
  4633   002A12  5005               	movf	memset@n^0,w,c
  4634   002A14  1006               	iorwf	(memset@n+1)^0,w,c
  4635   002A16  A4D8               	btfss	status,2,c
  4636   002A18  EF10  F015         	goto	u3481
  4637   002A1C  EF12  F015         	goto	u3480
  4638   002A20                     u3481:
  4639   002A20  EFFE  F014         	goto	l3511
  4640   002A24                     u3480:
  4641   002A24                     l1015:
  4642   002A24  0012               	return		;funcret
  4643   002A26                     __end_of_memset:
  4644                           	callstack 0
  4645                           
  4646 ;; *************** function _lcd_8bit_send_string_pos *****************
  4647 ;; Defined at:
  4648 ;;		line 88 in file "ECU_Layer/LCD/ecu_lcd.c"
  4649 ;; Parameters:    Size  Location     Type
  4650 ;;  lcd             2   29[COMRAM] PTR const struct .
  4651 ;;		 -> lcd(10), 
  4652 ;;  row             1   31[COMRAM] unsigned char 
  4653 ;;  colomn          1   32[COMRAM] unsigned char 
  4654 ;;  string          2   33[COMRAM] PTR unsigned char 
  4655 ;;		 -> STR_4(4), STR_3(4), lm35_value_text(4), STR_2(7), 
  4656 ;; Auto vars:     Size  Location     Type
  4657 ;;  ret             1   35[COMRAM] unsigned char 
  4658 ;; Return value:  Size  Location     Type
  4659 ;;                  1    wreg      unsigned char 
  4660 ;; Registers used:
  4661 ;;		wreg, fsr1l, fsr1h, fsr2l, fsr2h, status,2, status,0, tblptrl, tblptrh, tblptru, prodl, prodh, cstack
  4662 ;; Tracked objects:
  4663 ;;		On entry : 0/0
  4664 ;;		On exit  : 0/0
  4665 ;;		Unchanged: 0/0
  4666 ;; Data sizes:     COMRAM   BANK0   BANK1   BANK2   BANK3   BANK4   BANK5   BANK6   BANK7   BANK8   BANK9  BANK10  BANK1
      +1  BANK12  BANK13  BANK14  BANK15
  4667 ;;      Params:         6       0       0       0       0       0       0       0       0       0       0       0       
      +0       0       0       0       0
  4668 ;;      Locals:         1       0       0       0       0       0       0       0       0       0       0       0       
      +0       0       0       0       0
  4669 ;;      Temps:          0       0       0       0       0       0       0       0       0       0       0       0       
      +0       0       0       0       0
  4670 ;;      Totals:         7       0       0       0       0       0       0       0       0       0       0       0       
      +0       0       0       0       0
  4671 ;;Total ram usage:        7 bytes
  4672 ;; Hardware stack levels used: 1
  4673 ;; Hardware stack levels required when called: 4
  4674 ;; This function calls:
  4675 ;;		_lcd_8bit_send_string
  4676 ;;		_lcd_8bit_set_cursor
  4677 ;; This function is called by:
  4678 ;;		_main
  4679 ;; This function uses a non-reentrant model
  4680 ;;
  4681                           
  4682                           	psect	text20
  4683   003F5C                     __ptext20:
  4684                           	callstack 0
  4685   003F5C                     _lcd_8bit_send_string_pos:
  4686                           	callstack 26
  4687   003F5C                     
  4688                           ;ECU_Layer/LCD/ecu_lcd.c: 89:     Std_ReturnType ret = (Std_ReturnType)0x00;
  4689   003F5C  0E00               	movlw	0
  4690   003F5E  6E24               	movwf	lcd_8bit_send_string_pos@ret^0,c
  4691   003F60                     
  4692                           ;ECU_Layer/LCD/ecu_lcd.c: 90:     if(((void*)0) != lcd){
  4693   003F60  501E               	movf	lcd_8bit_send_string_pos@lcd^0,w,c
  4694   003F62  101F               	iorwf	(lcd_8bit_send_string_pos@lcd+1)^0,w,c
  4695   003F64  B4D8               	btfsc	status,2,c
  4696   003F66  EFB7  F01F         	goto	u4191
  4697   003F6A  EFB9  F01F         	goto	u4190
  4698   003F6E                     u4191:
  4699   003F6E  EFCE  F01F         	goto	l3995
  4700   003F72                     u4190:
  4701   003F72  C01E  F017         	movff	lcd_8bit_send_string_pos@lcd,lcd_8bit_set_cursor@lcd
  4702   003F76  C01F  F018         	movff	lcd_8bit_send_string_pos@lcd+1,lcd_8bit_set_cursor@lcd+1
  4703   003F7A  C020  F019         	movff	lcd_8bit_send_string_pos@row,lcd_8bit_set_cursor@row
  4704   003F7E  C021  F01A         	movff	lcd_8bit_send_string_pos@colomn,lcd_8bit_set_cursor@colomn
  4705   003F82  EC8A  F01C         	call	_lcd_8bit_set_cursor	;wreg free
  4706   003F86                     
  4707                           ;ECU_Layer/LCD/ecu_lcd.c: 93:         ret = lcd_8bit_send_string(lcd, string);
  4708   003F86  C01E  F017         	movff	lcd_8bit_send_string_pos@lcd,lcd_8bit_send_string@lcd
  4709   003F8A  C01F  F018         	movff	lcd_8bit_send_string_pos@lcd+1,lcd_8bit_send_string@lcd+1
  4710   003F8E  C022  F019         	movff	lcd_8bit_send_string_pos@string,lcd_8bit_send_string@string
  4711   003F92  C023  F01A         	movff	lcd_8bit_send_string_pos@string+1,lcd_8bit_send_string@string+1
  4712   003F96  ECD7  F01C         	call	_lcd_8bit_send_string	;wreg free
  4713   003F9A  6E24               	movwf	lcd_8bit_send_string_pos@ret^0,c
  4714   003F9C                     l3995:
  4715                           
  4716                           ;ECU_Layer/LCD/ecu_lcd.c: 95:     return ret;
  4717   003F9C  5024               	movf	lcd_8bit_send_string_pos@ret^0,w,c
  4718   003F9E  0012               	return		;funcret
  4719   003FA0                     __end_of_lcd_8bit_send_string_pos:
  4720                           	callstack 0
  4721                           
  4722 ;; *************** function _lcd_8bit_send_string *****************
  4723 ;; Defined at:
  4724 ;;		line 77 in file "ECU_Layer/LCD/ecu_lcd.c"
  4725 ;; Parameters:    Size  Location     Type
  4726 ;;  lcd             2   22[COMRAM] PTR const struct .
  4727 ;;		 -> lcd(10), 
  4728 ;;  string          2   24[COMRAM] PTR unsigned char 
  4729 ;;		 -> STR_4(4), STR_3(4), lm35_value_text(4), STR_2(7), 
  4730 ;;		 -> STR_1(17), 
  4731 ;; Auto vars:     Size  Location     Type
  4732 ;;  ret             1   26[COMRAM] unsigned char 
  4733 ;; Return value:  Size  Location     Type
  4734 ;;                  1    wreg      unsigned char 
  4735 ;; Registers used:
  4736 ;;		wreg, fsr1l, fsr1h, fsr2l, fsr2h, status,2, status,0, tblptrl, tblptrh, tblptru, prodl, prodh, cstack
  4737 ;; Tracked objects:
  4738 ;;		On entry : 0/0
  4739 ;;		On exit  : 0/0
  4740 ;;		Unchanged: 0/0
  4741 ;; Data sizes:     COMRAM   BANK0   BANK1   BANK2   BANK3   BANK4   BANK5   BANK6   BANK7   BANK8   BANK9  BANK10  BANK1
      +1  BANK12  BANK13  BANK14  BANK15
  4742 ;;      Params:         4       0       0       0       0       0       0       0       0       0       0       0       
      +0       0       0       0       0
  4743 ;;      Locals:         1       0       0       0       0       0       0       0       0       0       0       0       
      +0       0       0       0       0
  4744 ;;      Temps:          0       0       0       0       0       0       0       0       0       0       0       0       
      +0       0       0       0       0
  4745 ;;      Totals:         5       0       0       0       0       0       0       0       0       0       0       0       
      +0       0       0       0       0
  4746 ;;Total ram usage:        5 bytes
  4747 ;; Hardware stack levels used: 1
  4748 ;; Hardware stack levels required when called: 3
  4749 ;; This function calls:
  4750 ;;		_lcd_8bit_send_char
  4751 ;; This function is called by:
  4752 ;;		_main
  4753 ;;		_lcd_8bit_send_string_pos
  4754 ;; This function uses a non-reentrant model
  4755 ;;
  4756                           
  4757                           	psect	text21
  4758   0039AE                     __ptext21:
  4759                           	callstack 0
  4760   0039AE                     _lcd_8bit_send_string:
  4761                           	callstack 26
  4762   0039AE                     
  4763                           ;ECU_Layer/LCD/ecu_lcd.c: 78:     Std_ReturnType ret = (Std_ReturnType)0x00;
  4764   0039AE  0E00               	movlw	0
  4765   0039B0  6E1B               	movwf	lcd_8bit_send_string@ret^0,c
  4766   0039B2                     
  4767                           ;ECU_Layer/LCD/ecu_lcd.c: 79:     if(((void*)0) != lcd && ((void*)0) != string){
  4768   0039B2  5017               	movf	lcd_8bit_send_string@lcd^0,w,c
  4769   0039B4  1018               	iorwf	(lcd_8bit_send_string@lcd+1)^0,w,c
  4770   0039B6  B4D8               	btfsc	status,2,c
  4771   0039B8  EFE0  F01C         	goto	u3361
  4772   0039BC  EFE2  F01C         	goto	u3360
  4773   0039C0                     u3361:
  4774   0039C0  EF20  F01D         	goto	l3457
  4775   0039C4                     u3360:
  4776   0039C4  5019               	movf	lcd_8bit_send_string@string^0,w,c
  4777   0039C6  101A               	iorwf	(lcd_8bit_send_string@string+1)^0,w,c
  4778   0039C8  B4D8               	btfsc	status,2,c
  4779   0039CA  EFE9  F01C         	goto	u3371
  4780   0039CE  EFEB  F01C         	goto	u3370
  4781   0039D2                     u3371:
  4782   0039D2  EF20  F01D         	goto	l3457
  4783   0039D6                     u3370:
  4784   0039D6                     
  4785                           ;ECU_Layer/LCD/ecu_lcd.c: 80:         ret = (Std_ReturnType)0x01;
  4786   0039D6  0E01               	movlw	1
  4787   0039D8  6E1B               	movwf	lcd_8bit_send_string@ret^0,c
  4788   0039DA                     l3453:
  4789                           
  4790                           ;ECU_Layer/LCD/ecu_lcd.c: 82:             lcd_8bit_send_char(lcd, *string);
  4791   0039DA  C017  F00E         	movff	lcd_8bit_send_string@lcd,lcd_8bit_send_char@lcd
  4792   0039DE  C018  F00F         	movff	lcd_8bit_send_string@lcd+1,lcd_8bit_send_char@lcd+1
  4793   0039E2  C019  FFF6         	movff	lcd_8bit_send_string@string,tblptrl
  4794   0039E6  C01A  FFF7         	movff	lcd_8bit_send_string@string+1,tblptrh
  4795   0039EA  0E00               	movlw	low (__smallconst shr (0+16))
  4796   0039EC  6EF8               	movwf	tblptru,c
  4797   0039EE  0E0F               	movlw	(high __ramtop+-1)
  4798   0039F0  64F7               	cpfsgt	tblptrh,c
  4799   0039F2  D003               	bra	u3387
  4800   0039F4  0008               	tblrd		*
  4801   0039F6  50F5               	movf	tablat,w,c
  4802   0039F8  D005               	bra	u3380
  4803   0039FA                     u3387:
  4804   0039FA  CFF6 FFE1          	movff	tblptrl,fsr1l
  4805   0039FE  CFF7 FFE2          	movff	tblptrh,fsr1h
  4806   003A02  50E7               	movf	indf1,w,c
  4807   003A04                     u3380:
  4808   003A04  6E10               	movwf	lcd_8bit_send_char@data^0,c
  4809   003A06  EC22  F01D         	call	_lcd_8bit_send_char	;wreg free
  4810   003A0A                     
  4811                           ;ECU_Layer/LCD/ecu_lcd.c: 83:         } while(*(++string));
  4812   003A0A  4A19               	infsnz	lcd_8bit_send_string@string^0,f,c
  4813   003A0C  2A1A               	incf	(lcd_8bit_send_string@string+1)^0,f,c
  4814   003A0E  C019  FFF6         	movff	lcd_8bit_send_string@string,tblptrl
  4815   003A12  C01A  FFF7         	movff	lcd_8bit_send_string@string+1,tblptrh
  4816   003A16  0E00               	movlw	low (__smallconst shr (0+16))
  4817   003A18  6EF8               	movwf	tblptru,c
  4818   003A1A  0E0F               	movlw	(high __ramtop+-1)
  4819   003A1C  64F7               	cpfsgt	tblptrh,c
  4820   003A1E  D003               	bra	u3397
  4821   003A20  0008               	tblrd		*
  4822   003A22  50F5               	movf	tablat,w,c
  4823   003A24  D005               	bra	u3390
  4824   003A26                     u3397:
  4825   003A26  CFF6 FFE1          	movff	tblptrl,fsr1l
  4826   003A2A  CFF7 FFE2          	movff	tblptrh,fsr1h
  4827   003A2E  50E7               	movf	indf1,w,c
  4828   003A30                     u3390:
  4829   003A30  0900               	iorlw	0
  4830   003A32  A4D8               	btfss	status,2,c
  4831   003A34  EF1E  F01D         	goto	u3401
  4832   003A38  EF20  F01D         	goto	u3400
  4833   003A3C                     u3401:
  4834   003A3C  EFED  F01C         	goto	l3453
  4835   003A40                     u3400:
  4836   003A40                     l3457:
  4837                           
  4838                           ;ECU_Layer/LCD/ecu_lcd.c: 85:     return ret;
  4839   003A40  501B               	movf	lcd_8bit_send_string@ret^0,w,c
  4840   003A42  0012               	return		;funcret
  4841   003A44                     __end_of_lcd_8bit_send_string:
  4842                           	callstack 0
  4843                           
  4844 ;; *************** function _lcd_8bit_send_char_pos *****************
  4845 ;; Defined at:
  4846 ;;		line 67 in file "ECU_Layer/LCD/ecu_lcd.c"
  4847 ;; Parameters:    Size  Location     Type
  4848 ;;  lcd             2   29[COMRAM] PTR const struct .
  4849 ;;		 -> lcd(10), 
  4850 ;;  row             1   31[COMRAM] unsigned char 
  4851 ;;  colomn          1   32[COMRAM] unsigned char 
  4852 ;;  data            1   33[COMRAM] unsigned char 
  4853 ;; Auto vars:     Size  Location     Type
  4854 ;;  ret             1   34[COMRAM] unsigned char 
  4855 ;; Return value:  Size  Location     Type
  4856 ;;                  1    wreg      unsigned char 
  4857 ;; Registers used:
  4858 ;;		wreg, fsr2l, fsr2h, status,2, status,0, prodl, prodh, cstack
  4859 ;; Tracked objects:
  4860 ;;		On entry : 0/0
  4861 ;;		On exit  : 0/0
  4862 ;;		Unchanged: 0/0
  4863 ;; Data sizes:     COMRAM   BANK0   BANK1   BANK2   BANK3   BANK4   BANK5   BANK6   BANK7   BANK8   BANK9  BANK10  BANK1
      +1  BANK12  BANK13  BANK14  BANK15
  4864 ;;      Params:         5       0       0       0       0       0       0       0       0       0       0       0       
      +0       0       0       0       0
  4865 ;;      Locals:         1       0       0       0       0       0       0       0       0       0       0       0       
      +0       0       0       0       0
  4866 ;;      Temps:          0       0       0       0       0       0       0       0       0       0       0       0       
      +0       0       0       0       0
  4867 ;;      Totals:         6       0       0       0       0       0       0       0       0       0       0       0       
      +0       0       0       0       0
  4868 ;;Total ram usage:        6 bytes
  4869 ;; Hardware stack levels used: 1
  4870 ;; Hardware stack levels required when called: 4
  4871 ;; This function calls:
  4872 ;;		_lcd_8bit_send_char
  4873 ;;		_lcd_8bit_set_cursor
  4874 ;; This function is called by:
  4875 ;;		_main
  4876 ;; This function uses a non-reentrant model
  4877 ;;
  4878                           
  4879                           	psect	text22
  4880   004020                     __ptext22:
  4881                           	callstack 0
  4882   004020                     _lcd_8bit_send_char_pos:
  4883                           	callstack 26
  4884   004020                     
  4885                           ;ECU_Layer/LCD/ecu_lcd.c: 68:     Std_ReturnType ret = (Std_ReturnType)0x00;
  4886   004020  0E00               	movlw	0
  4887   004022  6E23               	movwf	lcd_8bit_send_char_pos@ret^0,c
  4888   004024                     
  4889                           ;ECU_Layer/LCD/ecu_lcd.c: 69:     if(((void*)0) != lcd){
  4890   004024  501E               	movf	lcd_8bit_send_char_pos@lcd^0,w,c
  4891   004026  101F               	iorwf	(lcd_8bit_send_char_pos@lcd+1)^0,w,c
  4892   004028  B4D8               	btfsc	status,2,c
  4893   00402A  EF19  F020         	goto	u4201
  4894   00402E  EF1B  F020         	goto	u4200
  4895   004032                     u4201:
  4896   004032  EF2E  F020         	goto	l305
  4897   004036                     u4200:
  4898   004036  C01E  F017         	movff	lcd_8bit_send_char_pos@lcd,lcd_8bit_set_cursor@lcd
  4899   00403A  C01F  F018         	movff	lcd_8bit_send_char_pos@lcd+1,lcd_8bit_set_cursor@lcd+1
  4900   00403E  C020  F019         	movff	lcd_8bit_send_char_pos@row,lcd_8bit_set_cursor@row
  4901   004042  C021  F01A         	movff	lcd_8bit_send_char_pos@colomn,lcd_8bit_set_cursor@colomn
  4902   004046  EC8A  F01C         	call	_lcd_8bit_set_cursor	;wreg free
  4903   00404A                     
  4904                           ;ECU_Layer/LCD/ecu_lcd.c: 72:         ret = lcd_8bit_send_char(lcd, data);
  4905   00404A  C01E  F00E         	movff	lcd_8bit_send_char_pos@lcd,lcd_8bit_send_char@lcd
  4906   00404E  C01F  F00F         	movff	lcd_8bit_send_char_pos@lcd+1,lcd_8bit_send_char@lcd+1
  4907   004052  C022  F010         	movff	lcd_8bit_send_char_pos@data,lcd_8bit_send_char@data
  4908   004056  EC22  F01D         	call	_lcd_8bit_send_char	;wreg free
  4909   00405A  6E23               	movwf	lcd_8bit_send_char_pos@ret^0,c
  4910   00405C                     l305:
  4911                           
  4912                           ;ECU_Layer/LCD/ecu_lcd.c: 74:     return ret;
  4913   00405C  5023               	movf	lcd_8bit_send_char_pos@ret^0,w,c
  4914   00405E  0012               	return		;funcret
  4915   004060                     __end_of_lcd_8bit_send_char_pos:
  4916                           	callstack 0
  4917                           
  4918 ;; *************** function _lcd_8bit_set_cursor *****************
  4919 ;; Defined at:
  4920 ;;		line 109 in file "ECU_Layer/LCD/ecu_lcd.c"
  4921 ;; Parameters:    Size  Location     Type
  4922 ;;  lcd             2   22[COMRAM] PTR const struct .
  4923 ;;		 -> lcd(10), 
  4924 ;;  row             1   24[COMRAM] unsigned char 
  4925 ;;  colomn          1   25[COMRAM] unsigned char 
  4926 ;; Auto vars:     Size  Location     Type
  4927 ;;  ret             1   28[COMRAM] unsigned char 
  4928 ;; Return value:  Size  Location     Type
  4929 ;;                  1    wreg      unsigned char 
  4930 ;; Registers used:
  4931 ;;		wreg, fsr2l, fsr2h, status,2, status,0, prodl, prodh, cstack
  4932 ;; Tracked objects:
  4933 ;;		On entry : 0/0
  4934 ;;		On exit  : 0/0
  4935 ;;		Unchanged: 0/0
  4936 ;; Data sizes:     COMRAM   BANK0   BANK1   BANK2   BANK3   BANK4   BANK5   BANK6   BANK7   BANK8   BANK9  BANK10  BANK1
      +1  BANK12  BANK13  BANK14  BANK15
  4937 ;;      Params:         4       0       0       0       0       0       0       0       0       0       0       0       
      +0       0       0       0       0
  4938 ;;      Locals:         1       0       0       0       0       0       0       0       0       0       0       0       
      +0       0       0       0       0
  4939 ;;      Temps:          2       0       0       0       0       0       0       0       0       0       0       0       
      +0       0       0       0       0
  4940 ;;      Totals:         7       0       0       0       0       0       0       0       0       0       0       0       
      +0       0       0       0       0
  4941 ;;Total ram usage:        7 bytes
  4942 ;; Hardware stack levels used: 1
  4943 ;; Hardware stack levels required when called: 3
  4944 ;; This function calls:
  4945 ;;		_lcd_8bit_send_command
  4946 ;; This function is called by:
  4947 ;;		_lcd_8bit_send_char_pos
  4948 ;;		_lcd_8bit_send_string_pos
  4949 ;; This function uses a non-reentrant model
  4950 ;;
  4951                           
  4952                           	psect	text23
  4953   003914                     __ptext23:
  4954                           	callstack 0
  4955   003914                     _lcd_8bit_set_cursor:
  4956                           	callstack 26
  4957   003914                     
  4958                           ;ECU_Layer/LCD/ecu_lcd.c: 110:     Std_ReturnType ret = (Std_ReturnType)0x00;
  4959   003914  0E00               	movlw	0
  4960   003916  6E1D               	movwf	lcd_8bit_set_cursor@ret^0,c
  4961   003918                     
  4962                           ;ECU_Layer/LCD/ecu_lcd.c: 111:     if(((void*)0) != lcd && row <= 2 && colomn <= 16){
  4963   003918  5017               	movf	lcd_8bit_set_cursor@lcd^0,w,c
  4964   00391A  1018               	iorwf	(lcd_8bit_set_cursor@lcd+1)^0,w,c
  4965   00391C  B4D8               	btfsc	status,2,c
  4966   00391E  EF93  F01C         	goto	u3411
  4967   003922  EF95  F01C         	goto	u3410
  4968   003926                     u3411:
  4969   003926  EFD5  F01C         	goto	l3479
  4970   00392A                     u3410:
  4971   00392A  0E03               	movlw	3
  4972   00392C  6019               	cpfslt	lcd_8bit_set_cursor@row^0,c
  4973   00392E  EF9B  F01C         	goto	u3421
  4974   003932  EF9D  F01C         	goto	u3420
  4975   003936                     u3421:
  4976   003936  EFD5  F01C         	goto	l3479
  4977   00393A                     u3420:
  4978   00393A  0E11               	movlw	17
  4979   00393C  601A               	cpfslt	lcd_8bit_set_cursor@colomn^0,c
  4980   00393E  EFA3  F01C         	goto	u3431
  4981   003942  EFA5  F01C         	goto	u3430
  4982   003946                     u3431:
  4983   003946  EFD5  F01C         	goto	l3479
  4984   00394A                     u3430:
  4985   00394A                     
  4986                           ;ECU_Layer/LCD/ecu_lcd.c: 112:         colomn--;
  4987   00394A  061A               	decf	lcd_8bit_set_cursor@colomn^0,f,c
  4988                           
  4989                           ;ECU_Layer/LCD/ecu_lcd.c: 113:         switch(row){
  4990   00394C  EFC0  F01C         	goto	l3477
  4991   003950                     l3471:
  4992   003950  C017  F00E         	movff	lcd_8bit_set_cursor@lcd,lcd_8bit_send_command@lcd
  4993   003954  C018  F00F         	movff	lcd_8bit_set_cursor@lcd+1,lcd_8bit_send_command@lcd+1
  4994   003958  501A               	movf	lcd_8bit_set_cursor@colomn^0,w,c
  4995   00395A  0F80               	addlw	128
  4996   00395C  6E10               	movwf	lcd_8bit_send_command@command^0,c
  4997   00395E  EC66  F01D         	call	_lcd_8bit_send_command	;wreg free
  4998   003962  6E1D               	movwf	lcd_8bit_set_cursor@ret^0,c
  4999   003964  EFD5  F01C         	goto	l3479
  5000   003968                     l3473:
  5001   003968  C017  F00E         	movff	lcd_8bit_set_cursor@lcd,lcd_8bit_send_command@lcd
  5002   00396C  C018  F00F         	movff	lcd_8bit_set_cursor@lcd+1,lcd_8bit_send_command@lcd+1
  5003   003970  501A               	movf	lcd_8bit_set_cursor@colomn^0,w,c
  5004   003972  0FC0               	addlw	192
  5005   003974  6E10               	movwf	lcd_8bit_send_command@command^0,c
  5006   003976  EC66  F01D         	call	_lcd_8bit_send_command	;wreg free
  5007   00397A  6E1D               	movwf	lcd_8bit_set_cursor@ret^0,c
  5008   00397C  EFD5  F01C         	goto	l3479
  5009   003980                     l3477:
  5010   003980  5019               	movf	lcd_8bit_set_cursor@row^0,w,c
  5011   003982  6E1B               	movwf	??_lcd_8bit_set_cursor^0,c
  5012   003984  6A1C               	clrf	(??_lcd_8bit_set_cursor+1)^0,c
  5013                           
  5014                           ; Switch on 2 bytes has been partitioned into a top level switch of size 1, and 1 sub-sw
      +                          itches
  5015                           ; Switch size 1, requested type "simple"
  5016                           ; Number of cases is 1, Range of values is 0 to 0
  5017                           ; switch strategies available:
  5018                           ; Name         Instructions Cycles
  5019                           ; simple_byte            4     3 (average)
  5020                           ;	Chosen strategy is simple_byte
  5021   003986  501C               	movf	(??_lcd_8bit_set_cursor+1)^0,w,c
  5022   003988  0A00               	xorlw	0	; case 0
  5023   00398A  B4D8               	btfsc	status,2,c
  5024   00398C  EFCA  F01C         	goto	l4217
  5025   003990  EFD5  F01C         	goto	l3479
  5026   003994                     l4217:
  5027                           
  5028                           ; Switch size 1, requested type "simple"
  5029                           ; Number of cases is 2, Range of values is 1 to 2
  5030                           ; switch strategies available:
  5031                           ; Name         Instructions Cycles
  5032                           ; simple_byte            7     4 (average)
  5033                           ;	Chosen strategy is simple_byte
  5034   003994  501B               	movf	??_lcd_8bit_set_cursor^0,w,c
  5035   003996  0A01               	xorlw	1	; case 1
  5036   003998  B4D8               	btfsc	status,2,c
  5037   00399A  EFA8  F01C         	goto	l3471
  5038   00399E  0A03               	xorlw	3	; case 2
  5039   0039A0  B4D8               	btfsc	status,2,c
  5040   0039A2  EFB4  F01C         	goto	l3473
  5041   0039A6  EFD5  F01C         	goto	l3479
  5042   0039AA                     l3479:
  5043                           
  5044                           ;ECU_Layer/LCD/ecu_lcd.c: 119:     return ret;
  5045   0039AA  501D               	movf	lcd_8bit_set_cursor@ret^0,w,c
  5046   0039AC  0012               	return		;funcret
  5047   0039AE                     __end_of_lcd_8bit_set_cursor:
  5048                           	callstack 0
  5049                           
  5050 ;; *************** function _lcd_8bit_send_char *****************
  5051 ;; Defined at:
  5052 ;;		line 54 in file "ECU_Layer/LCD/ecu_lcd.c"
  5053 ;; Parameters:    Size  Location     Type
  5054 ;;  lcd             2   13[COMRAM] PTR const struct .
  5055 ;;		 -> lcd(10), 
  5056 ;;  data            1   15[COMRAM] unsigned char 
  5057 ;; Auto vars:     Size  Location     Type
  5058 ;;  line_data_pi    1   21[COMRAM] unsigned char 
  5059 ;;  ret             1   20[COMRAM] unsigned char 
  5060 ;; Return value:  Size  Location     Type
  5061 ;;                  1    wreg      unsigned char 
  5062 ;; Registers used:
  5063 ;;		wreg, fsr2l, fsr2h, status,2, status,0, prodl, prodh, cstack
  5064 ;; Tracked objects:
  5065 ;;		On entry : 0/0
  5066 ;;		On exit  : 0/0
  5067 ;;		Unchanged: 0/0
  5068 ;; Data sizes:     COMRAM   BANK0   BANK1   BANK2   BANK3   BANK4   BANK5   BANK6   BANK7   BANK8   BANK9  BANK10  BANK1
      +1  BANK12  BANK13  BANK14  BANK15
  5069 ;;      Params:         3       0       0       0       0       0       0       0       0       0       0       0       
      +0       0       0       0       0
  5070 ;;      Locals:         2       0       0       0       0       0       0       0       0       0       0       0       
      +0       0       0       0       0
  5071 ;;      Temps:          4       0       0       0       0       0       0       0       0       0       0       0       
      +0       0       0       0       0
  5072 ;;      Totals:         9       0       0       0       0       0       0       0       0       0       0       0       
      +0       0       0       0       0
  5073 ;;Total ram usage:        9 bytes
  5074 ;; Hardware stack levels used: 1
  5075 ;; Hardware stack levels required when called: 2
  5076 ;; This function calls:
  5077 ;;		_gpio_pin_write_logic
  5078 ;;		_send_8bit_enable_signal
  5079 ;; This function is called by:
  5080 ;;		_lcd_8bit_send_char_pos
  5081 ;;		_lcd_8bit_send_string
  5082 ;; This function uses a non-reentrant model
  5083 ;;
  5084                           
  5085                           	psect	text24
  5086   003A44                     __ptext24:
  5087                           	callstack 0
  5088   003A44                     _lcd_8bit_send_char:
  5089                           	callstack 26
  5090   003A44                     
  5091                           ;ECU_Layer/LCD/ecu_lcd.c: 55:     Std_ReturnType ret = (Std_ReturnType)0x00;
  5092   003A44  0E00               	movlw	0
  5093   003A46  6E15               	movwf	lcd_8bit_send_char@ret^0,c
  5094   003A48                     
  5095                           ;ECU_Layer/LCD/ecu_lcd.c: 56:     if(((void*)0) != lcd){
  5096   003A48  500E               	movf	lcd_8bit_send_char@lcd^0,w,c
  5097   003A4A  100F               	iorwf	(lcd_8bit_send_char@lcd+1)^0,w,c
  5098   003A4C  B4D8               	btfsc	status,2,c
  5099   003A4E  EF2B  F01D         	goto	u2861
  5100   003A52  EF2D  F01D         	goto	u2860
  5101   003A56                     u2861:
  5102   003A56  EF64  F01D         	goto	l3161
  5103   003A5A                     u2860:
  5104   003A5A  C00E  F001         	movff	lcd_8bit_send_char@lcd,gpio_pin_write_logic@_pin_config
  5105   003A5E  C00F  F002         	movff	lcd_8bit_send_char@lcd+1,gpio_pin_write_logic@_pin_config+1
  5106   003A62  0E01               	movlw	1
  5107   003A64  6E03               	movwf	gpio_pin_write_logic@logic^0,c
  5108   003A66  EC0D  F017         	call	_gpio_pin_write_logic	;wreg free
  5109   003A6A                     
  5110                           ;ECU_Layer/LCD/ecu_lcd.c: 59:         for(uint8 line_data_pin = 0 ; line_data_pin < 8 ; 
      +                          line_data_pin++){
  5111   003A6A  0E00               	movlw	0
  5112   003A6C  6E16               	movwf	lcd_8bit_send_char@line_data_pin^0,c
  5113   003A6E                     l3153:
  5114   003A6E  5016               	movf	lcd_8bit_send_char@line_data_pin^0,w,c
  5115   003A70  240E               	addwf	lcd_8bit_send_char@lcd^0,w,c
  5116   003A72  6E11               	movwf	??_lcd_8bit_send_char^0,c
  5117   003A74  0E00               	movlw	0
  5118   003A76  200F               	addwfc	(lcd_8bit_send_char@lcd+1)^0,w,c
  5119   003A78  6E12               	movwf	(??_lcd_8bit_send_char+1)^0,c
  5120   003A7A  0E02               	movlw	2
  5121   003A7C  2411               	addwf	??_lcd_8bit_send_char^0,w,c
  5122   003A7E  6E01               	movwf	gpio_pin_write_logic@_pin_config^0,c
  5123   003A80  0E00               	movlw	0
  5124   003A82  2012               	addwfc	(??_lcd_8bit_send_char+1)^0,w,c
  5125   003A84  6E02               	movwf	(gpio_pin_write_logic@_pin_config+1)^0,c
  5126   003A86  C016  F013         	movff	lcd_8bit_send_char@line_data_pin,??_lcd_8bit_send_char+2
  5127   003A8A  C010  F014         	movff	lcd_8bit_send_char@data,??_lcd_8bit_send_char+3
  5128   003A8E  2A13               	incf	(??_lcd_8bit_send_char+2)^0,f,c
  5129   003A90  EF4C  F01D         	goto	u2874
  5130   003A94                     u2875:
  5131   003A94  90D8               	bcf	status,0,c
  5132   003A96  3214               	rrcf	(??_lcd_8bit_send_char+3)^0,f,c
  5133   003A98                     u2874:
  5134   003A98  2E13               	decfsz	(??_lcd_8bit_send_char+2)^0,f,c
  5135   003A9A  EF4A  F01D         	goto	u2875
  5136   003A9E  5014               	movf	(??_lcd_8bit_send_char+3)^0,w,c
  5137   003AA0  0B01               	andlw	1
  5138   003AA2  6E03               	movwf	gpio_pin_write_logic@logic^0,c
  5139   003AA4  EC0D  F017         	call	_gpio_pin_write_logic	;wreg free
  5140   003AA8                     
  5141                           ;ECU_Layer/LCD/ecu_lcd.c: 61:         }
  5142   003AA8  2A16               	incf	lcd_8bit_send_char@line_data_pin^0,f,c
  5143   003AAA  0E07               	movlw	7
  5144   003AAC  6416               	cpfsgt	lcd_8bit_send_char@line_data_pin^0,c
  5145   003AAE  EF5B  F01D         	goto	u2881
  5146   003AB2  EF5D  F01D         	goto	u2880
  5147   003AB6                     u2881:
  5148   003AB6  EF37  F01D         	goto	l3153
  5149   003ABA                     u2880:
  5150   003ABA                     
  5151                           ;ECU_Layer/LCD/ecu_lcd.c: 62:         ret = send_8bit_enable_signal(lcd);
  5152   003ABA  C00E  F00B         	movff	lcd_8bit_send_char@lcd,send_8bit_enable_signal@lcd
  5153   003ABE  C00F  F00C         	movff	lcd_8bit_send_char@lcd+1,send_8bit_enable_signal@lcd+1
  5154   003AC2  EC44  F01F         	call	_send_8bit_enable_signal	;wreg free
  5155   003AC6  6E15               	movwf	lcd_8bit_send_char@ret^0,c
  5156   003AC8                     l3161:
  5157                           
  5158                           ;ECU_Layer/LCD/ecu_lcd.c: 64:     return ret;
  5159   003AC8  5015               	movf	lcd_8bit_send_char@ret^0,w,c
  5160   003ACA  0012               	return		;funcret
  5161   003ACC                     __end_of_lcd_8bit_send_char:
  5162                           	callstack 0
  5163                           
  5164 ;; *************** function _application_intialize *****************
  5165 ;; Defined at:
  5166 ;;		line 77 in file "application.c"
  5167 ;; Parameters:    Size  Location     Type
  5168 ;;		None
  5169 ;; Auto vars:     Size  Location     Type
  5170 ;;  ret             1   38[COMRAM] unsigned char 
  5171 ;; Return value:  Size  Location     Type
  5172 ;;                  1    wreg      unsigned char 
  5173 ;; Registers used:
  5174 ;;		wreg, fsr2l, fsr2h, status,2, status,0, prodl, prodh, cstack
  5175 ;; Tracked objects:
  5176 ;;		On entry : 0/0
  5177 ;;		On exit  : 0/0
  5178 ;;		Unchanged: 0/0
  5179 ;; Data sizes:     COMRAM   BANK0   BANK1   BANK2   BANK3   BANK4   BANK5   BANK6   BANK7   BANK8   BANK9  BANK10  BANK1
      +1  BANK12  BANK13  BANK14  BANK15
  5180 ;;      Params:         0       0       0       0       0       0       0       0       0       0       0       0       
      +0       0       0       0       0
  5181 ;;      Locals:         1       0       0       0       0       0       0       0       0       0       0       0       
      +0       0       0       0       0
  5182 ;;      Temps:          0       0       0       0       0       0       0       0       0       0       0       0       
      +0       0       0       0       0
  5183 ;;      Totals:         1       0       0       0       0       0       0       0       0       0       0       0       
      +0       0       0       0       0
  5184 ;;Total ram usage:        1 bytes
  5185 ;; Hardware stack levels used: 1
  5186 ;; Hardware stack levels required when called: 5
  5187 ;; This function calls:
  5188 ;;		_ecu_layer_int
  5189 ;;		_mcal_layer_int
  5190 ;; This function is called by:
  5191 ;;		_main
  5192 ;; This function uses a non-reentrant model
  5193 ;;
  5194                           
  5195                           	psect	text25
  5196   00419E                     __ptext25:
  5197                           	callstack 0
  5198   00419E                     _application_intialize:
  5199                           	callstack 25
  5200   00419E  ECC0  F020         	call	_ecu_layer_int	;wreg free
  5201   0041A2                     
  5202                           ;application.c: 81:     ret = mcal_layer_int();
  5203   0041A2  EC9B  F020         	call	_mcal_layer_int	;wreg free
  5204   0041A6  6E27               	movwf	application_intialize@ret^0,c
  5205   0041A8                     
  5206                           ;application.c: 83:     return ret;
  5207   0041A8  5027               	movf	application_intialize@ret^0,w,c
  5208   0041AA  0012               	return		;funcret
  5209   0041AC                     __end_of_application_intialize:
  5210                           	callstack 0
  5211                           
  5212 ;; *************** function _mcal_layer_int *****************
  5213 ;; Defined at:
  5214 ;;		line 34 in file "MCAL_Layer/mcal_layer_intialize.c"
  5215 ;; Parameters:    Size  Location     Type
  5216 ;;		None
  5217 ;; Auto vars:     Size  Location     Type
  5218 ;;  ret             1   37[COMRAM] unsigned char 
  5219 ;; Return value:  Size  Location     Type
  5220 ;;                  1    wreg      unsigned char 
  5221 ;; Registers used:
  5222 ;;		wreg, fsr2l, fsr2h, status,2, status,0, cstack
  5223 ;; Tracked objects:
  5224 ;;		On entry : 0/0
  5225 ;;		On exit  : 0/0
  5226 ;;		Unchanged: 0/0
  5227 ;; Data sizes:     COMRAM   BANK0   BANK1   BANK2   BANK3   BANK4   BANK5   BANK6   BANK7   BANK8   BANK9  BANK10  BANK1
      +1  BANK12  BANK13  BANK14  BANK15
  5228 ;;      Params:         0       0       0       0       0       0       0       0       0       0       0       0       
      +0       0       0       0       0
  5229 ;;      Locals:         1       0       0       0       0       0       0       0       0       0       0       0       
      +0       0       0       0       0
  5230 ;;      Temps:          0       0       0       0       0       0       0       0       0       0       0       0       
      +0       0       0       0       0
  5231 ;;      Totals:         1       0       0       0       0       0       0       0       0       0       0       0       
      +0       0       0       0       0
  5232 ;;Total ram usage:        1 bytes
  5233 ;; Hardware stack levels used: 1
  5234 ;; Hardware stack levels required when called: 2
  5235 ;; This function calls:
  5236 ;;		_ADC_intialize
  5237 ;;		_CCP1_PWM_Intialize
  5238 ;;		_timer2_intialize
  5239 ;; This function is called by:
  5240 ;;		_application_intialize
  5241 ;; This function uses a non-reentrant model
  5242 ;;
  5243                           
  5244                           	psect	text26
  5245   004136                     __ptext26:
  5246                           	callstack 0
  5247   004136                     _mcal_layer_int:
  5248                           	callstack 27
  5249   004136  0EAE               	movlw	low _adc
  5250   004138  6E05               	movwf	ADC_intialize@_adc^0,c
  5251   00413A  0E00               	movlw	high _adc
  5252   00413C  6E06               	movwf	(ADC_intialize@_adc+1)^0,c
  5253   00413E  EC1E  F01B         	call	_ADC_intialize	;wreg free
  5254   004142  0EA8               	movlw	low _pwm
  5255   004144  6E1A               	movwf	CCP1_PWM_Intialize@pwm^0,c
  5256   004146  0E00               	movlw	high _pwm
  5257   004148  6E1B               	movwf	(CCP1_PWM_Intialize@pwm+1)^0,c
  5258   00414A  ECC7  F019         	call	_CCP1_PWM_Intialize	;wreg free
  5259   00414E                     
  5260                           ;MCAL_Layer/mcal_layer_intialize.c: 39:     ret = timer2_intialize(&timer2);
  5261   00414E  0EDA               	movlw	low _timer2
  5262   004150  6E01               	movwf	timer2_intialize@_timer^0,c
  5263   004152  0E00               	movlw	high _timer2
  5264   004154  6E02               	movwf	(timer2_intialize@_timer+1)^0,c
  5265   004156  ECE7  F01D         	call	_timer2_intialize	;wreg free
  5266   00415A  6E26               	movwf	mcal_layer_int@ret^0,c
  5267   00415C                     
  5268                           ;MCAL_Layer/mcal_layer_intialize.c: 41:     return ret;
  5269   00415C  5026               	movf	mcal_layer_int@ret^0,w,c
  5270   00415E  0012               	return		;funcret
  5271   004160                     __end_of_mcal_layer_int:
  5272                           	callstack 0
  5273                           
  5274 ;; *************** function _timer2_intialize *****************
  5275 ;; Defined at:
  5276 ;;		line 12 in file "MCAL_Layer/Timer2/hal_timer2.c"
  5277 ;; Parameters:    Size  Location     Type
  5278 ;;  _timer          2    0[COMRAM] PTR const struct .
  5279 ;;		 -> timer2(3), 
  5280 ;; Auto vars:     Size  Location     Type
  5281 ;;  ret             1    3[COMRAM] unsigned char 
  5282 ;; Return value:  Size  Location     Type
  5283 ;;                  1    wreg      unsigned char 
  5284 ;; Registers used:
  5285 ;;		wreg, fsr2l, fsr2h, status,2, status,0
  5286 ;; Tracked objects:
  5287 ;;		On entry : 0/0
  5288 ;;		On exit  : 0/0
  5289 ;;		Unchanged: 0/0
  5290 ;; Data sizes:     COMRAM   BANK0   BANK1   BANK2   BANK3   BANK4   BANK5   BANK6   BANK7   BANK8   BANK9  BANK10  BANK1
      +1  BANK12  BANK13  BANK14  BANK15
  5291 ;;      Params:         2       0       0       0       0       0       0       0       0       0       0       0       
      +0       0       0       0       0
  5292 ;;      Locals:         1       0       0       0       0       0       0       0       0       0       0       0       
      +0       0       0       0       0
  5293 ;;      Temps:          1       0       0       0       0       0       0       0       0       0       0       0       
      +0       0       0       0       0
  5294 ;;      Totals:         4       0       0       0       0       0       0       0       0       0       0       0       
      +0       0       0       0       0
  5295 ;;Total ram usage:        4 bytes
  5296 ;; Hardware stack levels used: 1
  5297 ;; This function calls:
  5298 ;;		Nothing
  5299 ;; This function is called by:
  5300 ;;		_mcal_layer_int
  5301 ;; This function uses a non-reentrant model
  5302 ;;
  5303                           
  5304                           	psect	text27
  5305   003BCE                     __ptext27:
  5306                           	callstack 0
  5307   003BCE                     _timer2_intialize:
  5308                           	callstack 28
  5309   003BCE                     
  5310                           ;MCAL_Layer/Timer2/hal_timer2.c: 13:     Std_ReturnType ret = (Std_ReturnType)0x00;
  5311   003BCE  0E00               	movlw	0
  5312   003BD0  6E04               	movwf	timer2_intialize@ret^0,c
  5313   003BD2                     
  5314                           ;MCAL_Layer/Timer2/hal_timer2.c: 14:     if(((void*)0) != _timer){
  5315   003BD2  5001               	movf	timer2_intialize@_timer^0,w,c
  5316   003BD4  1002               	iorwf	(timer2_intialize@_timer+1)^0,w,c
  5317   003BD6  B4D8               	btfsc	status,2,c
  5318   003BD8  EFF0  F01D         	goto	u2851
  5319   003BDC  EFF2  F01D         	goto	u2850
  5320   003BE0                     u2851:
  5321   003BE0  EF1F  F01E         	goto	l192
  5322   003BE4                     u2850:
  5323   003BE4                     
  5324                           ;MCAL_Layer/Timer2/hal_timer2.c: 15:         ret = (Std_ReturnType)0x01;
  5325   003BE4  0E01               	movlw	1
  5326   003BE6  6E04               	movwf	timer2_intialize@ret^0,c
  5327   003BE8                     
  5328                           ;MCAL_Layer/Timer2/hal_timer2.c: 18:         (T2CONbits.TMR2ON = 0);
  5329   003BE8  94CA               	bcf	202,2,c	;volatile
  5330   003BEA                     
  5331                           ;MCAL_Layer/Timer2/hal_timer2.c: 21:         (T2CONbits.T2CKPS = _timer->prescaler_value
      +                          );
  5332   003BEA  EE20 F002          	lfsr	2,2
  5333   003BEE  5001               	movf	timer2_intialize@_timer^0,w,c
  5334   003BF0  26D9               	addwf	fsr2l,f,c
  5335   003BF2  5002               	movf	(timer2_intialize@_timer+1)^0,w,c
  5336   003BF4  22DA               	addwfc	fsr2h,f,c
  5337   003BF6  50DF               	movf	indf2,w,c
  5338   003BF8  6E03               	movwf	??_timer2_intialize^0,c
  5339   003BFA  50CA               	movf	202,w,c	;volatile
  5340   003BFC  1803               	xorwf	??_timer2_intialize^0,w,c
  5341   003BFE  0BFC               	andlw	-4
  5342   003C00  1803               	xorwf	??_timer2_intialize^0,w,c
  5343   003C02  6ECA               	movwf	202,c	;volatile
  5344   003C04                     
  5345                           ;MCAL_Layer/Timer2/hal_timer2.c: 24:         (T2CONbits.TOUTPS = _timer->postscaler_valu
      +                          e);
  5346   003C04  EE20 F001          	lfsr	2,1
  5347   003C08  5001               	movf	timer2_intialize@_timer^0,w,c
  5348   003C0A  26D9               	addwf	fsr2l,f,c
  5349   003C0C  5002               	movf	(timer2_intialize@_timer+1)^0,w,c
  5350   003C0E  22DA               	addwfc	fsr2h,f,c
  5351   003C10  50DF               	movf	indf2,w,c
  5352   003C12  6E03               	movwf	??_timer2_intialize^0,c
  5353   003C14  4603               	rlncf	??_timer2_intialize^0,f,c
  5354   003C16  4603               	rlncf	??_timer2_intialize^0,f,c
  5355   003C18  4603               	rlncf	??_timer2_intialize^0,f,c
  5356   003C1A  50CA               	movf	202,w,c	;volatile
  5357   003C1C  1803               	xorwf	??_timer2_intialize^0,w,c
  5358   003C1E  0B87               	andlw	-121
  5359   003C20  1803               	xorwf	??_timer2_intialize^0,w,c
  5360   003C22  6ECA               	movwf	202,c	;volatile
  5361   003C24                     
  5362                           ;MCAL_Layer/Timer2/hal_timer2.c: 27:         (TMR2 = _timer->preload_value);
  5363   003C24  C001  FFD9         	movff	timer2_intialize@_timer,fsr2l
  5364   003C28  C002  FFDA         	movff	timer2_intialize@_timer+1,fsr2h
  5365   003C2C  50DF               	movf	indf2,w,c
  5366   003C2E  6ECC               	movwf	204,c	;volatile
  5367   003C30                     
  5368                           ;MCAL_Layer/Timer2/hal_timer2.c: 28:         tmr2_preload_value = _timer->preload_value;
  5369   003C30  C001  FFD9         	movff	timer2_intialize@_timer,fsr2l
  5370   003C34  C002  FFDA         	movff	timer2_intialize@_timer+1,fsr2h
  5371   003C38  50DF               	movf	indf2,w,c
  5372   003C3A  6E77               	movwf	_tmr2_preload_value^0,c
  5373   003C3C                     
  5374                           ;MCAL_Layer/Timer2/hal_timer2.c: 31:         (T2CONbits.TMR2ON = 1);
  5375   003C3C  84CA               	bsf	202,2,c	;volatile
  5376   003C3E                     l192:
  5377                           
  5378                           ;MCAL_Layer/Timer2/hal_timer2.c: 33:     return ret;
  5379   003C3E  5004               	movf	timer2_intialize@ret^0,w,c
  5380   003C40  0012               	return		;funcret
  5381   003C42                     __end_of_timer2_intialize:
  5382                           	callstack 0
  5383                           
  5384 ;; *************** function _CCP1_PWM_Intialize *****************
  5385 ;; Defined at:
  5386 ;;		line 11 in file "MCAL_Layer/PWM/hal_pwm.c"
  5387 ;; Parameters:    Size  Location     Type
  5388 ;;  pwm             2   25[COMRAM] PTR const struct .
  5389 ;;		 -> pwm(6), 
  5390 ;; Auto vars:     Size  Location     Type
  5391 ;;  ret             1   36[COMRAM] unsigned char 
  5392 ;; Return value:  Size  Location     Type
  5393 ;;                  1    wreg      unsigned char 
  5394 ;; Registers used:
  5395 ;;		wreg, fsr2l, fsr2h, status,2, status,0, cstack
  5396 ;; Tracked objects:
  5397 ;;		On entry : 0/0
  5398 ;;		On exit  : 0/0
  5399 ;;		Unchanged: 0/0
  5400 ;; Data sizes:     COMRAM   BANK0   BANK1   BANK2   BANK3   BANK4   BANK5   BANK6   BANK7   BANK8   BANK9  BANK10  BANK1
      +1  BANK12  BANK13  BANK14  BANK15
  5401 ;;      Params:         2       0       0       0       0       0       0       0       0       0       0       0       
      +0       0       0       0       0
  5402 ;;      Locals:         5       0       0       0       0       0       0       0       0       0       0       0       
      +0       0       0       0       0
  5403 ;;      Temps:          5       0       0       0       0       0       0       0       0       0       0       0       
      +0       0       0       0       0
  5404 ;;      Totals:        12       0       0       0       0       0       0       0       0       0       0       0       
      +0       0       0       0       0
  5405 ;;Total ram usage:       12 bytes
  5406 ;; Hardware stack levels used: 1
  5407 ;; Hardware stack levels required when called: 1
  5408 ;; This function calls:
  5409 ;;		___lldiv
  5410 ;;		___lmul
  5411 ;; This function is called by:
  5412 ;;		_mcal_layer_int
  5413 ;; This function uses a non-reentrant model
  5414 ;;
  5415                           
  5416                           	psect	text28
  5417   00338E                     __ptext28:
  5418                           	callstack 0
  5419   00338E                     _CCP1_PWM_Intialize:
  5420                           	callstack 27
  5421   00338E                     
  5422                           ;MCAL_Layer/PWM/hal_pwm.c: 11: Std_ReturnType CCP1_PWM_Intialize(const pwm_t *pwm);MCAL_
      +                          Layer/PWM/hal_pwm.c: 12: {;MCAL_Layer/PWM/hal_pwm.c: 13:     Std_ReturnType ret = (Std_R
      +                          eturnType)0x00;
  5423   00338E  0E00               	movlw	0
  5424   003390  6E25               	movwf	CCP1_PWM_Intialize@ret^0,c
  5425   003392                     
  5426                           ;MCAL_Layer/PWM/hal_pwm.c: 14:     if(((void*)0) != pwm){
  5427   003392  501A               	movf	CCP1_PWM_Intialize@pwm^0,w,c
  5428   003394  101B               	iorwf	(CCP1_PWM_Intialize@pwm+1)^0,w,c
  5429   003396  B4D8               	btfsc	status,2,c
  5430   003398  EFD0  F019         	goto	u2831
  5431   00339C  EFD2  F019         	goto	u2830
  5432   0033A0                     u2831:
  5433   0033A0  EF38  F01A         	goto	l178
  5434   0033A4                     u2830:
  5435   0033A4                     
  5436                           ;MCAL_Layer/PWM/hal_pwm.c: 15:         ret = (Std_ReturnType)0x01;
  5437   0033A4  0E01               	movlw	1
  5438   0033A6  6E25               	movwf	CCP1_PWM_Intialize@ret^0,c
  5439                           
  5440                           ;MCAL_Layer/PWM/hal_pwm.c: 18:         (CCP1CONbits.CCP1M = 0x00);
  5441   0033A8  0EF0               	movlw	-16
  5442   0033AA  16BD               	andwf	189,f,c	;volatile
  5443   0033AC                     
  5444                           ;MCAL_Layer/PWM/hal_pwm.c: 21:         TRISCbits.RC2 = 0;
  5445   0033AC  9494               	bcf	148,2,c	;volatile
  5446   0033AE                     
  5447                           ;MCAL_Layer/PWM/hal_pwm.c: 24:         PR2 = (uint8)((4000000 / ((uint32)4 * (pwm->pwm_f
      +                          requency) *
  5448   0033AE  C01A  FFD9         	movff	CCP1_PWM_Intialize@pwm,fsr2l
  5449   0033B2  C01B  FFDA         	movff	CCP1_PWM_Intialize@pwm+1,fsr2h
  5450   0033B6  CFDE F01C          	movff	postinc2,??_CCP1_PWM_Intialize
  5451   0033BA  CFDE F01D          	movff	postinc2,??_CCP1_PWM_Intialize+1
  5452   0033BE  CFDE F01E          	movff	postinc2,??_CCP1_PWM_Intialize+2
  5453   0033C2  CFDE F01F          	movff	postinc2,??_CCP1_PWM_Intialize+3
  5454   0033C6  0E02               	movlw	2
  5455   0033C8                     u2845:
  5456   0033C8  90D8               	bcf	status,0,c
  5457   0033CA  361C               	rlcf	??_CCP1_PWM_Intialize^0,f,c
  5458   0033CC  361D               	rlcf	(??_CCP1_PWM_Intialize+1)^0,f,c
  5459   0033CE  361E               	rlcf	(??_CCP1_PWM_Intialize+2)^0,f,c
  5460   0033D0  361F               	rlcf	(??_CCP1_PWM_Intialize+3)^0,f,c
  5461   0033D2  2EE8               	decfsz	wreg,f,c
  5462   0033D4  EFE4  F019         	goto	u2845
  5463   0033D8  C01C  F001         	movff	??_CCP1_PWM_Intialize,___lmul@multiplier
  5464   0033DC  C01D  F002         	movff	??_CCP1_PWM_Intialize+1,___lmul@multiplier+1
  5465   0033E0  C01E  F003         	movff	??_CCP1_PWM_Intialize+2,___lmul@multiplier+2
  5466   0033E4  C01F  F004         	movff	??_CCP1_PWM_Intialize+3,___lmul@multiplier+3
  5467   0033E8  EE20 F004          	lfsr	2,4
  5468   0033EC  501A               	movf	CCP1_PWM_Intialize@pwm^0,w,c
  5469   0033EE  26D9               	addwf	fsr2l,f,c
  5470   0033F0  501B               	movf	(CCP1_PWM_Intialize@pwm+1)^0,w,c
  5471   0033F2  22DA               	addwfc	fsr2h,f,c
  5472   0033F4  50DF               	movf	indf2,w,c
  5473   0033F6  6E20               	movwf	(??_CCP1_PWM_Intialize+4)^0,c
  5474   0033F8  5020               	movf	(??_CCP1_PWM_Intialize+4)^0,w,c
  5475   0033FA  6E05               	movwf	___lmul@multiplicand^0,c
  5476   0033FC  6A06               	clrf	(___lmul@multiplicand+1)^0,c
  5477   0033FE  6A07               	clrf	(___lmul@multiplicand+2)^0,c
  5478   003400  6A08               	clrf	(___lmul@multiplicand+3)^0,c
  5479   003402  EC91  F01E         	call	___lmul	;wreg free
  5480   003406  C001  F021         	movff	?___lmul,_CCP1_PWM_Intialize$1764
  5481   00340A  C002  F022         	movff	?___lmul+1,_CCP1_PWM_Intialize$1764+1
  5482   00340E  C003  F023         	movff	?___lmul+2,_CCP1_PWM_Intialize$1764+2
  5483   003412  C004  F024         	movff	?___lmul+3,_CCP1_PWM_Intialize$1764+3
  5484   003416                     
  5485                           ;MCAL_Layer/PWM/hal_pwm.c: 24:         PR2 = (uint8)((4000000 / ((uint32)4 * (pwm->pwm_f
      +                          requency) *
  5486   003416  0E00               	movlw	0
  5487   003418  6E0D               	movwf	___lldiv@dividend^0,c
  5488   00341A  0E09               	movlw	9
  5489   00341C  6E0E               	movwf	(___lldiv@dividend+1)^0,c
  5490   00341E  0E3D               	movlw	61
  5491   003420  6E0F               	movwf	(___lldiv@dividend+2)^0,c
  5492   003422  0E00               	movlw	0
  5493   003424  6E10               	movwf	(___lldiv@dividend+3)^0,c
  5494   003426  C021  F001         	movff	_CCP1_PWM_Intialize$1764,___lmul@multiplier
  5495   00342A  C022  F002         	movff	_CCP1_PWM_Intialize$1764+1,___lmul@multiplier+1
  5496   00342E  C023  F003         	movff	_CCP1_PWM_Intialize$1764+2,___lmul@multiplier+2
  5497   003432  C024  F004         	movff	_CCP1_PWM_Intialize$1764+3,___lmul@multiplier+3
  5498   003436  EE20 F005          	lfsr	2,5
  5499   00343A  501A               	movf	CCP1_PWM_Intialize@pwm^0,w,c
  5500   00343C  26D9               	addwf	fsr2l,f,c
  5501   00343E  501B               	movf	(CCP1_PWM_Intialize@pwm+1)^0,w,c
  5502   003440  22DA               	addwfc	fsr2h,f,c
  5503   003442  50DF               	movf	indf2,w,c
  5504   003444  6E1C               	movwf	??_CCP1_PWM_Intialize^0,c
  5505   003446  501C               	movf	??_CCP1_PWM_Intialize^0,w,c
  5506   003448  6E05               	movwf	___lmul@multiplicand^0,c
  5507   00344A  6A06               	clrf	(___lmul@multiplicand+1)^0,c
  5508   00344C  6A07               	clrf	(___lmul@multiplicand+2)^0,c
  5509   00344E  6A08               	clrf	(___lmul@multiplicand+3)^0,c
  5510   003450  EC91  F01E         	call	___lmul	;wreg free
  5511   003454  C001  F011         	movff	?___lmul,___lldiv@divisor
  5512   003458  C002  F012         	movff	?___lmul+1,___lldiv@divisor+1
  5513   00345C  C003  F013         	movff	?___lmul+2,___lldiv@divisor+2
  5514   003460  C004  F014         	movff	?___lmul+3,___lldiv@divisor+3
  5515   003464  ECEA  F01B         	call	___lldiv	;wreg free
  5516   003468  040D               	decf	?___lldiv^0,w,c
  5517   00346A  6ECB               	movwf	203,c	;volatile
  5518                           
  5519                           ;MCAL_Layer/PWM/hal_pwm.c: 28:         (CCP1CONbits.CCP1M = 0x0F);
  5520   00346C  0E0F               	movlw	15
  5521   00346E  12BD               	iorwf	189,f,c	;volatile
  5522   003470                     l178:
  5523                           
  5524                           ;MCAL_Layer/PWM/hal_pwm.c: 30:     return ret;
  5525   003470  5025               	movf	CCP1_PWM_Intialize@ret^0,w,c
  5526   003472  0012               	return		;funcret
  5527   003474                     __end_of_CCP1_PWM_Intialize:
  5528                           	callstack 0
  5529                           
  5530 ;; *************** function ___lmul *****************
  5531 ;; Defined at:
  5532 ;;		line 15 in file "C:\Program Files\Microchip\xc8\v2.40\pic\sources\c99\common\Umul32.c"
  5533 ;; Parameters:    Size  Location     Type
  5534 ;;  multiplier      4    0[COMRAM] unsigned long 
  5535 ;;  multiplicand    4    4[COMRAM] unsigned long 
  5536 ;; Auto vars:     Size  Location     Type
  5537 ;;  product         4    8[COMRAM] unsigned long 
  5538 ;; Return value:  Size  Location     Type
  5539 ;;                  4    0[COMRAM] unsigned long 
  5540 ;; Registers used:
  5541 ;;		wreg, status,2, status,0
  5542 ;; Tracked objects:
  5543 ;;		On entry : 0/0
  5544 ;;		On exit  : 0/0
  5545 ;;		Unchanged: 0/0
  5546 ;; Data sizes:     COMRAM   BANK0   BANK1   BANK2   BANK3   BANK4   BANK5   BANK6   BANK7   BANK8   BANK9  BANK10  BANK1
      +1  BANK12  BANK13  BANK14  BANK15
  5547 ;;      Params:         8       0       0       0       0       0       0       0       0       0       0       0       
      +0       0       0       0       0
  5548 ;;      Locals:         4       0       0       0       0       0       0       0       0       0       0       0       
      +0       0       0       0       0
  5549 ;;      Temps:          0       0       0       0       0       0       0       0       0       0       0       0       
      +0       0       0       0       0
  5550 ;;      Totals:        12       0       0       0       0       0       0       0       0       0       0       0       
      +0       0       0       0       0
  5551 ;;Total ram usage:       12 bytes
  5552 ;; Hardware stack levels used: 1
  5553 ;; This function calls:
  5554 ;;		Nothing
  5555 ;; This function is called by:
  5556 ;;		_CCP1_PWM_Intialize
  5557 ;; This function uses a non-reentrant model
  5558 ;;
  5559                           
  5560                           	psect	text29
  5561   003D22                     __ptext29:
  5562                           	callstack 0
  5563   003D22                     ___lmul:
  5564                           	callstack 27
  5565   003D22  0E00               	movlw	0
  5566   003D24  6E09               	movwf	___lmul@product^0,c
  5567   003D26  0E00               	movlw	0
  5568   003D28  6E0A               	movwf	(___lmul@product+1)^0,c
  5569   003D2A  0E00               	movlw	0
  5570   003D2C  6E0B               	movwf	(___lmul@product+2)^0,c
  5571   003D2E  0E00               	movlw	0
  5572   003D30  6E0C               	movwf	(___lmul@product+3)^0,c
  5573   003D32                     l2959:
  5574   003D32  A001               	btfss	___lmul@multiplier^0,0,c
  5575   003D34  EF9E  F01E         	goto	u2691
  5576   003D38  EFA0  F01E         	goto	u2690
  5577   003D3C                     u2691:
  5578   003D3C  EFA8  F01E         	goto	l2963
  5579   003D40                     u2690:
  5580   003D40  5005               	movf	___lmul@multiplicand^0,w,c
  5581   003D42  2609               	addwf	___lmul@product^0,f,c
  5582   003D44  5006               	movf	(___lmul@multiplicand+1)^0,w,c
  5583   003D46  220A               	addwfc	(___lmul@product+1)^0,f,c
  5584   003D48  5007               	movf	(___lmul@multiplicand+2)^0,w,c
  5585   003D4A  220B               	addwfc	(___lmul@product+2)^0,f,c
  5586   003D4C  5008               	movf	(___lmul@multiplicand+3)^0,w,c
  5587   003D4E  220C               	addwfc	(___lmul@product+3)^0,f,c
  5588   003D50                     l2963:
  5589   003D50  90D8               	bcf	status,0,c
  5590   003D52  3605               	rlcf	___lmul@multiplicand^0,f,c
  5591   003D54  3606               	rlcf	(___lmul@multiplicand+1)^0,f,c
  5592   003D56  3607               	rlcf	(___lmul@multiplicand+2)^0,f,c
  5593   003D58  3608               	rlcf	(___lmul@multiplicand+3)^0,f,c
  5594   003D5A  90D8               	bcf	status,0,c
  5595   003D5C  3204               	rrcf	(___lmul@multiplier+3)^0,f,c
  5596   003D5E  3203               	rrcf	(___lmul@multiplier+2)^0,f,c
  5597   003D60  3202               	rrcf	(___lmul@multiplier+1)^0,f,c
  5598   003D62  3201               	rrcf	___lmul@multiplier^0,f,c
  5599   003D64  5001               	movf	___lmul@multiplier^0,w,c
  5600   003D66  1002               	iorwf	(___lmul@multiplier+1)^0,w,c
  5601   003D68  1003               	iorwf	(___lmul@multiplier+2)^0,w,c
  5602   003D6A  1004               	iorwf	(___lmul@multiplier+3)^0,w,c
  5603   003D6C  A4D8               	btfss	status,2,c
  5604   003D6E  EFBB  F01E         	goto	u2701
  5605   003D72  EFBD  F01E         	goto	u2700
  5606   003D76                     u2701:
  5607   003D76  EF99  F01E         	goto	l2959
  5608   003D7A                     u2700:
  5609   003D7A  C009  F001         	movff	___lmul@product,?___lmul
  5610   003D7E  C00A  F002         	movff	___lmul@product+1,?___lmul+1
  5611   003D82  C00B  F003         	movff	___lmul@product+2,?___lmul+2
  5612   003D86  C00C  F004         	movff	___lmul@product+3,?___lmul+3
  5613   003D8A  0012               	return		;funcret
  5614   003D8C                     __end_of___lmul:
  5615                           	callstack 0
  5616                           
  5617 ;; *************** function ___lldiv *****************
  5618 ;; Defined at:
  5619 ;;		line 7 in file "C:\Program Files\Microchip\xc8\v2.40\pic\sources\c99\common\__lldiv.c"
  5620 ;; Parameters:    Size  Location     Type
  5621 ;;  dividend        4   12[COMRAM] unsigned long 
  5622 ;;  divisor         4   16[COMRAM] unsigned long 
  5623 ;; Auto vars:     Size  Location     Type
  5624 ;;  quotient        4   20[COMRAM] unsigned long 
  5625 ;;  counter         1   24[COMRAM] unsigned char 
  5626 ;; Return value:  Size  Location     Type
  5627 ;;                  4   12[COMRAM] unsigned long 
  5628 ;; Registers used:
  5629 ;;		wreg, status,2, status,0
  5630 ;; Tracked objects:
  5631 ;;		On entry : 0/0
  5632 ;;		On exit  : 0/0
  5633 ;;		Unchanged: 0/0
  5634 ;; Data sizes:     COMRAM   BANK0   BANK1   BANK2   BANK3   BANK4   BANK5   BANK6   BANK7   BANK8   BANK9  BANK10  BANK1
      +1  BANK12  BANK13  BANK14  BANK15
  5635 ;;      Params:         8       0       0       0       0       0       0       0       0       0       0       0       
      +0       0       0       0       0
  5636 ;;      Locals:         5       0       0       0       0       0       0       0       0       0       0       0       
      +0       0       0       0       0
  5637 ;;      Temps:          0       0       0       0       0       0       0       0       0       0       0       0       
      +0       0       0       0       0
  5638 ;;      Totals:        13       0       0       0       0       0       0       0       0       0       0       0       
      +0       0       0       0       0
  5639 ;;Total ram usage:       13 bytes
  5640 ;; Hardware stack levels used: 1
  5641 ;; This function calls:
  5642 ;;		Nothing
  5643 ;; This function is called by:
  5644 ;;		_CCP1_PWM_Intialize
  5645 ;; This function uses a non-reentrant model
  5646 ;;
  5647                           
  5648                           	psect	text30
  5649   0037D4                     __ptext30:
  5650                           	callstack 0
  5651   0037D4                     ___lldiv:
  5652                           	callstack 27
  5653   0037D4  0E00               	movlw	0
  5654   0037D6  6E15               	movwf	___lldiv@quotient^0,c
  5655   0037D8  0E00               	movlw	0
  5656   0037DA  6E16               	movwf	(___lldiv@quotient+1)^0,c
  5657   0037DC  0E00               	movlw	0
  5658   0037DE  6E17               	movwf	(___lldiv@quotient+2)^0,c
  5659   0037E0  0E00               	movlw	0
  5660   0037E2  6E18               	movwf	(___lldiv@quotient+3)^0,c
  5661   0037E4  5011               	movf	___lldiv@divisor^0,w,c
  5662   0037E6  1012               	iorwf	(___lldiv@divisor+1)^0,w,c
  5663   0037E8  1013               	iorwf	(___lldiv@divisor+2)^0,w,c
  5664   0037EA  1014               	iorwf	(___lldiv@divisor+3)^0,w,c
  5665   0037EC  B4D8               	btfsc	status,2,c
  5666   0037EE  EFFB  F01B         	goto	u2711
  5667   0037F2  EFFD  F01B         	goto	u2710
  5668   0037F6                     u2711:
  5669   0037F6  EF33  F01C         	goto	l367
  5670   0037FA                     u2710:
  5671   0037FA  0E01               	movlw	1
  5672   0037FC  6E19               	movwf	___lldiv@counter^0,c
  5673   0037FE  EF07  F01C         	goto	l2975
  5674   003802                     l2973:
  5675   003802  90D8               	bcf	status,0,c
  5676   003804  3611               	rlcf	___lldiv@divisor^0,f,c
  5677   003806  3612               	rlcf	(___lldiv@divisor+1)^0,f,c
  5678   003808  3613               	rlcf	(___lldiv@divisor+2)^0,f,c
  5679   00380A  3614               	rlcf	(___lldiv@divisor+3)^0,f,c
  5680   00380C  2A19               	incf	___lldiv@counter^0,f,c
  5681   00380E                     l2975:
  5682   00380E  AE14               	btfss	(___lldiv@divisor+3)^0,7,c
  5683   003810  EF0C  F01C         	goto	u2721
  5684   003814  EF0E  F01C         	goto	u2720
  5685   003818                     u2721:
  5686   003818  EF01  F01C         	goto	l2973
  5687   00381C                     u2720:
  5688   00381C                     l2977:
  5689   00381C  90D8               	bcf	status,0,c
  5690   00381E  3615               	rlcf	___lldiv@quotient^0,f,c
  5691   003820  3616               	rlcf	(___lldiv@quotient+1)^0,f,c
  5692   003822  3617               	rlcf	(___lldiv@quotient+2)^0,f,c
  5693   003824  3618               	rlcf	(___lldiv@quotient+3)^0,f,c
  5694   003826  5011               	movf	___lldiv@divisor^0,w,c
  5695   003828  5C0D               	subwf	___lldiv@dividend^0,w,c
  5696   00382A  5012               	movf	(___lldiv@divisor+1)^0,w,c
  5697   00382C  580E               	subwfb	(___lldiv@dividend+1)^0,w,c
  5698   00382E  5013               	movf	(___lldiv@divisor+2)^0,w,c
  5699   003830  580F               	subwfb	(___lldiv@dividend+2)^0,w,c
  5700   003832  5014               	movf	(___lldiv@divisor+3)^0,w,c
  5701   003834  5810               	subwfb	(___lldiv@dividend+3)^0,w,c
  5702   003836  A0D8               	btfss	status,0,c
  5703   003838  EF20  F01C         	goto	u2731
  5704   00383C  EF22  F01C         	goto	u2730
  5705   003840                     u2731:
  5706   003840  EF2B  F01C         	goto	l2985
  5707   003844                     u2730:
  5708   003844  5011               	movf	___lldiv@divisor^0,w,c
  5709   003846  5E0D               	subwf	___lldiv@dividend^0,f,c
  5710   003848  5012               	movf	(___lldiv@divisor+1)^0,w,c
  5711   00384A  5A0E               	subwfb	(___lldiv@dividend+1)^0,f,c
  5712   00384C  5013               	movf	(___lldiv@divisor+2)^0,w,c
  5713   00384E  5A0F               	subwfb	(___lldiv@dividend+2)^0,f,c
  5714   003850  5014               	movf	(___lldiv@divisor+3)^0,w,c
  5715   003852  5A10               	subwfb	(___lldiv@dividend+3)^0,f,c
  5716   003854  8015               	bsf	___lldiv@quotient^0,0,c
  5717   003856                     l2985:
  5718   003856  90D8               	bcf	status,0,c
  5719   003858  3214               	rrcf	(___lldiv@divisor+3)^0,f,c
  5720   00385A  3213               	rrcf	(___lldiv@divisor+2)^0,f,c
  5721   00385C  3212               	rrcf	(___lldiv@divisor+1)^0,f,c
  5722   00385E  3211               	rrcf	___lldiv@divisor^0,f,c
  5723   003860  2E19               	decfsz	___lldiv@counter^0,f,c
  5724   003862  EF0E  F01C         	goto	l2977
  5725   003866                     l367:
  5726   003866  C015  F00D         	movff	___lldiv@quotient,?___lldiv
  5727   00386A  C016  F00E         	movff	___lldiv@quotient+1,?___lldiv+1
  5728   00386E  C017  F00F         	movff	___lldiv@quotient+2,?___lldiv+2
  5729   003872  C018  F010         	movff	___lldiv@quotient+3,?___lldiv+3
  5730   003876  0012               	return		;funcret
  5731   003878                     __end_of___lldiv:
  5732                           	callstack 0
  5733                           
  5734 ;; *************** function _ADC_intialize *****************
  5735 ;; Defined at:
  5736 ;;		line 17 in file "MCAL_Layer/ADC/hal_adc.c"
  5737 ;; Parameters:    Size  Location     Type
  5738 ;;  _adc            2    4[COMRAM] PTR const struct .
  5739 ;;		 -> adc(4), 
  5740 ;; Auto vars:     Size  Location     Type
  5741 ;;  ret             1    7[COMRAM] unsigned char 
  5742 ;; Return value:  Size  Location     Type
  5743 ;;                  1    wreg      unsigned char 
  5744 ;; Registers used:
  5745 ;;		wreg, fsr2l, fsr2h, status,2, status,0, cstack
  5746 ;; Tracked objects:
  5747 ;;		On entry : 0/0
  5748 ;;		On exit  : 0/0
  5749 ;;		Unchanged: 0/0
  5750 ;; Data sizes:     COMRAM   BANK0   BANK1   BANK2   BANK3   BANK4   BANK5   BANK6   BANK7   BANK8   BANK9  BANK10  BANK1
      +1  BANK12  BANK13  BANK14  BANK15
  5751 ;;      Params:         2       0       0       0       0       0       0       0       0       0       0       0       
      +0       0       0       0       0
  5752 ;;      Locals:         1       0       0       0       0       0       0       0       0       0       0       0       
      +0       0       0       0       0
  5753 ;;      Temps:          1       0       0       0       0       0       0       0       0       0       0       0       
      +0       0       0       0       0
  5754 ;;      Totals:         4       0       0       0       0       0       0       0       0       0       0       0       
      +0       0       0       0       0
  5755 ;;Total ram usage:        4 bytes
  5756 ;; Hardware stack levels used: 1
  5757 ;; Hardware stack levels required when called: 1
  5758 ;; This function calls:
  5759 ;;		_ADC_Configure_Channel_pin
  5760 ;; This function is called by:
  5761 ;;		_mcal_layer_int
  5762 ;; This function uses a non-reentrant model
  5763 ;;
  5764                           
  5765                           	psect	text31
  5766   00363C                     __ptext31:
  5767                           	callstack 0
  5768   00363C                     _ADC_intialize:
  5769                           	callstack 27
  5770   00363C                     
  5771                           ;MCAL_Layer/ADC/hal_adc.c: 17: Std_ReturnType ADC_intialize(const adc_config_t *_adc);MC
      +                          AL_Layer/ADC/hal_adc.c: 18: {;MCAL_Layer/ADC/hal_adc.c: 19:     Std_ReturnType ret = (St
      +                          d_ReturnType)0x00;
  5772   00363C  0E00               	movlw	0
  5773   00363E  6E08               	movwf	ADC_intialize@ret^0,c
  5774   003640                     
  5775                           ;MCAL_Layer/ADC/hal_adc.c: 20:     if(((void*)0) != _adc){
  5776   003640  5005               	movf	ADC_intialize@_adc^0,w,c
  5777   003642  1006               	iorwf	(ADC_intialize@_adc+1)^0,w,c
  5778   003644  B4D8               	btfsc	status,2,c
  5779   003646  EF27  F01B         	goto	u2801
  5780   00364A  EF29  F01B         	goto	u2800
  5781   00364E                     u2801:
  5782   00364E  EF83  F01B         	goto	l3101
  5783   003652                     u2800:
  5784   003652                     
  5785                           ;MCAL_Layer/ADC/hal_adc.c: 23:         (ADCON0bits.ADON = 0);
  5786   003652  90C2               	bcf	194,0,c	;volatile
  5787   003654                     
  5788                           ;MCAL_Layer/ADC/hal_adc.c: 26:         (ADCON2bits.ACQT = _adc->aquisition_time);
  5789   003654  C005  FFD9         	movff	ADC_intialize@_adc,fsr2l
  5790   003658  C006  FFDA         	movff	ADC_intialize@_adc+1,fsr2h
  5791   00365C  50DF               	movf	indf2,w,c
  5792   00365E  6E07               	movwf	??_ADC_intialize^0,c
  5793   003660  4607               	rlncf	??_ADC_intialize^0,f,c
  5794   003662  4607               	rlncf	??_ADC_intialize^0,f,c
  5795   003664  4607               	rlncf	??_ADC_intialize^0,f,c
  5796   003666  50C0               	movf	192,w,c	;volatile
  5797   003668  1807               	xorwf	??_ADC_intialize^0,w,c
  5798   00366A  0BC7               	andlw	-57
  5799   00366C  1807               	xorwf	??_ADC_intialize^0,w,c
  5800   00366E  6EC0               	movwf	192,c	;volatile
  5801   003670                     
  5802                           ;MCAL_Layer/ADC/hal_adc.c: 29:         (ADCON2bits.ADCS = _adc->conversion_clock);
  5803   003670  EE20 F001          	lfsr	2,1
  5804   003674  5005               	movf	ADC_intialize@_adc^0,w,c
  5805   003676  26D9               	addwf	fsr2l,f,c
  5806   003678  5006               	movf	(ADC_intialize@_adc+1)^0,w,c
  5807   00367A  22DA               	addwfc	fsr2h,f,c
  5808   00367C  50DF               	movf	indf2,w,c
  5809   00367E  6E07               	movwf	??_ADC_intialize^0,c
  5810   003680  50C0               	movf	192,w,c	;volatile
  5811   003682  1807               	xorwf	??_ADC_intialize^0,w,c
  5812   003684  0BF8               	andlw	-8
  5813   003686  1807               	xorwf	??_ADC_intialize^0,w,c
  5814   003688  6EC0               	movwf	192,c	;volatile
  5815   00368A                     
  5816                           ;MCAL_Layer/ADC/hal_adc.c: 32:         if(1 == _adc->voltage_refrence){
  5817   00368A  EE20 F003          	lfsr	2,3
  5818   00368E  5005               	movf	ADC_intialize@_adc^0,w,c
  5819   003690  26D9               	addwf	fsr2l,f,c
  5820   003692  5006               	movf	(ADC_intialize@_adc+1)^0,w,c
  5821   003694  22DA               	addwfc	fsr2h,f,c
  5822   003696  A2DF               	btfss	indf2,1,c
  5823   003698  EF50  F01B         	goto	u2811
  5824   00369C  EF52  F01B         	goto	u2810
  5825   0036A0                     u2811:
  5826   0036A0  EF56  F01B         	goto	l49
  5827   0036A4                     u2810:
  5828   0036A4  8AC1               	bsf	193,5,c	;volatile
  5829   0036A6  88C1               	bsf	193,4,c	;volatile
  5830   0036A8  EF58  F01B         	goto	l3091
  5831   0036AC                     l49:
  5832   0036AC  9AC1               	bcf	193,5,c	;volatile
  5833   0036AE  98C1               	bcf	193,4,c	;volatile
  5834   0036B0                     l3091:
  5835                           
  5836                           ;MCAL_Layer/ADC/hal_adc.c: 40:         if(0 == _adc->format_justification){
  5837   0036B0  EE20 F003          	lfsr	2,3
  5838   0036B4  5005               	movf	ADC_intialize@_adc^0,w,c
  5839   0036B6  26D9               	addwf	fsr2l,f,c
  5840   0036B8  5006               	movf	(ADC_intialize@_adc+1)^0,w,c
  5841   0036BA  22DA               	addwfc	fsr2h,f,c
  5842   0036BC  B0DF               	btfsc	indf2,0,c
  5843   0036BE  EF63  F01B         	goto	u2821
  5844   0036C2  EF65  F01B         	goto	u2820
  5845   0036C6                     u2821:
  5846   0036C6  EF68  F01B         	goto	l51
  5847   0036CA                     u2820:
  5848   0036CA                     
  5849                           ;MCAL_Layer/ADC/hal_adc.c: 41:             (ADCON2bits.ADFM = 0);
  5850   0036CA  9EC0               	bcf	192,7,c	;volatile
  5851                           
  5852                           ;MCAL_Layer/ADC/hal_adc.c: 42:         }
  5853   0036CC  EF69  F01B         	goto	l3095
  5854   0036D0                     l51:
  5855                           
  5856                           ;MCAL_Layer/ADC/hal_adc.c: 44:             (ADCON2bits.ADFM = 1);
  5857   0036D0  8EC0               	bsf	192,7,c	;volatile
  5858   0036D2                     l3095:
  5859                           
  5860                           ;MCAL_Layer/ADC/hal_adc.c: 48:         (ADCON0bits.CHS = _adc->channel);
  5861   0036D2  EE20 F002          	lfsr	2,2
  5862   0036D6  5005               	movf	ADC_intialize@_adc^0,w,c
  5863   0036D8  26D9               	addwf	fsr2l,f,c
  5864   0036DA  5006               	movf	(ADC_intialize@_adc+1)^0,w,c
  5865   0036DC  22DA               	addwfc	fsr2h,f,c
  5866   0036DE  50DF               	movf	indf2,w,c
  5867   0036E0  6E07               	movwf	??_ADC_intialize^0,c
  5868   0036E2  4607               	rlncf	??_ADC_intialize^0,f,c
  5869   0036E4  4607               	rlncf	??_ADC_intialize^0,f,c
  5870   0036E6  50C2               	movf	194,w,c	;volatile
  5871   0036E8  1807               	xorwf	??_ADC_intialize^0,w,c
  5872   0036EA  0BC3               	andlw	-61
  5873   0036EC  1807               	xorwf	??_ADC_intialize^0,w,c
  5874   0036EE  6EC2               	movwf	194,c	;volatile
  5875   0036F0                     
  5876                           ;MCAL_Layer/ADC/hal_adc.c: 49:         ret = ADC_Configure_Channel_pin(_adc->channel);
  5877   0036F0  EE20 F002          	lfsr	2,2
  5878   0036F4  5005               	movf	ADC_intialize@_adc^0,w,c
  5879   0036F6  26D9               	addwf	fsr2l,f,c
  5880   0036F8  5006               	movf	(ADC_intialize@_adc+1)^0,w,c
  5881   0036FA  22DA               	addwfc	fsr2h,f,c
  5882   0036FC  50DF               	movf	indf2,w,c
  5883   0036FE  EC3A  F01A         	call	_ADC_Configure_Channel_pin
  5884   003702  6E08               	movwf	ADC_intialize@ret^0,c
  5885   003704                     
  5886                           ;MCAL_Layer/ADC/hal_adc.c: 52:         (ADCON0bits.ADON = 1);
  5887   003704  80C2               	bsf	194,0,c	;volatile
  5888   003706                     l3101:
  5889                           
  5890                           ;MCAL_Layer/ADC/hal_adc.c: 54:     return ret;
  5891   003706  5008               	movf	ADC_intialize@ret^0,w,c
  5892   003708  0012               	return		;funcret
  5893   00370A                     __end_of_ADC_intialize:
  5894                           	callstack 0
  5895                           
  5896 ;; *************** function _ecu_layer_int *****************
  5897 ;; Defined at:
  5898 ;;		line 65 in file "ECU_Layer/ecu_layer_intialize.c"
  5899 ;; Parameters:    Size  Location     Type
  5900 ;;		None
  5901 ;; Auto vars:     Size  Location     Type
  5902 ;;  ret             1   28[COMRAM] unsigned char 
  5903 ;; Return value:  Size  Location     Type
  5904 ;;                  1    wreg      unsigned char 
  5905 ;; Registers used:
  5906 ;;		wreg, fsr2l, fsr2h, status,2, status,0, prodl, prodh, cstack
  5907 ;; Tracked objects:
  5908 ;;		On entry : 0/0
  5909 ;;		On exit  : 0/0
  5910 ;;		Unchanged: 0/0
  5911 ;; Data sizes:     COMRAM   BANK0   BANK1   BANK2   BANK3   BANK4   BANK5   BANK6   BANK7   BANK8   BANK9  BANK10  BANK1
      +1  BANK12  BANK13  BANK14  BANK15
  5912 ;;      Params:         0       0       0       0       0       0       0       0       0       0       0       0       
      +0       0       0       0       0
  5913 ;;      Locals:         1       0       0       0       0       0       0       0       0       0       0       0       
      +0       0       0       0       0
  5914 ;;      Temps:          0       0       0       0       0       0       0       0       0       0       0       0       
      +0       0       0       0       0
  5915 ;;      Totals:         1       0       0       0       0       0       0       0       0       0       0       0       
      +0       0       0       0       0
  5916 ;;Total ram usage:        1 bytes
  5917 ;; Hardware stack levels used: 1
  5918 ;; Hardware stack levels required when called: 4
  5919 ;; This function calls:
  5920 ;;		_lcd_8bit_intialize
  5921 ;;		_motor_intialize
  5922 ;; This function is called by:
  5923 ;;		_application_intialize
  5924 ;; This function uses a non-reentrant model
  5925 ;;
  5926                           
  5927                           	psect	text32
  5928   004180                     __ptext32:
  5929                           	callstack 0
  5930   004180                     _ecu_layer_int:
  5931                           	callstack 25
  5932   004180  0E9E               	movlw	low _lcd
  5933   004182  6E17               	movwf	lcd_8bit_intialize@lcd^0,c
  5934   004184  0E00               	movlw	high _lcd
  5935   004186  6E18               	movwf	(lcd_8bit_intialize@lcd+1)^0,c
  5936   004188  ECA3  F017         	call	_lcd_8bit_intialize	;wreg free
  5937   00418C                     
  5938                           ;ECU_Layer/ecu_layer_intialize.c: 69:     ret = motor_intialize(&motor);
  5939   00418C  0E7B               	movlw	low _motor
  5940   00418E  6E0F               	movwf	motor_intialize@motor^0,c
  5941   004190  0E00               	movlw	high _motor
  5942   004192  6E10               	movwf	(motor_intialize@motor+1)^0,c
  5943   004194  EC4C  F020         	call	_motor_intialize	;wreg free
  5944   004198  6E1D               	movwf	ecu_layer_int@ret^0,c
  5945                           
  5946                           ;ECU_Layer/ecu_layer_intialize.c: 71:     return ret;
  5947   00419A  501D               	movf	ecu_layer_int@ret^0,w,c
  5948   00419C  0012               	return		;funcret
  5949   00419E                     __end_of_ecu_layer_int:
  5950                           	callstack 0
  5951                           
  5952 ;; *************** function _motor_intialize *****************
  5953 ;; Defined at:
  5954 ;;		line 10 in file "ECU_Layer/DC_Motor/ecu_dc_motor.c"
  5955 ;; Parameters:    Size  Location     Type
  5956 ;;  motor           2   14[COMRAM] PTR const struct .
  5957 ;;		 -> motor(2), 
  5958 ;; Auto vars:     Size  Location     Type
  5959 ;;  ret             1   16[COMRAM] unsigned char 
  5960 ;; Return value:  Size  Location     Type
  5961 ;;                  1    wreg      unsigned char 
  5962 ;; Registers used:
  5963 ;;		wreg, fsr2l, fsr2h, status,2, status,0, prodl, prodh, cstack
  5964 ;; Tracked objects:
  5965 ;;		On entry : 0/0
  5966 ;;		On exit  : 0/0
  5967 ;;		Unchanged: 0/0
  5968 ;; Data sizes:     COMRAM   BANK0   BANK1   BANK2   BANK3   BANK4   BANK5   BANK6   BANK7   BANK8   BANK9  BANK10  BANK1
      +1  BANK12  BANK13  BANK14  BANK15
  5969 ;;      Params:         2       0       0       0       0       0       0       0       0       0       0       0       
      +0       0       0       0       0
  5970 ;;      Locals:         1       0       0       0       0       0       0       0       0       0       0       0       
      +0       0       0       0       0
  5971 ;;      Temps:          0       0       0       0       0       0       0       0       0       0       0       0       
      +0       0       0       0       0
  5972 ;;      Totals:         3       0       0       0       0       0       0       0       0       0       0       0       
      +0       0       0       0       0
  5973 ;;Total ram usage:        3 bytes
  5974 ;; Hardware stack levels used: 1
  5975 ;; Hardware stack levels required when called: 2
  5976 ;; This function calls:
  5977 ;;		_gpio_pin_intialize
  5978 ;; This function is called by:
  5979 ;;		_ecu_layer_int
  5980 ;; This function uses a non-reentrant model
  5981 ;;
  5982                           
  5983                           	psect	text33
  5984   004098                     __ptext33:
  5985                           	callstack 0
  5986   004098                     _motor_intialize:
  5987                           	callstack 26
  5988   004098                     
  5989                           ;ECU_Layer/DC_Motor/ecu_dc_motor.c: 11:     Std_ReturnType ret = (Std_ReturnType)0x00;
  5990   004098  0E00               	movlw	0
  5991   00409A  6E11               	movwf	motor_intialize@ret^0,c
  5992   00409C                     
  5993                           ;ECU_Layer/DC_Motor/ecu_dc_motor.c: 12:     if(((void*)0) != motor){
  5994   00409C  500F               	movf	motor_intialize@motor^0,w,c
  5995   00409E  1010               	iorwf	(motor_intialize@motor+1)^0,w,c
  5996   0040A0  B4D8               	btfsc	status,2,c
  5997   0040A2  EF55  F020         	goto	u2771
  5998   0040A6  EF57  F020         	goto	u2770
  5999   0040AA                     u2771:
  6000   0040AA  EF66  F020         	goto	l7
  6001   0040AE                     u2770:
  6002   0040AE  C00F  F00B         	movff	motor_intialize@motor,gpio_pin_intialize@_pin_config
  6003   0040B2  C010  F00C         	movff	motor_intialize@motor+1,gpio_pin_intialize@_pin_config+1
  6004   0040B6  EC5B  F01E         	call	_gpio_pin_intialize	;wreg free
  6005   0040BA                     
  6006                           ;ECU_Layer/DC_Motor/ecu_dc_motor.c: 15:         ret = gpio_pin_intialize(&motor->motor_p
      +                          in[0x01]);
  6007   0040BA  0E01               	movlw	1
  6008   0040BC  240F               	addwf	motor_intialize@motor^0,w,c
  6009   0040BE  6E0B               	movwf	gpio_pin_intialize@_pin_config^0,c
  6010   0040C0  0E00               	movlw	0
  6011   0040C2  2010               	addwfc	(motor_intialize@motor+1)^0,w,c
  6012   0040C4  6E0C               	movwf	(gpio_pin_intialize@_pin_config+1)^0,c
  6013   0040C6  EC5B  F01E         	call	_gpio_pin_intialize	;wreg free
  6014   0040CA  6E11               	movwf	motor_intialize@ret^0,c
  6015   0040CC                     l7:
  6016                           
  6017                           ;ECU_Layer/DC_Motor/ecu_dc_motor.c: 17:     return ret;
  6018   0040CC  5011               	movf	motor_intialize@ret^0,w,c
  6019   0040CE  0012               	return		;funcret
  6020   0040D0                     __end_of_motor_intialize:
  6021                           	callstack 0
  6022                           
  6023 ;; *************** function _lcd_8bit_intialize *****************
  6024 ;; Defined at:
  6025 ;;		line 14 in file "ECU_Layer/LCD/ecu_lcd.c"
  6026 ;; Parameters:    Size  Location     Type
  6027 ;;  lcd             2   22[COMRAM] PTR const struct .
  6028 ;;		 -> lcd(10), 
  6029 ;; Auto vars:     Size  Location     Type
  6030 ;;  pin             1   26[COMRAM] unsigned char 
  6031 ;;  ret             1   27[COMRAM] unsigned char 
  6032 ;; Return value:  Size  Location     Type
  6033 ;;                  1    wreg      unsigned char 
  6034 ;; Registers used:
  6035 ;;		wreg, fsr2l, fsr2h, status,2, status,0, prodl, prodh, cstack
  6036 ;; Tracked objects:
  6037 ;;		On entry : 0/0
  6038 ;;		On exit  : 0/0
  6039 ;;		Unchanged: 0/0
  6040 ;; Data sizes:     COMRAM   BANK0   BANK1   BANK2   BANK3   BANK4   BANK5   BANK6   BANK7   BANK8   BANK9  BANK10  BANK1
      +1  BANK12  BANK13  BANK14  BANK15
  6041 ;;      Params:         2       0       0       0       0       0       0       0       0       0       0       0       
      +0       0       0       0       0
  6042 ;;      Locals:         2       0       0       0       0       0       0       0       0       0       0       0       
      +0       0       0       0       0
  6043 ;;      Temps:          2       0       0       0       0       0       0       0       0       0       0       0       
      +0       0       0       0       0
  6044 ;;      Totals:         6       0       0       0       0       0       0       0       0       0       0       0       
      +0       0       0       0       0
  6045 ;;Total ram usage:        6 bytes
  6046 ;; Hardware stack levels used: 1
  6047 ;; Hardware stack levels required when called: 3
  6048 ;; This function calls:
  6049 ;;		_gpio_pin_intialize
  6050 ;;		_lcd_8bit_send_command
  6051 ;; This function is called by:
  6052 ;;		_ecu_layer_int
  6053 ;; This function uses a non-reentrant model
  6054 ;;
  6055                           
  6056                           	psect	text34
  6057   002F46                     __ptext34:
  6058                           	callstack 0
  6059   002F46                     _lcd_8bit_intialize:
  6060                           	callstack 25
  6061   002F46                     
  6062                           ;ECU_Layer/LCD/ecu_lcd.c: 15:     Std_ReturnType ret = (Std_ReturnType)0x00;
  6063   002F46  0E00               	movlw	0
  6064   002F48  6E1C               	movwf	lcd_8bit_intialize@ret^0,c
  6065   002F4A                     
  6066                           ;ECU_Layer/LCD/ecu_lcd.c: 16:     if(((void*)0) != lcd){
  6067   002F4A  5017               	movf	lcd_8bit_intialize@lcd^0,w,c
  6068   002F4C  1018               	iorwf	(lcd_8bit_intialize@lcd+1)^0,w,c
  6069   002F4E  B4D8               	btfsc	status,2,c
  6070   002F50  EFAC  F017         	goto	u2781
  6071   002F54  EFAE  F017         	goto	u2780
  6072   002F58                     u2781:
  6073   002F58  EF31  F018         	goto	l3073
  6074   002F5C                     u2780:
  6075   002F5C  C017  F00B         	movff	lcd_8bit_intialize@lcd,gpio_pin_intialize@_pin_config
  6076   002F60  C018  F00C         	movff	lcd_8bit_intialize@lcd+1,gpio_pin_intialize@_pin_config+1
  6077   002F64  EC5B  F01E         	call	_gpio_pin_intialize	;wreg free
  6078   002F68  0E01               	movlw	1
  6079   002F6A  2417               	addwf	lcd_8bit_intialize@lcd^0,w,c
  6080   002F6C  6E0B               	movwf	gpio_pin_intialize@_pin_config^0,c
  6081   002F6E  0E00               	movlw	0
  6082   002F70  2018               	addwfc	(lcd_8bit_intialize@lcd+1)^0,w,c
  6083   002F72  6E0C               	movwf	(gpio_pin_intialize@_pin_config+1)^0,c
  6084   002F74  EC5B  F01E         	call	_gpio_pin_intialize	;wreg free
  6085                           
  6086                           ;ECU_Layer/LCD/ecu_lcd.c: 21:         for(uint8 pin = 0 ; pin < 8 ; pin++){
  6087   002F78  0E00               	movlw	0
  6088   002F7A  6E1B               	movwf	lcd_8bit_intialize@pin^0,c
  6089   002F7C                     l3045:
  6090   002F7C  501B               	movf	lcd_8bit_intialize@pin^0,w,c
  6091   002F7E  2417               	addwf	lcd_8bit_intialize@lcd^0,w,c
  6092   002F80  6E19               	movwf	??_lcd_8bit_intialize^0,c
  6093   002F82  0E00               	movlw	0
  6094   002F84  2018               	addwfc	(lcd_8bit_intialize@lcd+1)^0,w,c
  6095   002F86  6E1A               	movwf	(??_lcd_8bit_intialize+1)^0,c
  6096   002F88  0E02               	movlw	2
  6097   002F8A  2419               	addwf	??_lcd_8bit_intialize^0,w,c
  6098   002F8C  6E0B               	movwf	gpio_pin_intialize@_pin_config^0,c
  6099   002F8E  0E00               	movlw	0
  6100   002F90  201A               	addwfc	(??_lcd_8bit_intialize+1)^0,w,c
  6101   002F92  6E0C               	movwf	(gpio_pin_intialize@_pin_config+1)^0,c
  6102   002F94  EC5B  F01E         	call	_gpio_pin_intialize	;wreg free
  6103   002F98                     
  6104                           ;ECU_Layer/LCD/ecu_lcd.c: 23:         }
  6105   002F98  2A1B               	incf	lcd_8bit_intialize@pin^0,f,c
  6106   002F9A  0E07               	movlw	7
  6107   002F9C  641B               	cpfsgt	lcd_8bit_intialize@pin^0,c
  6108   002F9E  EFD3  F017         	goto	u2791
  6109   002FA2  EFD5  F017         	goto	u2790
  6110   002FA6                     u2791:
  6111   002FA6  EFBE  F017         	goto	l3045
  6112   002FAA                     u2790:
  6113   002FAA                     
  6114                           ;ECU_Layer/LCD/ecu_lcd.c: 24:         _delay((unsigned long)((20)*(4000000/4000.0)));
  6115   002FAA  0E1A               	movlw	26
  6116   002FAC  6E19               	movwf	??_lcd_8bit_intialize^0,c
  6117   002FAE  0EF8               	movlw	248
  6118   002FB0                     u4437:
  6119   002FB0  2EE8               	decfsz	wreg,f,c
  6120   002FB2  D7FE               	bra	u4437
  6121   002FB4  2E19               	decfsz	??_lcd_8bit_intialize^0,f,c
  6122   002FB6  D7FC               	bra	u4437
  6123   002FB8  D000               	nop2	
  6124   002FBA  C017  F00E         	movff	lcd_8bit_intialize@lcd,lcd_8bit_send_command@lcd
  6125   002FBE  C018  F00F         	movff	lcd_8bit_intialize@lcd+1,lcd_8bit_send_command@lcd+1
  6126   002FC2  0E38               	movlw	56
  6127   002FC4  6E10               	movwf	lcd_8bit_send_command@command^0,c
  6128   002FC6  EC66  F01D         	call	_lcd_8bit_send_command	;wreg free
  6129   002FCA                     
  6130                           ;ECU_Layer/LCD/ecu_lcd.c: 26:         _delay((unsigned long)((5)*(4000000/4000.0)));
  6131   002FCA  0E07               	movlw	7
  6132   002FCC  6E19               	movwf	??_lcd_8bit_intialize^0,c
  6133   002FCE  0E7D               	movlw	125
  6134   002FD0                     u4447:
  6135   002FD0  2EE8               	decfsz	wreg,f,c
  6136   002FD2  D7FE               	bra	u4447
  6137   002FD4  2E19               	decfsz	??_lcd_8bit_intialize^0,f,c
  6138   002FD6  D7FC               	bra	u4447
  6139   002FD8  F000               	nop	
  6140   002FDA  C017  F00E         	movff	lcd_8bit_intialize@lcd,lcd_8bit_send_command@lcd
  6141   002FDE  C018  F00F         	movff	lcd_8bit_intialize@lcd+1,lcd_8bit_send_command@lcd+1
  6142   002FE2  0E38               	movlw	56
  6143   002FE4  6E10               	movwf	lcd_8bit_send_command@command^0,c
  6144   002FE6  EC66  F01D         	call	_lcd_8bit_send_command	;wreg free
  6145   002FEA                     
  6146                           ;ECU_Layer/LCD/ecu_lcd.c: 28:         _delay((unsigned long)((150)*(4000000/4000000.0)))
      +                          ;
  6147   002FEA  0E32               	movlw	50
  6148   002FEC                     u4457:
  6149   002FEC  2EE8               	decfsz	wreg,f,c
  6150   002FEE  D7FE               	bra	u4457
  6151   002FF0  C017  F00E         	movff	lcd_8bit_intialize@lcd,lcd_8bit_send_command@lcd
  6152   002FF4  C018  F00F         	movff	lcd_8bit_intialize@lcd+1,lcd_8bit_send_command@lcd+1
  6153   002FF8  0E38               	movlw	56
  6154   002FFA  6E10               	movwf	lcd_8bit_send_command@command^0,c
  6155   002FFC  EC66  F01D         	call	_lcd_8bit_send_command	;wreg free
  6156   003000  C017  F00E         	movff	lcd_8bit_intialize@lcd,lcd_8bit_send_command@lcd
  6157   003004  C018  F00F         	movff	lcd_8bit_intialize@lcd+1,lcd_8bit_send_command@lcd+1
  6158   003008  0E01               	movlw	1
  6159   00300A  6E10               	movwf	lcd_8bit_send_command@command^0,c
  6160   00300C  EC66  F01D         	call	_lcd_8bit_send_command	;wreg free
  6161   003010  C017  F00E         	movff	lcd_8bit_intialize@lcd,lcd_8bit_send_command@lcd
  6162   003014  C018  F00F         	movff	lcd_8bit_intialize@lcd+1,lcd_8bit_send_command@lcd+1
  6163   003018  0E02               	movlw	2
  6164   00301A  6E10               	movwf	lcd_8bit_send_command@command^0,c
  6165   00301C  EC66  F01D         	call	_lcd_8bit_send_command	;wreg free
  6166   003020  C017  F00E         	movff	lcd_8bit_intialize@lcd,lcd_8bit_send_command@lcd
  6167   003024  C018  F00F         	movff	lcd_8bit_intialize@lcd+1,lcd_8bit_send_command@lcd+1
  6168   003028  0E06               	movlw	6
  6169   00302A  6E10               	movwf	lcd_8bit_send_command@command^0,c
  6170   00302C  EC66  F01D         	call	_lcd_8bit_send_command	;wreg free
  6171   003030  C017  F00E         	movff	lcd_8bit_intialize@lcd,lcd_8bit_send_command@lcd
  6172   003034  C018  F00F         	movff	lcd_8bit_intialize@lcd+1,lcd_8bit_send_command@lcd+1
  6173   003038  0E0C               	movlw	12
  6174   00303A  6E10               	movwf	lcd_8bit_send_command@command^0,c
  6175   00303C  EC66  F01D         	call	_lcd_8bit_send_command	;wreg free
  6176   003040  C017  F00E         	movff	lcd_8bit_intialize@lcd,lcd_8bit_send_command@lcd
  6177   003044  C018  F00F         	movff	lcd_8bit_intialize@lcd+1,lcd_8bit_send_command@lcd+1
  6178   003048  0E38               	movlw	56
  6179   00304A  6E10               	movwf	lcd_8bit_send_command@command^0,c
  6180   00304C  EC66  F01D         	call	_lcd_8bit_send_command	;wreg free
  6181   003050                     
  6182                           ;ECU_Layer/LCD/ecu_lcd.c: 36:         ret = lcd_8bit_send_command(lcd, 0x80);
  6183   003050  C017  F00E         	movff	lcd_8bit_intialize@lcd,lcd_8bit_send_command@lcd
  6184   003054  C018  F00F         	movff	lcd_8bit_intialize@lcd+1,lcd_8bit_send_command@lcd+1
  6185   003058  0E80               	movlw	128
  6186   00305A  6E10               	movwf	lcd_8bit_send_command@command^0,c
  6187   00305C  EC66  F01D         	call	_lcd_8bit_send_command	;wreg free
  6188   003060  6E1C               	movwf	lcd_8bit_intialize@ret^0,c
  6189   003062                     l3073:
  6190                           
  6191                           ;ECU_Layer/LCD/ecu_lcd.c: 38:     return ret;
  6192   003062  501C               	movf	lcd_8bit_intialize@ret^0,w,c
  6193   003064  0012               	return		;funcret
  6194   003066                     __end_of_lcd_8bit_intialize:
  6195                           	callstack 0
  6196                           
  6197 ;; *************** function _lcd_8bit_send_command *****************
  6198 ;; Defined at:
  6199 ;;		line 41 in file "ECU_Layer/LCD/ecu_lcd.c"
  6200 ;; Parameters:    Size  Location     Type
  6201 ;;  lcd             2   13[COMRAM] PTR const struct .
  6202 ;;		 -> lcd(10), 
  6203 ;;  command         1   15[COMRAM] unsigned char 
  6204 ;; Auto vars:     Size  Location     Type
  6205 ;;  line_data_pi    1   21[COMRAM] unsigned char 
  6206 ;;  ret             1   20[COMRAM] unsigned char 
  6207 ;; Return value:  Size  Location     Type
  6208 ;;                  1    wreg      unsigned char 
  6209 ;; Registers used:
  6210 ;;		wreg, fsr2l, fsr2h, status,2, status,0, prodl, prodh, cstack
  6211 ;; Tracked objects:
  6212 ;;		On entry : 0/0
  6213 ;;		On exit  : 0/0
  6214 ;;		Unchanged: 0/0
  6215 ;; Data sizes:     COMRAM   BANK0   BANK1   BANK2   BANK3   BANK4   BANK5   BANK6   BANK7   BANK8   BANK9  BANK10  BANK1
      +1  BANK12  BANK13  BANK14  BANK15
  6216 ;;      Params:         3       0       0       0       0       0       0       0       0       0       0       0       
      +0       0       0       0       0
  6217 ;;      Locals:         2       0       0       0       0       0       0       0       0       0       0       0       
      +0       0       0       0       0
  6218 ;;      Temps:          4       0       0       0       0       0       0       0       0       0       0       0       
      +0       0       0       0       0
  6219 ;;      Totals:         9       0       0       0       0       0       0       0       0       0       0       0       
      +0       0       0       0       0
  6220 ;;Total ram usage:        9 bytes
  6221 ;; Hardware stack levels used: 1
  6222 ;; Hardware stack levels required when called: 2
  6223 ;; This function calls:
  6224 ;;		_gpio_pin_write_logic
  6225 ;;		_send_8bit_enable_signal
  6226 ;; This function is called by:
  6227 ;;		_lcd_8bit_intialize
  6228 ;;		_lcd_8bit_set_cursor
  6229 ;; This function uses a non-reentrant model
  6230 ;;
  6231                           
  6232                           	psect	text35
  6233   003ACC                     __ptext35:
  6234                           	callstack 0
  6235   003ACC                     _lcd_8bit_send_command:
  6236                           	callstack 26
  6237   003ACC                     
  6238                           ;ECU_Layer/LCD/ecu_lcd.c: 42:     Std_ReturnType ret = (Std_ReturnType)0x00;
  6239   003ACC  0E00               	movlw	0
  6240   003ACE  6E15               	movwf	lcd_8bit_send_command@ret^0,c
  6241   003AD0                     
  6242                           ;ECU_Layer/LCD/ecu_lcd.c: 43:     if(((void*)0) != lcd){
  6243   003AD0  500E               	movf	lcd_8bit_send_command@lcd^0,w,c
  6244   003AD2  100F               	iorwf	(lcd_8bit_send_command@lcd+1)^0,w,c
  6245   003AD4  B4D8               	btfsc	status,2,c
  6246   003AD6  EF6F  F01D         	goto	u2661
  6247   003ADA  EF71  F01D         	goto	u2660
  6248   003ADE                     u2661:
  6249   003ADE  EFA8  F01D         	goto	l2953
  6250   003AE2                     u2660:
  6251   003AE2  C00E  F001         	movff	lcd_8bit_send_command@lcd,gpio_pin_write_logic@_pin_config
  6252   003AE6  C00F  F002         	movff	lcd_8bit_send_command@lcd+1,gpio_pin_write_logic@_pin_config+1
  6253   003AEA  0E00               	movlw	0
  6254   003AEC  6E03               	movwf	gpio_pin_write_logic@logic^0,c
  6255   003AEE  EC0D  F017         	call	_gpio_pin_write_logic	;wreg free
  6256   003AF2                     
  6257                           ;ECU_Layer/LCD/ecu_lcd.c: 46:         for(uint8 line_data_pin = 0 ; line_data_pin < 8 ; 
      +                          line_data_pin++){
  6258   003AF2  0E00               	movlw	0
  6259   003AF4  6E16               	movwf	lcd_8bit_send_command@line_data_pin^0,c
  6260   003AF6                     l2945:
  6261   003AF6  5016               	movf	lcd_8bit_send_command@line_data_pin^0,w,c
  6262   003AF8  240E               	addwf	lcd_8bit_send_command@lcd^0,w,c
  6263   003AFA  6E11               	movwf	??_lcd_8bit_send_command^0,c
  6264   003AFC  0E00               	movlw	0
  6265   003AFE  200F               	addwfc	(lcd_8bit_send_command@lcd+1)^0,w,c
  6266   003B00  6E12               	movwf	(??_lcd_8bit_send_command+1)^0,c
  6267   003B02  0E02               	movlw	2
  6268   003B04  2411               	addwf	??_lcd_8bit_send_command^0,w,c
  6269   003B06  6E01               	movwf	gpio_pin_write_logic@_pin_config^0,c
  6270   003B08  0E00               	movlw	0
  6271   003B0A  2012               	addwfc	(??_lcd_8bit_send_command+1)^0,w,c
  6272   003B0C  6E02               	movwf	(gpio_pin_write_logic@_pin_config+1)^0,c
  6273   003B0E  C016  F013         	movff	lcd_8bit_send_command@line_data_pin,??_lcd_8bit_send_command+2
  6274   003B12  C010  F014         	movff	lcd_8bit_send_command@command,??_lcd_8bit_send_command+3
  6275   003B16  2A13               	incf	(??_lcd_8bit_send_command+2)^0,f,c
  6276   003B18  EF90  F01D         	goto	u2674
  6277   003B1C                     u2675:
  6278   003B1C  90D8               	bcf	status,0,c
  6279   003B1E  3214               	rrcf	(??_lcd_8bit_send_command+3)^0,f,c
  6280   003B20                     u2674:
  6281   003B20  2E13               	decfsz	(??_lcd_8bit_send_command+2)^0,f,c
  6282   003B22  EF8E  F01D         	goto	u2675
  6283   003B26  5014               	movf	(??_lcd_8bit_send_command+3)^0,w,c
  6284   003B28  0B01               	andlw	1
  6285   003B2A  6E03               	movwf	gpio_pin_write_logic@logic^0,c
  6286   003B2C  EC0D  F017         	call	_gpio_pin_write_logic	;wreg free
  6287   003B30                     
  6288                           ;ECU_Layer/LCD/ecu_lcd.c: 48:         }
  6289   003B30  2A16               	incf	lcd_8bit_send_command@line_data_pin^0,f,c
  6290   003B32  0E07               	movlw	7
  6291   003B34  6416               	cpfsgt	lcd_8bit_send_command@line_data_pin^0,c
  6292   003B36  EF9F  F01D         	goto	u2681
  6293   003B3A  EFA1  F01D         	goto	u2680
  6294   003B3E                     u2681:
  6295   003B3E  EF7B  F01D         	goto	l2945
  6296   003B42                     u2680:
  6297   003B42                     
  6298                           ;ECU_Layer/LCD/ecu_lcd.c: 49:         ret = send_8bit_enable_signal(lcd);
  6299   003B42  C00E  F00B         	movff	lcd_8bit_send_command@lcd,send_8bit_enable_signal@lcd
  6300   003B46  C00F  F00C         	movff	lcd_8bit_send_command@lcd+1,send_8bit_enable_signal@lcd+1
  6301   003B4A  EC44  F01F         	call	_send_8bit_enable_signal	;wreg free
  6302   003B4E  6E15               	movwf	lcd_8bit_send_command@ret^0,c
  6303   003B50                     l2953:
  6304                           
  6305                           ;ECU_Layer/LCD/ecu_lcd.c: 51:     return ret;
  6306   003B50  5015               	movf	lcd_8bit_send_command@ret^0,w,c
  6307   003B52  0012               	return		;funcret
  6308   003B54                     __end_of_lcd_8bit_send_command:
  6309                           	callstack 0
  6310                           
  6311 ;; *************** function _send_8bit_enable_signal *****************
  6312 ;; Defined at:
  6313 ;;		line 98 in file "ECU_Layer/LCD/ecu_lcd.c"
  6314 ;; Parameters:    Size  Location     Type
  6315 ;;  lcd             2   10[COMRAM] PTR const struct .
  6316 ;;		 -> lcd(10), 
  6317 ;; Auto vars:     Size  Location     Type
  6318 ;;  ret             1   12[COMRAM] unsigned char 
  6319 ;; Return value:  Size  Location     Type
  6320 ;;                  1    wreg      unsigned char 
  6321 ;; Registers used:
  6322 ;;		wreg, fsr2l, fsr2h, status,2, status,0, prodl, prodh, cstack
  6323 ;; Tracked objects:
  6324 ;;		On entry : 0/0
  6325 ;;		On exit  : 0/0
  6326 ;;		Unchanged: 0/0
  6327 ;; Data sizes:     COMRAM   BANK0   BANK1   BANK2   BANK3   BANK4   BANK5   BANK6   BANK7   BANK8   BANK9  BANK10  BANK1
      +1  BANK12  BANK13  BANK14  BANK15
  6328 ;;      Params:         2       0       0       0       0       0       0       0       0       0       0       0       
      +0       0       0       0       0
  6329 ;;      Locals:         1       0       0       0       0       0       0       0       0       0       0       0       
      +0       0       0       0       0
  6330 ;;      Temps:          0       0       0       0       0       0       0       0       0       0       0       0       
      +0       0       0       0       0
  6331 ;;      Totals:         3       0       0       0       0       0       0       0       0       0       0       0       
      +0       0       0       0       0
  6332 ;;Total ram usage:        3 bytes
  6333 ;; Hardware stack levels used: 1
  6334 ;; Hardware stack levels required when called: 1
  6335 ;; This function calls:
  6336 ;;		_gpio_pin_write_logic
  6337 ;; This function is called by:
  6338 ;;		_lcd_8bit_send_command
  6339 ;;		_lcd_8bit_send_char
  6340 ;; This function uses a non-reentrant model
  6341 ;;
  6342                           
  6343                           	psect	text36
  6344   003E88                     __ptext36:
  6345                           	callstack 0
  6346   003E88                     _send_8bit_enable_signal:
  6347                           	callstack 26
  6348   003E88                     
  6349                           ;ECU_Layer/LCD/ecu_lcd.c: 99:     Std_ReturnType ret = (Std_ReturnType)0x00;
  6350   003E88  0E00               	movlw	0
  6351   003E8A  6E0D               	movwf	send_8bit_enable_signal@ret^0,c
  6352   003E8C                     
  6353                           ;ECU_Layer/LCD/ecu_lcd.c: 100:     if(((void*)0) != lcd){
  6354   003E8C  500B               	movf	send_8bit_enable_signal@lcd^0,w,c
  6355   003E8E  100C               	iorwf	(send_8bit_enable_signal@lcd+1)^0,w,c
  6356   003E90  B4D8               	btfsc	status,2,c
  6357   003E92  EF4D  F01F         	goto	u2531
  6358   003E96  EF4F  F01F         	goto	u2530
  6359   003E9A                     u2531:
  6360   003E9A  EF67  F01F         	goto	l319
  6361   003E9E                     u2530:
  6362   003E9E  0E01               	movlw	1
  6363   003EA0  240B               	addwf	send_8bit_enable_signal@lcd^0,w,c
  6364   003EA2  6E01               	movwf	gpio_pin_write_logic@_pin_config^0,c
  6365   003EA4  0E00               	movlw	0
  6366   003EA6  200C               	addwfc	(send_8bit_enable_signal@lcd+1)^0,w,c
  6367   003EA8  6E02               	movwf	(gpio_pin_write_logic@_pin_config+1)^0,c
  6368   003EAA  0E01               	movlw	1
  6369   003EAC  6E03               	movwf	gpio_pin_write_logic@logic^0,c
  6370   003EAE  EC0D  F017         	call	_gpio_pin_write_logic	;wreg free
  6371   003EB2                     
  6372                           ;ECU_Layer/LCD/ecu_lcd.c: 103:         _delay((unsigned long)((5)*(4000000/4000000.0)));
  6373   003EB2  D000               	nop2		;2 cycle nop
  6374   003EB4  D000               	nop2		;2 cycle nop
  6375   003EB6  F000               	nop	
  6376   003EB8                     
  6377                           ;ECU_Layer/LCD/ecu_lcd.c: 104:         ret = gpio_pin_write_logic(&(lcd->lcd_enable), GP
      +                          IO_LOW);
  6378   003EB8  0E01               	movlw	1
  6379   003EBA  240B               	addwf	send_8bit_enable_signal@lcd^0,w,c
  6380   003EBC  6E01               	movwf	gpio_pin_write_logic@_pin_config^0,c
  6381   003EBE  0E00               	movlw	0
  6382   003EC0  200C               	addwfc	(send_8bit_enable_signal@lcd+1)^0,w,c
  6383   003EC2  6E02               	movwf	(gpio_pin_write_logic@_pin_config+1)^0,c
  6384   003EC4  0E00               	movlw	0
  6385   003EC6  6E03               	movwf	gpio_pin_write_logic@logic^0,c
  6386   003EC8  EC0D  F017         	call	_gpio_pin_write_logic	;wreg free
  6387   003ECC  6E0D               	movwf	send_8bit_enable_signal@ret^0,c
  6388   003ECE                     l319:
  6389                           
  6390                           ;ECU_Layer/LCD/ecu_lcd.c: 106:     return ret;
  6391   003ECE  500D               	movf	send_8bit_enable_signal@ret^0,w,c
  6392   003ED0  0012               	return		;funcret
  6393   003ED2                     __end_of_send_8bit_enable_signal:
  6394                           	callstack 0
  6395                           
  6396 ;; *************** function _gpio_pin_intialize *****************
  6397 ;; Defined at:
  6398 ;;		line 64 in file "MCAL_Layer/GPIO/hal_gpio.c"
  6399 ;; Parameters:    Size  Location     Type
  6400 ;;  _pin_config     2   10[COMRAM] PTR const struct .
  6401 ;;		 -> lcd.data_lines(8), lcd(10), motor.motor_pin(2), motor(2), 
  6402 ;; Auto vars:     Size  Location     Type
  6403 ;;  ret             1   13[COMRAM] unsigned char 
  6404 ;; Return value:  Size  Location     Type
  6405 ;;                  1    wreg      unsigned char 
  6406 ;; Registers used:
  6407 ;;		wreg, fsr2l, fsr2h, status,2, status,0, prodl, prodh, cstack
  6408 ;; Tracked objects:
  6409 ;;		On entry : 0/0
  6410 ;;		On exit  : 0/0
  6411 ;;		Unchanged: 0/0
  6412 ;; Data sizes:     COMRAM   BANK0   BANK1   BANK2   BANK3   BANK4   BANK5   BANK6   BANK7   BANK8   BANK9  BANK10  BANK1
      +1  BANK12  BANK13  BANK14  BANK15
  6413 ;;      Params:         2       0       0       0       0       0       0       0       0       0       0       0       
      +0       0       0       0       0
  6414 ;;      Locals:         1       0       0       0       0       0       0       0       0       0       0       0       
      +0       0       0       0       0
  6415 ;;      Temps:          1       0       0       0       0       0       0       0       0       0       0       0       
      +0       0       0       0       0
  6416 ;;      Totals:         4       0       0       0       0       0       0       0       0       0       0       0       
      +0       0       0       0       0
  6417 ;;Total ram usage:        4 bytes
  6418 ;; Hardware stack levels used: 1
  6419 ;; Hardware stack levels required when called: 1
  6420 ;; This function calls:
  6421 ;;		_gpio_pin_direction_intialize
  6422 ;;		_gpio_pin_write_logic
  6423 ;; This function is called by:
  6424 ;;		_motor_intialize
  6425 ;;		_lcd_8bit_intialize
  6426 ;; This function uses a non-reentrant model
  6427 ;;
  6428                           
  6429                           	psect	text37
  6430   003CB6                     __ptext37:
  6431                           	callstack 0
  6432   003CB6                     _gpio_pin_intialize:
  6433                           	callstack 26
  6434   003CB6                     
  6435                           ;MCAL_Layer/GPIO/hal_gpio.c: 66:     if(_pin_config == ((void*)0) || _pin_config->pin > 
      +                          8 -1){
  6436   003CB6  500B               	movf	gpio_pin_intialize@_pin_config^0,w,c
  6437   003CB8  100C               	iorwf	(gpio_pin_intialize@_pin_config+1)^0,w,c
  6438   003CBA  B4D8               	btfsc	status,2,c
  6439   003CBC  EF62  F01E         	goto	u2641
  6440   003CC0  EF64  F01E         	goto	u2640
  6441   003CC4                     u2641:
  6442   003CC4  EF75  F01E         	goto	l2883
  6443   003CC8                     u2640:
  6444   003CC8  C00B  FFD9         	movff	gpio_pin_intialize@_pin_config,fsr2l
  6445   003CCC  C00C  FFDA         	movff	gpio_pin_intialize@_pin_config+1,fsr2h
  6446   003CD0  30DF               	rrcf	223,w,c
  6447   003CD2  32E8               	rrcf	wreg,f,c
  6448   003CD4  32E8               	rrcf	wreg,f,c
  6449   003CD6  0B07               	andlw	7
  6450   003CD8  6E0D               	movwf	??_gpio_pin_intialize^0,c
  6451   003CDA  0E07               	movlw	7
  6452   003CDC  640D               	cpfsgt	??_gpio_pin_intialize^0,c
  6453   003CDE  EF73  F01E         	goto	u2651
  6454   003CE2  EF75  F01E         	goto	u2650
  6455   003CE6                     u2651:
  6456   003CE6  EF79  F01E         	goto	l2885
  6457   003CEA                     u2650:
  6458   003CEA                     l2883:
  6459                           
  6460                           ;MCAL_Layer/GPIO/hal_gpio.c: 67:         ret = (Std_ReturnType)0x00;
  6461   003CEA  0E00               	movlw	0
  6462   003CEC  6E0E               	movwf	gpio_pin_intialize@ret^0,c
  6463                           
  6464                           ;MCAL_Layer/GPIO/hal_gpio.c: 68:     }
  6465   003CEE  EF8F  F01E         	goto	l2887
  6466   003CF2                     l2885:
  6467                           
  6468                           ;MCAL_Layer/GPIO/hal_gpio.c: 70:         ret = gpio_pin_direction_intialize(_pin_config)
      +                          ;
  6469   003CF2  C00B  F001         	movff	gpio_pin_intialize@_pin_config,gpio_pin_direction_intialize@_pin_config
  6470   003CF6  C00C  F002         	movff	gpio_pin_intialize@_pin_config+1,gpio_pin_direction_intialize@_pin_config+1
  6471   003CFA  EC6B  F016         	call	_gpio_pin_direction_intialize	;wreg free
  6472   003CFE  6E0E               	movwf	gpio_pin_intialize@ret^0,c
  6473                           
  6474                           ;MCAL_Layer/GPIO/hal_gpio.c: 71:         ret = gpio_pin_write_logic(_pin_config,_pin_con
      +                          fig->logic);
  6475   003D00  C00B  F001         	movff	gpio_pin_intialize@_pin_config,gpio_pin_write_logic@_pin_config
  6476   003D04  C00C  F002         	movff	gpio_pin_intialize@_pin_config+1,gpio_pin_write_logic@_pin_config+1
  6477   003D08  C00B  FFD9         	movff	gpio_pin_intialize@_pin_config,fsr2l
  6478   003D0C  C00C  FFDA         	movff	gpio_pin_intialize@_pin_config+1,fsr2h
  6479   003D10  0E00               	movlw	0
  6480   003D12  BEDF               	btfsc	indf2,7,c
  6481   003D14  0E01               	movlw	1
  6482   003D16  6E03               	movwf	gpio_pin_write_logic@logic^0,c
  6483   003D18  EC0D  F017         	call	_gpio_pin_write_logic	;wreg free
  6484   003D1C  6E0E               	movwf	gpio_pin_intialize@ret^0,c
  6485   003D1E                     l2887:
  6486                           
  6487                           ;MCAL_Layer/GPIO/hal_gpio.c: 73:     return ret;
  6488   003D1E  500E               	movf	gpio_pin_intialize@ret^0,w,c
  6489   003D20  0012               	return		;funcret
  6490   003D22                     __end_of_gpio_pin_intialize:
  6491                           	callstack 0
  6492                           
  6493 ;; *************** function _gpio_pin_write_logic *****************
  6494 ;; Defined at:
  6495 ;;		line 33 in file "MCAL_Layer/GPIO/hal_gpio.c"
  6496 ;; Parameters:    Size  Location     Type
  6497 ;;  _pin_config     2    0[COMRAM] PTR const struct .
  6498 ;;		 -> lcd.data_lines(8), lcd(10), motor.motor_pin(2), motor(2), 
  6499 ;;  logic           1    2[COMRAM] enum E3389
  6500 ;; Auto vars:     Size  Location     Type
  6501 ;;  ret             1    9[COMRAM] unsigned char 
  6502 ;; Return value:  Size  Location     Type
  6503 ;;                  1    wreg      unsigned char 
  6504 ;; Registers used:
  6505 ;;		wreg, fsr2l, fsr2h, status,2, status,0, prodl, prodh
  6506 ;; Tracked objects:
  6507 ;;		On entry : 0/0
  6508 ;;		On exit  : 0/0
  6509 ;;		Unchanged: 0/0
  6510 ;; Data sizes:     COMRAM   BANK0   BANK1   BANK2   BANK3   BANK4   BANK5   BANK6   BANK7   BANK8   BANK9  BANK10  BANK1
      +1  BANK12  BANK13  BANK14  BANK15
  6511 ;;      Params:         3       0       0       0       0       0       0       0       0       0       0       0       
      +0       0       0       0       0
  6512 ;;      Locals:         1       0       0       0       0       0       0       0       0       0       0       0       
      +0       0       0       0       0
  6513 ;;      Temps:          6       0       0       0       0       0       0       0       0       0       0       0       
      +0       0       0       0       0
  6514 ;;      Totals:        10       0       0       0       0       0       0       0       0       0       0       0       
      +0       0       0       0       0
  6515 ;;Total ram usage:       10 bytes
  6516 ;; Hardware stack levels used: 1
  6517 ;; This function calls:
  6518 ;;		Nothing
  6519 ;; This function is called by:
  6520 ;;		_motor_move
  6521 ;;		_gpio_pin_intialize
  6522 ;;		_lcd_8bit_send_command
  6523 ;;		_lcd_8bit_send_char
  6524 ;;		_send_8bit_enable_signal
  6525 ;; This function uses a non-reentrant model
  6526 ;;
  6527                           
  6528                           	psect	text38
  6529   002E1A                     __ptext38:
  6530                           	callstack 0
  6531   002E1A                     _gpio_pin_write_logic:
  6532                           	callstack 29
  6533   002E1A                     
  6534                           ;MCAL_Layer/GPIO/hal_gpio.c: 34:     Std_ReturnType ret = (Std_ReturnType)0x01;
  6535   002E1A  0E01               	movlw	1
  6536   002E1C  6E0A               	movwf	gpio_pin_write_logic@ret^0,c
  6537   002E1E                     
  6538                           ;MCAL_Layer/GPIO/hal_gpio.c: 35:     if(_pin_config == ((void*)0) || _pin_config->pin > 
      +                          8 -1){
  6539   002E1E  5001               	movf	gpio_pin_write_logic@_pin_config^0,w,c
  6540   002E20  1002               	iorwf	(gpio_pin_write_logic@_pin_config+1)^0,w,c
  6541   002E22  B4D8               	btfsc	status,2,c
  6542   002E24  EF16  F017         	goto	u2271
  6543   002E28  EF18  F017         	goto	u2270
  6544   002E2C                     u2271:
  6545   002E2C  EF29  F017         	goto	l2671
  6546   002E30                     u2270:
  6547   002E30  C001  FFD9         	movff	gpio_pin_write_logic@_pin_config,fsr2l
  6548   002E34  C002  FFDA         	movff	gpio_pin_write_logic@_pin_config+1,fsr2h
  6549   002E38  30DF               	rrcf	223,w,c
  6550   002E3A  32E8               	rrcf	wreg,f,c
  6551   002E3C  32E8               	rrcf	wreg,f,c
  6552   002E3E  0B07               	andlw	7
  6553   002E40  6E04               	movwf	??_gpio_pin_write_logic^0,c
  6554   002E42  0E07               	movlw	7
  6555   002E44  6404               	cpfsgt	??_gpio_pin_write_logic^0,c
  6556   002E46  EF27  F017         	goto	u2281
  6557   002E4A  EF29  F017         	goto	u2280
  6558   002E4E                     u2281:
  6559   002E4E  EF8C  F017         	goto	l2679
  6560   002E52                     u2280:
  6561   002E52                     l2671:
  6562                           
  6563                           ;MCAL_Layer/GPIO/hal_gpio.c: 36:         ret = (Std_ReturnType)0x00;
  6564   002E52  0E00               	movlw	0
  6565   002E54  6E0A               	movwf	gpio_pin_write_logic@ret^0,c
  6566                           
  6567                           ;MCAL_Layer/GPIO/hal_gpio.c: 37:     }
  6568   002E56  EFA1  F017         	goto	l2681
  6569   002E5A                     l2673:
  6570                           
  6571                           ;MCAL_Layer/GPIO/hal_gpio.c: 41:                 (*lat_registers[_pin_config->port] &= ~
      +                          ((uint8) 1 << _pin_config->pin));
  6572   002E5A  C001  FFD9         	movff	gpio_pin_write_logic@_pin_config,fsr2l
  6573   002E5E  C002  FFDA         	movff	gpio_pin_write_logic@_pin_config+1,fsr2h
  6574   002E62  30DF               	rrcf	223,w,c
  6575   002E64  32E8               	rrcf	wreg,f,c
  6576   002E66  32E8               	rrcf	wreg,f,c
  6577   002E68  0B07               	andlw	7
  6578   002E6A  6E04               	movwf	??_gpio_pin_write_logic^0,c
  6579   002E6C  0E01               	movlw	1
  6580   002E6E  6E05               	movwf	(??_gpio_pin_write_logic+1)^0,c
  6581   002E70  2A04               	incf	??_gpio_pin_write_logic^0,f,c
  6582   002E72  EF3D  F017         	goto	u2294
  6583   002E76                     u2295:
  6584   002E76  90D8               	bcf	status,0,c
  6585   002E78  3605               	rlcf	(??_gpio_pin_write_logic+1)^0,f,c
  6586   002E7A                     u2294:
  6587   002E7A  2E04               	decfsz	??_gpio_pin_write_logic^0,f,c
  6588   002E7C  EF3B  F017         	goto	u2295
  6589   002E80  5005               	movf	(??_gpio_pin_write_logic+1)^0,w,c
  6590   002E82  0AFF               	xorlw	255
  6591   002E84  6E06               	movwf	(??_gpio_pin_write_logic+2)^0,c
  6592   002E86  C001  FFD9         	movff	gpio_pin_write_logic@_pin_config,fsr2l
  6593   002E8A  C002  FFDA         	movff	gpio_pin_write_logic@_pin_config+1,fsr2h
  6594   002E8E  50DF               	movf	223,w,c
  6595   002E90  0B07               	andlw	7
  6596   002E92  6E07               	movwf	(??_gpio_pin_write_logic+3)^0,c
  6597   002E94  5007               	movf	(??_gpio_pin_write_logic+3)^0,w,c
  6598   002E96  0D02               	mullw	2
  6599   002E98  0E80               	movlw	low _lat_registers
  6600   002E9A  24F3               	addwf	243,w,c
  6601   002E9C  6ED9               	movwf	fsr2l,c
  6602   002E9E  0E00               	movlw	high _lat_registers
  6603   002EA0  20F4               	addwfc	prodh,w,c
  6604   002EA2  6EDA               	movwf	fsr2h,c
  6605   002EA4  CFDE F008          	movff	postinc2,??_gpio_pin_write_logic+4
  6606   002EA8  CFDD F009          	movff	postdec2,??_gpio_pin_write_logic+5
  6607   002EAC  C008  FFD9         	movff	??_gpio_pin_write_logic+4,fsr2l
  6608   002EB0  C009  FFDA         	movff	??_gpio_pin_write_logic+5,fsr2h
  6609   002EB4  5006               	movf	(??_gpio_pin_write_logic+2)^0,w,c
  6610   002EB6  16DF               	andwf	indf2,f,c
  6611                           
  6612                           ;MCAL_Layer/GPIO/hal_gpio.c: 42:                 break;
  6613   002EB8  EFA1  F017         	goto	l2681
  6614   002EBC                     l2675:
  6615                           
  6616                           ;MCAL_Layer/GPIO/hal_gpio.c: 44:                 (*lat_registers[_pin_config->port] |= (
      +                          (uint8) 1 << _pin_config->pin));
  6617   002EBC  C001  FFD9         	movff	gpio_pin_write_logic@_pin_config,fsr2l
  6618   002EC0  C002  FFDA         	movff	gpio_pin_write_logic@_pin_config+1,fsr2h
  6619   002EC4  30DF               	rrcf	223,w,c
  6620   002EC6  32E8               	rrcf	wreg,f,c
  6621   002EC8  32E8               	rrcf	wreg,f,c
  6622   002ECA  0B07               	andlw	7
  6623   002ECC  6E04               	movwf	??_gpio_pin_write_logic^0,c
  6624   002ECE  0E01               	movlw	1
  6625   002ED0  6E05               	movwf	(??_gpio_pin_write_logic+1)^0,c
  6626   002ED2  2A04               	incf	??_gpio_pin_write_logic^0,f,c
  6627   002ED4  EF6E  F017         	goto	u2304
  6628   002ED8                     u2305:
  6629   002ED8  90D8               	bcf	status,0,c
  6630   002EDA  3605               	rlcf	(??_gpio_pin_write_logic+1)^0,f,c
  6631   002EDC                     u2304:
  6632   002EDC  2E04               	decfsz	??_gpio_pin_write_logic^0,f,c
  6633   002EDE  EF6C  F017         	goto	u2305
  6634   002EE2  C001  FFD9         	movff	gpio_pin_write_logic@_pin_config,fsr2l
  6635   002EE6  C002  FFDA         	movff	gpio_pin_write_logic@_pin_config+1,fsr2h
  6636   002EEA  50DF               	movf	223,w,c
  6637   002EEC  0B07               	andlw	7
  6638   002EEE  6E06               	movwf	(??_gpio_pin_write_logic+2)^0,c
  6639   002EF0  5006               	movf	(??_gpio_pin_write_logic+2)^0,w,c
  6640   002EF2  0D02               	mullw	2
  6641   002EF4  0E80               	movlw	low _lat_registers
  6642   002EF6  24F3               	addwf	243,w,c
  6643   002EF8  6ED9               	movwf	fsr2l,c
  6644   002EFA  0E00               	movlw	high _lat_registers
  6645   002EFC  20F4               	addwfc	prodh,w,c
  6646   002EFE  6EDA               	movwf	fsr2h,c
  6647   002F00  CFDE F007          	movff	postinc2,??_gpio_pin_write_logic+3
  6648   002F04  CFDD F008          	movff	postdec2,??_gpio_pin_write_logic+4
  6649   002F08  C007  FFD9         	movff	??_gpio_pin_write_logic+3,fsr2l
  6650   002F0C  C008  FFDA         	movff	??_gpio_pin_write_logic+4,fsr2h
  6651   002F10  5005               	movf	(??_gpio_pin_write_logic+1)^0,w,c
  6652   002F12  12DF               	iorwf	indf2,f,c
  6653                           
  6654                           ;MCAL_Layer/GPIO/hal_gpio.c: 45:                 break;
  6655   002F14  EFA1  F017         	goto	l2681
  6656   002F18                     l2679:
  6657   002F18  5003               	movf	gpio_pin_write_logic@logic^0,w,c
  6658   002F1A  6E04               	movwf	??_gpio_pin_write_logic^0,c
  6659   002F1C  6A05               	clrf	(??_gpio_pin_write_logic+1)^0,c
  6660                           
  6661                           ; Switch on 2 bytes has been partitioned into a top level switch of size 1, and 1 sub-sw
      +                          itches
  6662                           ; Switch size 1, requested type "simple"
  6663                           ; Number of cases is 1, Range of values is 0 to 0
  6664                           ; switch strategies available:
  6665                           ; Name         Instructions Cycles
  6666                           ; simple_byte            4     3 (average)
  6667                           ;	Chosen strategy is simple_byte
  6668   002F1E  5005               	movf	(??_gpio_pin_write_logic+1)^0,w,c
  6669   002F20  0A00               	xorlw	0	; case 0
  6670   002F22  B4D8               	btfsc	status,2,c
  6671   002F24  EF96  F017         	goto	l4219
  6672   002F28  EF29  F017         	goto	l2671
  6673   002F2C                     l4219:
  6674                           
  6675                           ; Switch size 1, requested type "simple"
  6676                           ; Number of cases is 2, Range of values is 0 to 1
  6677                           ; switch strategies available:
  6678                           ; Name         Instructions Cycles
  6679                           ; simple_byte            7     4 (average)
  6680                           ;	Chosen strategy is simple_byte
  6681   002F2C  5004               	movf	??_gpio_pin_write_logic^0,w,c
  6682   002F2E  0A00               	xorlw	0	; case 0
  6683   002F30  B4D8               	btfsc	status,2,c
  6684   002F32  EF2D  F017         	goto	l2673
  6685   002F36  0A01               	xorlw	1	; case 1
  6686   002F38  B4D8               	btfsc	status,2,c
  6687   002F3A  EF5E  F017         	goto	l2675
  6688   002F3E  EF29  F017         	goto	l2671
  6689   002F42                     l2681:
  6690                           
  6691                           ;MCAL_Layer/GPIO/hal_gpio.c: 49:     return ret;
  6692   002F42  500A               	movf	gpio_pin_write_logic@ret^0,w,c
  6693   002F44  0012               	return		;funcret
  6694   002F46                     __end_of_gpio_pin_write_logic:
  6695                           	callstack 0
  6696                           
  6697 ;; *************** function _gpio_pin_direction_intialize *****************
  6698 ;; Defined at:
  6699 ;;		line 14 in file "MCAL_Layer/GPIO/hal_gpio.c"
  6700 ;; Parameters:    Size  Location     Type
  6701 ;;  _pin_config     2    0[COMRAM] PTR const struct .
  6702 ;;		 -> lcd.data_lines(8), lcd(10), motor.motor_pin(2), motor(2), 
  6703 ;; Auto vars:     Size  Location     Type
  6704 ;;  ret             1    8[COMRAM] unsigned char 
  6705 ;; Return value:  Size  Location     Type
  6706 ;;                  1    wreg      unsigned char 
  6707 ;; Registers used:
  6708 ;;		wreg, fsr2l, fsr2h, status,2, status,0, prodl, prodh
  6709 ;; Tracked objects:
  6710 ;;		On entry : 0/0
  6711 ;;		On exit  : 0/0
  6712 ;;		Unchanged: 0/0
  6713 ;; Data sizes:     COMRAM   BANK0   BANK1   BANK2   BANK3   BANK4   BANK5   BANK6   BANK7   BANK8   BANK9  BANK10  BANK1
      +1  BANK12  BANK13  BANK14  BANK15
  6714 ;;      Params:         2       0       0       0       0       0       0       0       0       0       0       0       
      +0       0       0       0       0
  6715 ;;      Locals:         1       0       0       0       0       0       0       0       0       0       0       0       
      +0       0       0       0       0
  6716 ;;      Temps:          6       0       0       0       0       0       0       0       0       0       0       0       
      +0       0       0       0       0
  6717 ;;      Totals:         9       0       0       0       0       0       0       0       0       0       0       0       
      +0       0       0       0       0
  6718 ;;Total ram usage:        9 bytes
  6719 ;; Hardware stack levels used: 1
  6720 ;; This function calls:
  6721 ;;		Nothing
  6722 ;; This function is called by:
  6723 ;;		_gpio_pin_intialize
  6724 ;; This function uses a non-reentrant model
  6725 ;;
  6726                           
  6727                           	psect	text39
  6728   002CD6                     __ptext39:
  6729                           	callstack 0
  6730   002CD6                     _gpio_pin_direction_intialize:
  6731                           	callstack 26
  6732   002CD6                     
  6733                           ;MCAL_Layer/GPIO/hal_gpio.c: 15:     Std_ReturnType ret = (Std_ReturnType)0x01;
  6734   002CD6  0E01               	movlw	1
  6735   002CD8  6E09               	movwf	gpio_pin_direction_intialize@ret^0,c
  6736   002CDA                     
  6737                           ;MCAL_Layer/GPIO/hal_gpio.c: 16:     if(_pin_config == ((void*)0) || _pin_config->pin > 
      +                          8 -1){
  6738   002CDA  5001               	movf	gpio_pin_direction_intialize@_pin_config^0,w,c
  6739   002CDC  1002               	iorwf	(gpio_pin_direction_intialize@_pin_config+1)^0,w,c
  6740   002CDE  B4D8               	btfsc	status,2,c
  6741   002CE0  EF74  F016         	goto	u2471
  6742   002CE4  EF76  F016         	goto	u2470
  6743   002CE8                     u2471:
  6744   002CE8  EF87  F016         	goto	l2793
  6745   002CEC                     u2470:
  6746   002CEC  C001  FFD9         	movff	gpio_pin_direction_intialize@_pin_config,fsr2l
  6747   002CF0  C002  FFDA         	movff	gpio_pin_direction_intialize@_pin_config+1,fsr2h
  6748   002CF4  30DF               	rrcf	223,w,c
  6749   002CF6  32E8               	rrcf	wreg,f,c
  6750   002CF8  32E8               	rrcf	wreg,f,c
  6751   002CFA  0B07               	andlw	7
  6752   002CFC  6E03               	movwf	??_gpio_pin_direction_intialize^0,c
  6753   002CFE  0E07               	movlw	7
  6754   002D00  6403               	cpfsgt	??_gpio_pin_direction_intialize^0,c
  6755   002D02  EF85  F016         	goto	u2481
  6756   002D06  EF87  F016         	goto	u2480
  6757   002D0A                     u2481:
  6758   002D0A  EFEA  F016         	goto	l2801
  6759   002D0E                     u2480:
  6760   002D0E                     l2793:
  6761                           
  6762                           ;MCAL_Layer/GPIO/hal_gpio.c: 17:         ret = (Std_ReturnType)0x00;
  6763   002D0E  0E00               	movlw	0
  6764   002D10  6E09               	movwf	gpio_pin_direction_intialize@ret^0,c
  6765                           
  6766                           ;MCAL_Layer/GPIO/hal_gpio.c: 18:     }
  6767   002D12  EF0B  F017         	goto	l2803
  6768   002D16                     l2795:
  6769                           
  6770                           ;MCAL_Layer/GPIO/hal_gpio.c: 22:                 (*tris_registers[_pin_config->port] &= 
      +                          ~((uint8) 1 << _pin_config->pin));
  6771   002D16  C001  FFD9         	movff	gpio_pin_direction_intialize@_pin_config,fsr2l
  6772   002D1A  C002  FFDA         	movff	gpio_pin_direction_intialize@_pin_config+1,fsr2h
  6773   002D1E  30DF               	rrcf	223,w,c
  6774   002D20  32E8               	rrcf	wreg,f,c
  6775   002D22  32E8               	rrcf	wreg,f,c
  6776   002D24  0B07               	andlw	7
  6777   002D26  6E03               	movwf	??_gpio_pin_direction_intialize^0,c
  6778   002D28  0E01               	movlw	1
  6779   002D2A  6E04               	movwf	(??_gpio_pin_direction_intialize+1)^0,c
  6780   002D2C  2A03               	incf	??_gpio_pin_direction_intialize^0,f,c
  6781   002D2E  EF9B  F016         	goto	u2494
  6782   002D32                     u2495:
  6783   002D32  90D8               	bcf	status,0,c
  6784   002D34  3604               	rlcf	(??_gpio_pin_direction_intialize+1)^0,f,c
  6785   002D36                     u2494:
  6786   002D36  2E03               	decfsz	??_gpio_pin_direction_intialize^0,f,c
  6787   002D38  EF99  F016         	goto	u2495
  6788   002D3C  5004               	movf	(??_gpio_pin_direction_intialize+1)^0,w,c
  6789   002D3E  0AFF               	xorlw	255
  6790   002D40  6E05               	movwf	(??_gpio_pin_direction_intialize+2)^0,c
  6791   002D42  C001  FFD9         	movff	gpio_pin_direction_intialize@_pin_config,fsr2l
  6792   002D46  C002  FFDA         	movff	gpio_pin_direction_intialize@_pin_config+1,fsr2h
  6793   002D4A  50DF               	movf	223,w,c
  6794   002D4C  0B07               	andlw	7
  6795   002D4E  6E06               	movwf	(??_gpio_pin_direction_intialize+3)^0,c
  6796   002D50  5006               	movf	(??_gpio_pin_direction_intialize+3)^0,w,c
  6797   002D52  0D02               	mullw	2
  6798   002D54  0E94               	movlw	low _tris_registers
  6799   002D56  24F3               	addwf	243,w,c
  6800   002D58  6ED9               	movwf	fsr2l,c
  6801   002D5A  0E00               	movlw	high _tris_registers
  6802   002D5C  20F4               	addwfc	prodh,w,c
  6803   002D5E  6EDA               	movwf	fsr2h,c
  6804   002D60  CFDE F007          	movff	postinc2,??_gpio_pin_direction_intialize+4
  6805   002D64  CFDD F008          	movff	postdec2,??_gpio_pin_direction_intialize+5
  6806   002D68  C007  FFD9         	movff	??_gpio_pin_direction_intialize+4,fsr2l
  6807   002D6C  C008  FFDA         	movff	??_gpio_pin_direction_intialize+5,fsr2h
  6808   002D70  5005               	movf	(??_gpio_pin_direction_intialize+2)^0,w,c
  6809   002D72  16DF               	andwf	indf2,f,c
  6810                           
  6811                           ;MCAL_Layer/GPIO/hal_gpio.c: 23:                 break;
  6812   002D74  EF0B  F017         	goto	l2803
  6813   002D78                     l2797:
  6814                           
  6815                           ;MCAL_Layer/GPIO/hal_gpio.c: 25:                 (*tris_registers[_pin_config->port] |= 
      +                          ((uint8) 1 << _pin_config->pin));
  6816   002D78  C001  FFD9         	movff	gpio_pin_direction_intialize@_pin_config,fsr2l
  6817   002D7C  C002  FFDA         	movff	gpio_pin_direction_intialize@_pin_config+1,fsr2h
  6818   002D80  30DF               	rrcf	223,w,c
  6819   002D82  32E8               	rrcf	wreg,f,c
  6820   002D84  32E8               	rrcf	wreg,f,c
  6821   002D86  0B07               	andlw	7
  6822   002D88  6E03               	movwf	??_gpio_pin_direction_intialize^0,c
  6823   002D8A  0E01               	movlw	1
  6824   002D8C  6E04               	movwf	(??_gpio_pin_direction_intialize+1)^0,c
  6825   002D8E  2A03               	incf	??_gpio_pin_direction_intialize^0,f,c
  6826   002D90  EFCC  F016         	goto	u2504
  6827   002D94                     u2505:
  6828   002D94  90D8               	bcf	status,0,c
  6829   002D96  3604               	rlcf	(??_gpio_pin_direction_intialize+1)^0,f,c
  6830   002D98                     u2504:
  6831   002D98  2E03               	decfsz	??_gpio_pin_direction_intialize^0,f,c
  6832   002D9A  EFCA  F016         	goto	u2505
  6833   002D9E  C001  FFD9         	movff	gpio_pin_direction_intialize@_pin_config,fsr2l
  6834   002DA2  C002  FFDA         	movff	gpio_pin_direction_intialize@_pin_config+1,fsr2h
  6835   002DA6  50DF               	movf	223,w,c
  6836   002DA8  0B07               	andlw	7
  6837   002DAA  6E05               	movwf	(??_gpio_pin_direction_intialize+2)^0,c
  6838   002DAC  5005               	movf	(??_gpio_pin_direction_intialize+2)^0,w,c
  6839   002DAE  0D02               	mullw	2
  6840   002DB0  0E94               	movlw	low _tris_registers
  6841   002DB2  24F3               	addwf	243,w,c
  6842   002DB4  6ED9               	movwf	fsr2l,c
  6843   002DB6  0E00               	movlw	high _tris_registers
  6844   002DB8  20F4               	addwfc	prodh,w,c
  6845   002DBA  6EDA               	movwf	fsr2h,c
  6846   002DBC  CFDE F006          	movff	postinc2,??_gpio_pin_direction_intialize+3
  6847   002DC0  CFDD F007          	movff	postdec2,??_gpio_pin_direction_intialize+4
  6848   002DC4  C006  FFD9         	movff	??_gpio_pin_direction_intialize+3,fsr2l
  6849   002DC8  C007  FFDA         	movff	??_gpio_pin_direction_intialize+4,fsr2h
  6850   002DCC  5004               	movf	(??_gpio_pin_direction_intialize+1)^0,w,c
  6851   002DCE  12DF               	iorwf	indf2,f,c
  6852                           
  6853                           ;MCAL_Layer/GPIO/hal_gpio.c: 26:                 break;
  6854   002DD0  EF0B  F017         	goto	l2803
  6855   002DD4                     l2801:
  6856   002DD4  C001  FFD9         	movff	gpio_pin_direction_intialize@_pin_config,fsr2l
  6857   002DD8  C002  FFDA         	movff	gpio_pin_direction_intialize@_pin_config+1,fsr2h
  6858   002DDC  BCDF               	btfsc	indf2,6,c
  6859   002DDE  EFF3  F016         	goto	u2511
  6860   002DE2  EFF6  F016         	goto	u2510
  6861   002DE6                     u2511:
  6862   002DE6  0E01               	movlw	1
  6863   002DE8  EFF7  F016         	goto	u2520
  6864   002DEC                     u2510:
  6865   002DEC  0E00               	movlw	0
  6866   002DEE                     u2520:
  6867   002DEE  6E03               	movwf	??_gpio_pin_direction_intialize^0,c
  6868   002DF0  6A04               	clrf	(??_gpio_pin_direction_intialize+1)^0,c
  6869                           
  6870                           ; Switch on 2 bytes has been partitioned into a top level switch of size 1, and 1 sub-sw
      +                          itches
  6871                           ; Switch size 1, requested type "simple"
  6872                           ; Number of cases is 1, Range of values is 0 to 0
  6873                           ; switch strategies available:
  6874                           ; Name         Instructions Cycles
  6875                           ; simple_byte            4     3 (average)
  6876                           ;	Chosen strategy is simple_byte
  6877   002DF2  5004               	movf	(??_gpio_pin_direction_intialize+1)^0,w,c
  6878   002DF4  0A00               	xorlw	0	; case 0
  6879   002DF6  B4D8               	btfsc	status,2,c
  6880   002DF8  EF00  F017         	goto	l4221
  6881   002DFC  EF87  F016         	goto	l2793
  6882   002E00                     l4221:
  6883                           
  6884                           ; Switch size 1, requested type "simple"
  6885                           ; Number of cases is 2, Range of values is 0 to 1
  6886                           ; switch strategies available:
  6887                           ; Name         Instructions Cycles
  6888                           ; simple_byte            7     4 (average)
  6889                           ;	Chosen strategy is simple_byte
  6890   002E00  5003               	movf	??_gpio_pin_direction_intialize^0,w,c
  6891   002E02  0A00               	xorlw	0	; case 0
  6892   002E04  B4D8               	btfsc	status,2,c
  6893   002E06  EF8B  F016         	goto	l2795
  6894   002E0A  0A01               	xorlw	1	; case 1
  6895   002E0C  B4D8               	btfsc	status,2,c
  6896   002E0E  EFBC  F016         	goto	l2797
  6897   002E12  EF87  F016         	goto	l2793
  6898   002E16                     l2803:
  6899                           
  6900                           ;MCAL_Layer/GPIO/hal_gpio.c: 30:     return ret;
  6901   002E16  5009               	movf	gpio_pin_direction_intialize@ret^0,w,c
  6902   002E18  0012               	return		;funcret
  6903   002E1A                     __end_of_gpio_pin_direction_intialize:
  6904                           	callstack 0
  6905                           
  6906 ;; *************** function _CCP1_PWM_Set_Duty *****************
  6907 ;; Defined at:
  6908 ;;		line 33 in file "MCAL_Layer/PWM/hal_pwm.c"
  6909 ;; Parameters:    Size  Location     Type
  6910 ;;  duty            1    wreg     unsigned char 
  6911 ;; Auto vars:     Size  Location     Type
  6912 ;;  duty            1  109[COMRAM] unsigned char 
  6913 ;;  duty_cycle      2  107[COMRAM] unsigned short 
  6914 ;;  ret             1  106[COMRAM] unsigned char 
  6915 ;; Return value:  Size  Location     Type
  6916 ;;                  1    wreg      unsigned char 
  6917 ;; Registers used:
  6918 ;;		wreg, status,2, status,0, prodl, prodh, cstack
  6919 ;; Tracked objects:
  6920 ;;		On entry : 0/0
  6921 ;;		On exit  : 0/0
  6922 ;;		Unchanged: 0/0
  6923 ;; Data sizes:     COMRAM   BANK0   BANK1   BANK2   BANK3   BANK4   BANK5   BANK6   BANK7   BANK8   BANK9  BANK10  BANK1
      +1  BANK12  BANK13  BANK14  BANK15
  6924 ;;      Params:         0       0       0       0       0       0       0       0       0       0       0       0       
      +0       0       0       0       0
  6925 ;;      Locals:         8       0       0       0       0       0       0       0       0       0       0       0       
      +0       0       0       0       0
  6926 ;;      Temps:          2       0       0       0       0       0       0       0       0       0       0       0       
      +0       0       0       0       0
  6927 ;;      Totals:        10       0       0       0       0       0       0       0       0       0       0       0       
      +0       0       0       0       0
  6928 ;;Total ram usage:       10 bytes
  6929 ;; Hardware stack levels used: 1
  6930 ;; Hardware stack levels required when called: 1
  6931 ;; This function calls:
  6932 ;;		___fldiv
  6933 ;;		___flmul
  6934 ;;		___fltol
  6935 ;;		___xxtofl
  6936 ;; This function is called by:
  6937 ;;		_main
  6938 ;; This function uses a non-reentrant model
  6939 ;;
  6940                           
  6941                           	psect	text40
  6942   003066                     __ptext40:
  6943                           	callstack 0
  6944   003066                     _CCP1_PWM_Set_Duty:
  6945                           	callstack 29
  6946                           
  6947                           ;incstack = 0
  6948                           ;CCP1_PWM_Set_Duty@duty stored from wreg
  6949   003066  6E6E               	movwf	CCP1_PWM_Set_Duty@duty^0,c
  6950   003068                     
  6951                           ;MCAL_Layer/PWM/hal_pwm.c: 34:     Std_ReturnType ret = (Std_ReturnType)0x00;
  6952   003068  0E00               	movlw	0
  6953   00306A  6E6B               	movwf	CCP1_PWM_Set_Duty@ret^0,c
  6954   00306C                     
  6955                           ;MCAL_Layer/PWM/hal_pwm.c: 36:     if(100 >= duty)
  6956   00306C  0E65               	movlw	101
  6957   00306E  606E               	cpfslt	CCP1_PWM_Set_Duty@duty^0,c
  6958   003070  EF3C  F018         	goto	u4181
  6959   003074  EF3E  F018         	goto	u4180
  6960   003078                     u4181:
  6961   003078  EFC0  F018         	goto	l3971
  6962   00307C                     u4180:
  6963   00307C                     
  6964                           ;MCAL_Layer/PWM/hal_pwm.c: 37:     {;MCAL_Layer/PWM/hal_pwm.c: 38:         ret = (Std_Re
      +                          turnType)0x01;
  6965   00307C  0E01               	movlw	1
  6966   00307E  6E6B               	movwf	CCP1_PWM_Set_Duty@ret^0,c
  6967   003080                     
  6968                           ;MCAL_Layer/PWM/hal_pwm.c: 40:         duty = 100 - duty;
  6969   003080  506E               	movf	CCP1_PWM_Set_Duty@duty^0,w,c
  6970   003082  0864               	sublw	100
  6971   003084  6E6E               	movwf	CCP1_PWM_Set_Duty@duty^0,c
  6972   003086                     
  6973                           ;MCAL_Layer/PWM/hal_pwm.c: 42:         uint16 duty_cycle = (uint16)((PR2 + 1) * (duty / 
      +                          100.0) * 4);
  6974   003086  0E00               	movlw	0
  6975   003088  6E13               	movwf	___fldiv@a^0,c
  6976   00308A  0E00               	movlw	0
  6977   00308C  6E14               	movwf	(___fldiv@a+1)^0,c
  6978   00308E  0EC8               	movlw	200
  6979   003090  6E15               	movwf	(___fldiv@a+2)^0,c
  6980   003092  0E42               	movlw	66
  6981   003094  6E16               	movwf	(___fldiv@a+3)^0,c
  6982   003096  506E               	movf	CCP1_PWM_Set_Duty@duty^0,w,c
  6983   003098  6E01               	movwf	___xxtofl@val^0,c
  6984   00309A  6A02               	clrf	(___xxtofl@val+1)^0,c
  6985   00309C  6A03               	clrf	(___xxtofl@val+2)^0,c
  6986   00309E  6A04               	clrf	(___xxtofl@val+3)^0,c
  6987   0030A0  0E01               	movlw	1
  6988   0030A2  ECBA  F012         	call	___xxtofl
  6989   0030A6  C001  F00F         	movff	?___xxtofl,___fldiv@b
  6990   0030AA  C002  F010         	movff	?___xxtofl+1,___fldiv@b+1
  6991   0030AE  C003  F011         	movff	?___xxtofl+2,___fldiv@b+2
  6992   0030B2  C004  F012         	movff	?___xxtofl+3,___fldiv@b+3
  6993   0030B6  EC61  F00E         	call	___fldiv	;wreg free
  6994   0030BA  C00F  F02C         	movff	?___fldiv,___flmul@a
  6995   0030BE  C010  F02D         	movff	?___fldiv+1,___flmul@a+1
  6996   0030C2  C011  F02E         	movff	?___fldiv+2,___flmul@a+2
  6997   0030C6  C012  F02F         	movff	?___fldiv+3,___flmul@a+3
  6998   0030CA  50CB               	movf	203,w,c	;volatile
  6999   0030CC  6E65               	movwf	??_CCP1_PWM_Set_Duty^0,c
  7000   0030CE  6A66               	clrf	(??_CCP1_PWM_Set_Duty+1)^0,c
  7001   0030D0  0E01               	movlw	1
  7002   0030D2  2665               	addwf	??_CCP1_PWM_Set_Duty^0,f,c
  7003   0030D4  0E00               	movlw	0
  7004   0030D6  2266               	addwfc	(??_CCP1_PWM_Set_Duty+1)^0,f,c
  7005   0030D8  C065  F001         	movff	??_CCP1_PWM_Set_Duty,___xxtofl@val
  7006   0030DC  C066  F002         	movff	??_CCP1_PWM_Set_Duty+1,___xxtofl@val+1
  7007   0030E0  0E00               	movlw	0
  7008   0030E2  BE02               	btfsc	(___xxtofl@val+1)^0,7,c
  7009   0030E4  0EFF               	movlw	-1
  7010   0030E6  6E03               	movwf	(___xxtofl@val+2)^0,c
  7011   0030E8  6E04               	movwf	(___xxtofl@val+3)^0,c
  7012   0030EA  0E01               	movlw	1
  7013   0030EC  ECBA  F012         	call	___xxtofl
  7014   0030F0  C001  F028         	movff	?___xxtofl,___flmul@b
  7015   0030F4  C002  F029         	movff	?___xxtofl+1,___flmul@b+1
  7016   0030F8  C003  F02A         	movff	?___xxtofl+2,___flmul@b+2
  7017   0030FC  C004  F02B         	movff	?___xxtofl+3,___flmul@b+3
  7018   003100  EC75  F00A         	call	___flmul	;wreg free
  7019   003104  C028  F067         	movff	?___flmul,_CCP1_PWM_Set_Duty$1765
  7020   003108  C029  F068         	movff	?___flmul+1,_CCP1_PWM_Set_Duty$1765+1
  7021   00310C  C02A  F069         	movff	?___flmul+2,_CCP1_PWM_Set_Duty$1765+2
  7022   003110  C02B  F06A         	movff	?___flmul+3,_CCP1_PWM_Set_Duty$1765+3
  7023   003114                     
  7024                           ;MCAL_Layer/PWM/hal_pwm.c: 42:         uint16 duty_cycle = (uint16)((PR2 + 1) * (duty / 
      +                          100.0) * 4);
  7025   003114  0E00               	movlw	0
  7026   003116  6E2C               	movwf	___flmul@a^0,c
  7027   003118  0E00               	movlw	0
  7028   00311A  6E2D               	movwf	(___flmul@a+1)^0,c
  7029   00311C  0E80               	movlw	128
  7030   00311E  6E2E               	movwf	(___flmul@a+2)^0,c
  7031   003120  0E40               	movlw	64
  7032   003122  6E2F               	movwf	(___flmul@a+3)^0,c
  7033   003124  C067  F028         	movff	_CCP1_PWM_Set_Duty$1765,___flmul@b
  7034   003128  C068  F029         	movff	_CCP1_PWM_Set_Duty$1765+1,___flmul@b+1
  7035   00312C  C069  F02A         	movff	_CCP1_PWM_Set_Duty$1765+2,___flmul@b+2
  7036   003130  C06A  F02B         	movff	_CCP1_PWM_Set_Duty$1765+3,___flmul@b+3
  7037   003134  EC75  F00A         	call	___flmul	;wreg free
  7038   003138  C028  F05B         	movff	?___flmul,___fltol@f1
  7039   00313C  C029  F05C         	movff	?___flmul+1,___fltol@f1+1
  7040   003140  C02A  F05D         	movff	?___flmul+2,___fltol@f1+2
  7041   003144  C02B  F05E         	movff	?___flmul+3,___fltol@f1+3
  7042   003148  ECC2  F018         	call	___fltol	;wreg free
  7043   00314C  C05B  F06C         	movff	?___fltol,CCP1_PWM_Set_Duty@duty_cycle
  7044   003150  C05C  F06D         	movff	?___fltol+1,CCP1_PWM_Set_Duty@duty_cycle+1
  7045   003154                     
  7046                           ;MCAL_Layer/PWM/hal_pwm.c: 44:         CCP1CONbits.DC1B = (uint8)(duty_cycle & 0x03);
  7047   003154  C06C  F065         	movff	CCP1_PWM_Set_Duty@duty_cycle,??_CCP1_PWM_Set_Duty
  7048   003158  0E03               	movlw	3
  7049   00315A  1665               	andwf	??_CCP1_PWM_Set_Duty^0,f,c
  7050   00315C  3A65               	swapf	??_CCP1_PWM_Set_Duty^0,f,c
  7051   00315E  50BD               	movf	189,w,c	;volatile
  7052   003160  1865               	xorwf	??_CCP1_PWM_Set_Duty^0,w,c
  7053   003162  0BCF               	andlw	-49
  7054   003164  1865               	xorwf	??_CCP1_PWM_Set_Duty^0,w,c
  7055   003166  6EBD               	movwf	189,c	;volatile
  7056   003168                     
  7057                           ;MCAL_Layer/PWM/hal_pwm.c: 45:         CCPR1L = (uint8)(duty_cycle >> 2);
  7058   003168  C06C  F065         	movff	CCP1_PWM_Set_Duty@duty_cycle,??_CCP1_PWM_Set_Duty
  7059   00316C  C06D  F066         	movff	CCP1_PWM_Set_Duty@duty_cycle+1,??_CCP1_PWM_Set_Duty+1
  7060   003170  90D8               	bcf	status,0,c
  7061   003172  3266               	rrcf	(??_CCP1_PWM_Set_Duty+1)^0,f,c
  7062   003174  3265               	rrcf	??_CCP1_PWM_Set_Duty^0,f,c
  7063   003176  90D8               	bcf	status,0,c
  7064   003178  3266               	rrcf	(??_CCP1_PWM_Set_Duty+1)^0,f,c
  7065   00317A  3265               	rrcf	??_CCP1_PWM_Set_Duty^0,f,c
  7066   00317C  5065               	movf	??_CCP1_PWM_Set_Duty^0,w,c
  7067   00317E  6EBE               	movwf	190,c	;volatile
  7068   003180                     l3971:
  7069                           
  7070                           ;MCAL_Layer/PWM/hal_pwm.c: 48:     return ret;
  7071   003180  506B               	movf	CCP1_PWM_Set_Duty@ret^0,w,c
  7072   003182  0012               	return		;funcret
  7073   003184                     __end_of_CCP1_PWM_Set_Duty:
  7074                           	callstack 0
  7075                           
  7076 ;; *************** function ___xxtofl *****************
  7077 ;; Defined at:
  7078 ;;		line 10 in file "C:\Program Files\Microchip\xc8\v2.40\pic\sources\c99\common\xxtofl.c"
  7079 ;; Parameters:    Size  Location     Type
  7080 ;;  sign            1    wreg     unsigned char 
  7081 ;;  val             4    0[COMRAM] long 
  7082 ;; Auto vars:     Size  Location     Type
  7083 ;;  sign            1    8[COMRAM] unsigned char 
  7084 ;;  arg             4   10[COMRAM] unsigned long 
  7085 ;;  exp             1    9[COMRAM] unsigned char 
  7086 ;; Return value:  Size  Location     Type
  7087 ;;                  4    0[COMRAM] unsigned char 
  7088 ;; Registers used:
  7089 ;;		wreg, status,2, status,0
  7090 ;; Tracked objects:
  7091 ;;		On entry : 0/0
  7092 ;;		On exit  : 0/0
  7093 ;;		Unchanged: 0/0
  7094 ;; Data sizes:     COMRAM   BANK0   BANK1   BANK2   BANK3   BANK4   BANK5   BANK6   BANK7   BANK8   BANK9  BANK10  BANK1
      +1  BANK12  BANK13  BANK14  BANK15
  7095 ;;      Params:         4       0       0       0       0       0       0       0       0       0       0       0       
      +0       0       0       0       0
  7096 ;;      Locals:         6       0       0       0       0       0       0       0       0       0       0       0       
      +0       0       0       0       0
  7097 ;;      Temps:          4       0       0       0       0       0       0       0       0       0       0       0       
      +0       0       0       0       0
  7098 ;;      Totals:        14       0       0       0       0       0       0       0       0       0       0       0       
      +0       0       0       0       0
  7099 ;;Total ram usage:       14 bytes
  7100 ;; Hardware stack levels used: 1
  7101 ;; This function calls:
  7102 ;;		Nothing
  7103 ;; This function is called by:
  7104 ;;		_CCP1_PWM_Set_Duty
  7105 ;;		_main
  7106 ;; This function uses a non-reentrant model
  7107 ;;
  7108                           
  7109                           	psect	text41
  7110   002574                     __ptext41:
  7111                           	callstack 0
  7112   002574                     ___xxtofl:
  7113                           	callstack 30
  7114                           
  7115                           ;incstack = 0
  7116                           ;___xxtofl@sign stored from wreg
  7117   002574  6E09               	movwf	___xxtofl@sign^0,c
  7118   002576  5009               	movf	___xxtofl@sign^0,w,c
  7119   002578  B4D8               	btfsc	status,2,c
  7120   00257A  EFC1  F012         	goto	u4041
  7121   00257E  EFC3  F012         	goto	u4040
  7122   002582                     u4041:
  7123   002582  EFE5  F012         	goto	l995
  7124   002586                     u4040:
  7125   002586  BE04               	btfsc	(___xxtofl@val+3)^0,7,c
  7126   002588  EFCA  F012         	goto	u4050
  7127   00258C  EFC8  F012         	goto	u4051
  7128   002590                     u4051:
  7129   002590  EFE5  F012         	goto	l995
  7130   002594                     u4050:
  7131   002594  C001  F005         	movff	___xxtofl@val,??___xxtofl
  7132   002598  C002  F006         	movff	___xxtofl@val+1,??___xxtofl+1
  7133   00259C  C003  F007         	movff	___xxtofl@val+2,??___xxtofl+2
  7134   0025A0  C004  F008         	movff	___xxtofl@val+3,??___xxtofl+3
  7135   0025A4  1E05               	comf	??___xxtofl^0,f,c
  7136   0025A6  1E06               	comf	(??___xxtofl+1)^0,f,c
  7137   0025A8  1E07               	comf	(??___xxtofl+2)^0,f,c
  7138   0025AA  1E08               	comf	(??___xxtofl+3)^0,f,c
  7139   0025AC  2A05               	incf	??___xxtofl^0,f,c
  7140   0025AE  0E00               	movlw	0
  7141   0025B0  2206               	addwfc	(??___xxtofl+1)^0,f,c
  7142   0025B2  2207               	addwfc	(??___xxtofl+2)^0,f,c
  7143   0025B4  2208               	addwfc	(??___xxtofl+3)^0,f,c
  7144   0025B6  C005  F00B         	movff	??___xxtofl,___xxtofl@arg
  7145   0025BA  C006  F00C         	movff	??___xxtofl+1,___xxtofl@arg+1
  7146   0025BE  C007  F00D         	movff	??___xxtofl+2,___xxtofl@arg+2
  7147   0025C2  C008  F00E         	movff	??___xxtofl+3,___xxtofl@arg+3
  7148   0025C6  EFED  F012         	goto	l3885
  7149   0025CA                     l995:
  7150   0025CA  C001  F00B         	movff	___xxtofl@val,___xxtofl@arg
  7151   0025CE  C002  F00C         	movff	___xxtofl@val+1,___xxtofl@arg+1
  7152   0025D2  C003  F00D         	movff	___xxtofl@val+2,___xxtofl@arg+2
  7153   0025D6  C004  F00E         	movff	___xxtofl@val+3,___xxtofl@arg+3
  7154   0025DA                     l3885:
  7155   0025DA  5001               	movf	___xxtofl@val^0,w,c
  7156   0025DC  1002               	iorwf	(___xxtofl@val+1)^0,w,c
  7157   0025DE  1003               	iorwf	(___xxtofl@val+2)^0,w,c
  7158   0025E0  1004               	iorwf	(___xxtofl@val+3)^0,w,c
  7159   0025E2  A4D8               	btfss	status,2,c
  7160   0025E4  EFF6  F012         	goto	u4061
  7161   0025E8  EFF8  F012         	goto	u4060
  7162   0025EC                     u4061:
  7163   0025EC  EF02  F013         	goto	l3891
  7164   0025F0                     u4060:
  7165   0025F0  0E00               	movlw	0
  7166   0025F2  6E01               	movwf	?___xxtofl^0,c
  7167   0025F4  0E00               	movlw	0
  7168   0025F6  6E02               	movwf	(?___xxtofl+1)^0,c
  7169   0025F8  0E00               	movlw	0
  7170   0025FA  6E03               	movwf	(?___xxtofl+2)^0,c
  7171   0025FC  0E00               	movlw	0
  7172   0025FE  6E04               	movwf	(?___xxtofl+3)^0,c
  7173   002600  EF93  F013         	goto	l998
  7174   002604                     l3891:
  7175   002604  0E96               	movlw	150
  7176   002606  6E0A               	movwf	___xxtofl@exp^0,c
  7177   002608  EF0C  F013         	goto	l3895
  7178   00260C                     l3893:
  7179   00260C  2A0A               	incf	___xxtofl@exp^0,f,c
  7180   00260E  90D8               	bcf	status,0,c
  7181   002610  320E               	rrcf	(___xxtofl@arg+3)^0,f,c
  7182   002612  320D               	rrcf	(___xxtofl@arg+2)^0,f,c
  7183   002614  320C               	rrcf	(___xxtofl@arg+1)^0,f,c
  7184   002616  320B               	rrcf	___xxtofl@arg^0,f,c
  7185   002618                     l3895:
  7186   002618  0E00               	movlw	0
  7187   00261A  140B               	andwf	___xxtofl@arg^0,w,c
  7188   00261C  6E05               	movwf	??___xxtofl^0,c
  7189   00261E  0E00               	movlw	0
  7190   002620  140C               	andwf	(___xxtofl@arg+1)^0,w,c
  7191   002622  6E06               	movwf	(??___xxtofl+1)^0,c
  7192   002624  0E00               	movlw	0
  7193   002626  140D               	andwf	(___xxtofl@arg+2)^0,w,c
  7194   002628  6E07               	movwf	(??___xxtofl+2)^0,c
  7195   00262A  0EFE               	movlw	254
  7196   00262C  140E               	andwf	(___xxtofl@arg+3)^0,w,c
  7197   00262E  6E08               	movwf	(??___xxtofl+3)^0,c
  7198   002630  5005               	movf	??___xxtofl^0,w,c
  7199   002632  1006               	iorwf	(??___xxtofl+1)^0,w,c
  7200   002634  1007               	iorwf	(??___xxtofl+2)^0,w,c
  7201   002636  1008               	iorwf	(??___xxtofl+3)^0,w,c
  7202   002638  A4D8               	btfss	status,2,c
  7203   00263A  EF21  F013         	goto	u4071
  7204   00263E  EF23  F013         	goto	u4070
  7205   002642                     u4071:
  7206   002642  EF06  F013         	goto	l3893
  7207   002646                     u4070:
  7208   002646  EF31  F013         	goto	l1002
  7209   00264A                     l3897:
  7210   00264A  2A0A               	incf	___xxtofl@exp^0,f,c
  7211   00264C  0E01               	movlw	1
  7212   00264E  260B               	addwf	___xxtofl@arg^0,f,c
  7213   002650  0E00               	movlw	0
  7214   002652  220C               	addwfc	(___xxtofl@arg+1)^0,f,c
  7215   002654  220D               	addwfc	(___xxtofl@arg+2)^0,f,c
  7216   002656  220E               	addwfc	(___xxtofl@arg+3)^0,f,c
  7217   002658  90D8               	bcf	status,0,c
  7218   00265A  320E               	rrcf	(___xxtofl@arg+3)^0,f,c
  7219   00265C  320D               	rrcf	(___xxtofl@arg+2)^0,f,c
  7220   00265E  320C               	rrcf	(___xxtofl@arg+1)^0,f,c
  7221   002660  320B               	rrcf	___xxtofl@arg^0,f,c
  7222   002662                     l1002:
  7223   002662  0E00               	movlw	0
  7224   002664  140B               	andwf	___xxtofl@arg^0,w,c
  7225   002666  6E05               	movwf	??___xxtofl^0,c
  7226   002668  0E00               	movlw	0
  7227   00266A  140C               	andwf	(___xxtofl@arg+1)^0,w,c
  7228   00266C  6E06               	movwf	(??___xxtofl+1)^0,c
  7229   00266E  0E00               	movlw	0
  7230   002670  140D               	andwf	(___xxtofl@arg+2)^0,w,c
  7231   002672  6E07               	movwf	(??___xxtofl+2)^0,c
  7232   002674  0EFF               	movlw	255
  7233   002676  140E               	andwf	(___xxtofl@arg+3)^0,w,c
  7234   002678  6E08               	movwf	(??___xxtofl+3)^0,c
  7235   00267A  5005               	movf	??___xxtofl^0,w,c
  7236   00267C  1006               	iorwf	(??___xxtofl+1)^0,w,c
  7237   00267E  1007               	iorwf	(??___xxtofl+2)^0,w,c
  7238   002680  1008               	iorwf	(??___xxtofl+3)^0,w,c
  7239   002682  A4D8               	btfss	status,2,c
  7240   002684  EF46  F013         	goto	u4081
  7241   002688  EF48  F013         	goto	u4080
  7242   00268C                     u4081:
  7243   00268C  EF25  F013         	goto	l3897
  7244   002690                     u4080:
  7245   002690  EF50  F013         	goto	l3905
  7246   002694                     l3903:
  7247   002694  060A               	decf	___xxtofl@exp^0,f,c
  7248   002696  90D8               	bcf	status,0,c
  7249   002698  360B               	rlcf	___xxtofl@arg^0,f,c
  7250   00269A  360C               	rlcf	(___xxtofl@arg+1)^0,f,c
  7251   00269C  360D               	rlcf	(___xxtofl@arg+2)^0,f,c
  7252   00269E  360E               	rlcf	(___xxtofl@arg+3)^0,f,c
  7253   0026A0                     l3905:
  7254   0026A0  BE0D               	btfsc	(___xxtofl@arg+2)^0,7,c
  7255   0026A2  EF55  F013         	goto	u4091
  7256   0026A6  EF57  F013         	goto	u4090
  7257   0026AA                     u4091:
  7258   0026AA  EF5F  F013         	goto	l1009
  7259   0026AE                     u4090:
  7260   0026AE  0E02               	movlw	2
  7261   0026B0  600A               	cpfslt	___xxtofl@exp^0,c
  7262   0026B2  EF5D  F013         	goto	u4101
  7263   0026B6  EF5F  F013         	goto	u4100
  7264   0026BA                     u4101:
  7265   0026BA  EF4A  F013         	goto	l3903
  7266   0026BE                     u4100:
  7267   0026BE                     l1009:
  7268   0026BE  B00A               	btfsc	___xxtofl@exp^0,0,c
  7269   0026C0  EF64  F013         	goto	u4111
  7270   0026C4  EF66  F013         	goto	u4110
  7271   0026C8                     u4111:
  7272   0026C8  EF67  F013         	goto	l3911
  7273   0026CC                     u4110:
  7274   0026CC  9E0D               	bcf	(___xxtofl@arg+2)^0,7,c
  7275   0026CE                     l3911:
  7276   0026CE  90D8               	bcf	status,0,c
  7277   0026D0  320A               	rrcf	___xxtofl@exp^0,f,c
  7278   0026D2  C00A  F005         	movff	___xxtofl@exp,??___xxtofl
  7279   0026D6  6A06               	clrf	(??___xxtofl+1)^0,c
  7280   0026D8  6A07               	clrf	(??___xxtofl+2)^0,c
  7281   0026DA  6A08               	clrf	(??___xxtofl+3)^0,c
  7282   0026DC  C005  F008         	movff	??___xxtofl,??___xxtofl+3
  7283   0026E0  6A07               	clrf	(??___xxtofl+2)^0,c
  7284   0026E2  6A06               	clrf	(??___xxtofl+1)^0,c
  7285   0026E4  6A05               	clrf	??___xxtofl^0,c
  7286   0026E6  5005               	movf	??___xxtofl^0,w,c
  7287   0026E8  120B               	iorwf	___xxtofl@arg^0,f,c
  7288   0026EA  5006               	movf	(??___xxtofl+1)^0,w,c
  7289   0026EC  120C               	iorwf	(___xxtofl@arg+1)^0,f,c
  7290   0026EE  5007               	movf	(??___xxtofl+2)^0,w,c
  7291   0026F0  120D               	iorwf	(___xxtofl@arg+2)^0,f,c
  7292   0026F2  5008               	movf	(??___xxtofl+3)^0,w,c
  7293   0026F4  120E               	iorwf	(___xxtofl@arg+3)^0,f,c
  7294   0026F6  5009               	movf	___xxtofl@sign^0,w,c
  7295   0026F8  B4D8               	btfsc	status,2,c
  7296   0026FA  EF81  F013         	goto	u4121
  7297   0026FE  EF83  F013         	goto	u4120
  7298   002702                     u4121:
  7299   002702  EF8B  F013         	goto	l3921
  7300   002706                     u4120:
  7301   002706  BE04               	btfsc	(___xxtofl@val+3)^0,7,c
  7302   002708  EF8A  F013         	goto	u4130
  7303   00270C  EF88  F013         	goto	u4131
  7304   002710                     u4131:
  7305   002710  EF8B  F013         	goto	l3921
  7306   002714                     u4130:
  7307   002714  8E0E               	bsf	(___xxtofl@arg+3)^0,7,c
  7308   002716                     l3921:
  7309   002716  C00B  F001         	movff	___xxtofl@arg,?___xxtofl
  7310   00271A  C00C  F002         	movff	___xxtofl@arg+1,?___xxtofl+1
  7311   00271E  C00D  F003         	movff	___xxtofl@arg+2,?___xxtofl+2
  7312   002722  C00E  F004         	movff	___xxtofl@arg+3,?___xxtofl+3
  7313   002726                     l998:
  7314   002726  0012               	return		;funcret
  7315   002728                     __end_of___xxtofl:
  7316                           	callstack 0
  7317                           
  7318 ;; *************** function ___fltol *****************
  7319 ;; Defined at:
  7320 ;;		line 43 in file "C:\Program Files\Microchip\xc8\v2.40\pic\sources\c99\common\fltol.c"
  7321 ;; Parameters:    Size  Location     Type
  7322 ;;  f1              4   90[COMRAM] unsigned char 
  7323 ;; Auto vars:     Size  Location     Type
  7324 ;;  exp1            1   99[COMRAM] unsigned char 
  7325 ;;  sign1           1   98[COMRAM] unsigned char 
  7326 ;; Return value:  Size  Location     Type
  7327 ;;                  4   90[COMRAM] long 
  7328 ;; Registers used:
  7329 ;;		wreg, status,2, status,0
  7330 ;; Tracked objects:
  7331 ;;		On entry : 0/0
  7332 ;;		On exit  : 0/0
  7333 ;;		Unchanged: 0/0
  7334 ;; Data sizes:     COMRAM   BANK0   BANK1   BANK2   BANK3   BANK4   BANK5   BANK6   BANK7   BANK8   BANK9  BANK10  BANK1
      +1  BANK12  BANK13  BANK14  BANK15
  7335 ;;      Params:         4       0       0       0       0       0       0       0       0       0       0       0       
      +0       0       0       0       0
  7336 ;;      Locals:         2       0       0       0       0       0       0       0       0       0       0       0       
      +0       0       0       0       0
  7337 ;;      Temps:          4       0       0       0       0       0       0       0       0       0       0       0       
      +0       0       0       0       0
  7338 ;;      Totals:        10       0       0       0       0       0       0       0       0       0       0       0       
      +0       0       0       0       0
  7339 ;;Total ram usage:       10 bytes
  7340 ;; Hardware stack levels used: 1
  7341 ;; This function calls:
  7342 ;;		Nothing
  7343 ;; This function is called by:
  7344 ;;		_CCP1_PWM_Set_Duty
  7345 ;;		_main
  7346 ;; This function uses a non-reentrant model
  7347 ;;
  7348                           
  7349                           	psect	text42
  7350   003184                     __ptext42:
  7351                           	callstack 0
  7352   003184                     ___fltol:
  7353                           	callstack 30
  7354   003184  345D               	rlcf	(___fltol@f1+2)^0,w,c
  7355   003186  345E               	rlcf	(___fltol@f1+3)^0,w,c
  7356   003188  6E64               	movwf	___fltol@exp1^0,c
  7357   00318A  5064               	movf	___fltol@exp1^0,w,c
  7358   00318C  A4D8               	btfss	status,2,c
  7359   00318E  EFCB  F018         	goto	u3971
  7360   003192  EFCD  F018         	goto	u3970
  7361   003196                     u3971:
  7362   003196  EFD7  F018         	goto	l3841
  7363   00319A                     u3970:
  7364   00319A                     l3837:
  7365   00319A  0E00               	movlw	0
  7366   00319C  6E5B               	movwf	?___fltol^0,c
  7367   00319E  0E00               	movlw	0
  7368   0031A0  6E5C               	movwf	(?___fltol+1)^0,c
  7369   0031A2  0E00               	movlw	0
  7370   0031A4  6E5D               	movwf	(?___fltol+2)^0,c
  7371   0031A6  0E00               	movlw	0
  7372   0031A8  6E5E               	movwf	(?___fltol+3)^0,c
  7373   0031AA  EF44  F019         	goto	l637
  7374   0031AE                     l3841:
  7375   0031AE  C05B  F05F         	movff	___fltol@f1,??___fltol
  7376   0031B2  C05C  F060         	movff	___fltol@f1+1,??___fltol+1
  7377   0031B6  C05D  F061         	movff	___fltol@f1+2,??___fltol+2
  7378   0031BA  C05E  F062         	movff	___fltol@f1+3,??___fltol+3
  7379   0031BE  0E20               	movlw	32
  7380   0031C0  EFE7  F018         	goto	u3980
  7381   0031C4                     u3985:
  7382   0031C4  90D8               	bcf	status,0,c
  7383   0031C6  3262               	rrcf	(??___fltol+3)^0,f,c
  7384   0031C8  3261               	rrcf	(??___fltol+2)^0,f,c
  7385   0031CA  3260               	rrcf	(??___fltol+1)^0,f,c
  7386   0031CC  325F               	rrcf	??___fltol^0,f,c
  7387   0031CE                     u3980:
  7388   0031CE  2EE8               	decfsz	wreg,f,c
  7389   0031D0  EFE2  F018         	goto	u3985
  7390   0031D4  505F               	movf	??___fltol^0,w,c
  7391   0031D6  6E63               	movwf	___fltol@sign1^0,c
  7392   0031D8  8E5D               	bsf	(___fltol@f1+2)^0,7,c
  7393   0031DA  0EFF               	movlw	255
  7394   0031DC  165B               	andwf	___fltol@f1^0,f,c
  7395   0031DE  0EFF               	movlw	255
  7396   0031E0  165C               	andwf	(___fltol@f1+1)^0,f,c
  7397   0031E2  0EFF               	movlw	255
  7398   0031E4  165D               	andwf	(___fltol@f1+2)^0,f,c
  7399   0031E6  0E00               	movlw	0
  7400   0031E8  165E               	andwf	(___fltol@f1+3)^0,f,c
  7401   0031EA  0E96               	movlw	150
  7402   0031EC  5E64               	subwf	___fltol@exp1^0,f,c
  7403   0031EE  BE64               	btfsc	___fltol@exp1^0,7,c
  7404   0031F0  EFFE  F018         	goto	u3990
  7405   0031F4  EFFC  F018         	goto	u3991
  7406   0031F8                     u3991:
  7407   0031F8  EF14  F019         	goto	l3861
  7408   0031FC                     u3990:
  7409   0031FC  5064               	movf	___fltol@exp1^0,w,c
  7410   0031FE  0A80               	xorlw	128
  7411   003200  0F97               	addlw	151
  7412   003202  B0D8               	btfsc	status,0,c
  7413   003204  EF06  F019         	goto	u4001
  7414   003208  EF08  F019         	goto	u4000
  7415   00320C                     u4001:
  7416   00320C  EF0A  F019         	goto	l3857
  7417   003210                     u4000:
  7418   003210  EFCD  F018         	goto	l3837
  7419   003214                     l3857:
  7420   003214  90D8               	bcf	status,0,c
  7421   003216  325E               	rrcf	(___fltol@f1+3)^0,f,c
  7422   003218  325D               	rrcf	(___fltol@f1+2)^0,f,c
  7423   00321A  325C               	rrcf	(___fltol@f1+1)^0,f,c
  7424   00321C  325B               	rrcf	___fltol@f1^0,f,c
  7425   00321E  3E64               	incfsz	___fltol@exp1^0,f,c
  7426   003220  EF0A  F019         	goto	l3857
  7427   003224  EF2C  F019         	goto	l3871
  7428   003228                     l3861:
  7429   003228  0E1F               	movlw	31
  7430   00322A  6464               	cpfsgt	___fltol@exp1^0,c
  7431   00322C  EF1A  F019         	goto	u4011
  7432   003230  EF1C  F019         	goto	u4010
  7433   003234                     u4011:
  7434   003234  EF24  F019         	goto	l3869
  7435   003238                     u4010:
  7436   003238  EFCD  F018         	goto	l3837
  7437   00323C                     l3867:
  7438   00323C  90D8               	bcf	status,0,c
  7439   00323E  365B               	rlcf	___fltol@f1^0,f,c
  7440   003240  365C               	rlcf	(___fltol@f1+1)^0,f,c
  7441   003242  365D               	rlcf	(___fltol@f1+2)^0,f,c
  7442   003244  365E               	rlcf	(___fltol@f1+3)^0,f,c
  7443   003246  0664               	decf	___fltol@exp1^0,f,c
  7444   003248                     l3869:
  7445   003248  5064               	movf	___fltol@exp1^0,w,c
  7446   00324A  A4D8               	btfss	status,2,c
  7447   00324C  EF2A  F019         	goto	u4021
  7448   003250  EF2C  F019         	goto	u4020
  7449   003254                     u4021:
  7450   003254  EF1E  F019         	goto	l3867
  7451   003258                     u4020:
  7452   003258                     l3871:
  7453   003258  5063               	movf	___fltol@sign1^0,w,c
  7454   00325A  B4D8               	btfsc	status,2,c
  7455   00325C  EF32  F019         	goto	u4031
  7456   003260  EF34  F019         	goto	u4030
  7457   003264                     u4031:
  7458   003264  EF3C  F019         	goto	l3875
  7459   003268                     u4030:
  7460   003268  1E5E               	comf	(___fltol@f1+3)^0,f,c
  7461   00326A  1E5D               	comf	(___fltol@f1+2)^0,f,c
  7462   00326C  1E5C               	comf	(___fltol@f1+1)^0,f,c
  7463   00326E  6C5B               	negf	___fltol@f1^0,c
  7464   003270  0E00               	movlw	0
  7465   003272  225C               	addwfc	(___fltol@f1+1)^0,f,c
  7466   003274  225D               	addwfc	(___fltol@f1+2)^0,f,c
  7467   003276  225E               	addwfc	(___fltol@f1+3)^0,f,c
  7468   003278                     l3875:
  7469   003278  C05B  F05B         	movff	___fltol@f1,?___fltol
  7470   00327C  C05C  F05C         	movff	___fltol@f1+1,?___fltol+1
  7471   003280  C05D  F05D         	movff	___fltol@f1+2,?___fltol+2
  7472   003284  C05E  F05E         	movff	___fltol@f1+3,?___fltol+3
  7473   003288                     l637:
  7474   003288  0012               	return		;funcret
  7475   00328A                     __end_of___fltol:
  7476                           	callstack 0
  7477                           
  7478 ;; *************** function ___flmul *****************
  7479 ;; Defined at:
  7480 ;;		line 8 in file "C:\Program Files\Microchip\xc8\v2.40\pic\sources\c99\common\sprcmul.c"
  7481 ;; Parameters:    Size  Location     Type
  7482 ;;  b               4   39[COMRAM] long 
  7483 ;;  a               4   43[COMRAM] long 
  7484 ;; Auto vars:     Size  Location     Type
  7485 ;;  prod            4   58[COMRAM] struct .
  7486 ;;  grs             4   52[COMRAM] unsigned long 
  7487 ;;  temp            2   62[COMRAM] struct .
  7488 ;;  bexp            1   57[COMRAM] unsigned char 
  7489 ;;  aexp            1   56[COMRAM] unsigned char 
  7490 ;;  sign            1   51[COMRAM] unsigned char 
  7491 ;; Return value:  Size  Location     Type
  7492 ;;                  4   39[COMRAM] unsigned char 
  7493 ;; Registers used:
  7494 ;;		wreg, status,2, status,0, prodl, prodh
  7495 ;; Tracked objects:
  7496 ;;		On entry : 0/0
  7497 ;;		On exit  : 0/0
  7498 ;;		Unchanged: 0/0
  7499 ;; Data sizes:     COMRAM   BANK0   BANK1   BANK2   BANK3   BANK4   BANK5   BANK6   BANK7   BANK8   BANK9  BANK10  BANK1
      +1  BANK12  BANK13  BANK14  BANK15
  7500 ;;      Params:         8       0       0       0       0       0       0       0       0       0       0       0       
      +0       0       0       0       0
  7501 ;;      Locals:        13       0       0       0       0       0       0       0       0       0       0       0       
      +0       0       0       0       0
  7502 ;;      Temps:          4       0       0       0       0       0       0       0       0       0       0       0       
      +0       0       0       0       0
  7503 ;;      Totals:        25       0       0       0       0       0       0       0       0       0       0       0       
      +0       0       0       0       0
  7504 ;;Total ram usage:       25 bytes
  7505 ;; Hardware stack levels used: 1
  7506 ;; This function calls:
  7507 ;;		Nothing
  7508 ;; This function is called by:
  7509 ;;		_CCP1_PWM_Set_Duty
  7510 ;;		_main
  7511 ;;		_roundf
  7512 ;; This function uses a non-reentrant model
  7513 ;;
  7514                           
  7515                           	psect	text43
  7516   0014EA                     __ptext43:
  7517                           	callstack 0
  7518   0014EA                     ___flmul:
  7519                           	callstack 29
  7520   0014EA  502B               	movf	(___flmul@b+3)^0,w,c
  7521   0014EC  0B80               	andlw	128
  7522   0014EE  6E34               	movwf	___flmul@sign^0,c
  7523   0014F0  502B               	movf	(___flmul@b+3)^0,w,c
  7524   0014F2  242B               	addwf	(___flmul@b+3)^0,w,c
  7525   0014F4  6E3A               	movwf	___flmul@bexp^0,c
  7526   0014F6  AE2A               	btfss	(___flmul@b+2)^0,7,c
  7527   0014F8  EF80  F00A         	goto	u3721
  7528   0014FC  EF82  F00A         	goto	u3720
  7529   001500                     u3721:
  7530   001500  EF83  F00A         	goto	l3675
  7531   001504                     u3720:
  7532   001504  803A               	bsf	___flmul@bexp^0,0,c
  7533   001506                     l3675:
  7534   001506  503A               	movf	___flmul@bexp^0,w,c
  7535   001508  B4D8               	btfsc	status,2,c
  7536   00150A  EF89  F00A         	goto	u3731
  7537   00150E  EF8B  F00A         	goto	u3730
  7538   001512                     u3731:
  7539   001512  EF9E  F00A         	goto	l3683
  7540   001516                     u3730:
  7541   001516  283A               	incf	___flmul@bexp^0,w,c
  7542   001518  A4D8               	btfss	status,2,c
  7543   00151A  EF91  F00A         	goto	u3741
  7544   00151E  EF93  F00A         	goto	u3740
  7545   001522                     u3741:
  7546   001522  EF9B  F00A         	goto	l3681
  7547   001526                     u3740:
  7548   001526  0E00               	movlw	0
  7549   001528  6E28               	movwf	___flmul@b^0,c
  7550   00152A  0E00               	movlw	0
  7551   00152C  6E29               	movwf	(___flmul@b+1)^0,c
  7552   00152E  0E00               	movlw	0
  7553   001530  6E2A               	movwf	(___flmul@b+2)^0,c
  7554   001532  0E00               	movlw	0
  7555   001534  6E2B               	movwf	(___flmul@b+3)^0,c
  7556   001536                     l3681:
  7557   001536  8E2A               	bsf	(___flmul@b+2)^0,7,c
  7558   001538  EFA6  F00A         	goto	l3685
  7559   00153C                     l3683:
  7560   00153C  0E00               	movlw	0
  7561   00153E  6E28               	movwf	___flmul@b^0,c
  7562   001540  0E00               	movlw	0
  7563   001542  6E29               	movwf	(___flmul@b+1)^0,c
  7564   001544  0E00               	movlw	0
  7565   001546  6E2A               	movwf	(___flmul@b+2)^0,c
  7566   001548  0E00               	movlw	0
  7567   00154A  6E2B               	movwf	(___flmul@b+3)^0,c
  7568   00154C                     l3685:
  7569   00154C  502F               	movf	(___flmul@a+3)^0,w,c
  7570   00154E  0B80               	andlw	128
  7571   001550  1A34               	xorwf	___flmul@sign^0,f,c
  7572   001552  502F               	movf	(___flmul@a+3)^0,w,c
  7573   001554  242F               	addwf	(___flmul@a+3)^0,w,c
  7574   001556  6E39               	movwf	___flmul@aexp^0,c
  7575   001558  AE2E               	btfss	(___flmul@a+2)^0,7,c
  7576   00155A  EFB1  F00A         	goto	u3751
  7577   00155E  EFB3  F00A         	goto	u3750
  7578   001562                     u3751:
  7579   001562  EFB4  F00A         	goto	l3693
  7580   001566                     u3750:
  7581   001566  8039               	bsf	___flmul@aexp^0,0,c
  7582   001568                     l3693:
  7583   001568  5039               	movf	___flmul@aexp^0,w,c
  7584   00156A  B4D8               	btfsc	status,2,c
  7585   00156C  EFBA  F00A         	goto	u3761
  7586   001570  EFBC  F00A         	goto	u3760
  7587   001574                     u3761:
  7588   001574  EFCF  F00A         	goto	l3701
  7589   001578                     u3760:
  7590   001578  2839               	incf	___flmul@aexp^0,w,c
  7591   00157A  A4D8               	btfss	status,2,c
  7592   00157C  EFC2  F00A         	goto	u3771
  7593   001580  EFC4  F00A         	goto	u3770
  7594   001584                     u3771:
  7595   001584  EFCC  F00A         	goto	l3699
  7596   001588                     u3770:
  7597   001588  0E00               	movlw	0
  7598   00158A  6E2C               	movwf	___flmul@a^0,c
  7599   00158C  0E00               	movlw	0
  7600   00158E  6E2D               	movwf	(___flmul@a+1)^0,c
  7601   001590  0E00               	movlw	0
  7602   001592  6E2E               	movwf	(___flmul@a+2)^0,c
  7603   001594  0E00               	movlw	0
  7604   001596  6E2F               	movwf	(___flmul@a+3)^0,c
  7605   001598                     l3699:
  7606   001598  8E2E               	bsf	(___flmul@a+2)^0,7,c
  7607   00159A  EFD7  F00A         	goto	l954
  7608   00159E                     l3701:
  7609   00159E  0E00               	movlw	0
  7610   0015A0  6E2C               	movwf	___flmul@a^0,c
  7611   0015A2  0E00               	movlw	0
  7612   0015A4  6E2D               	movwf	(___flmul@a+1)^0,c
  7613   0015A6  0E00               	movlw	0
  7614   0015A8  6E2E               	movwf	(___flmul@a+2)^0,c
  7615   0015AA  0E00               	movlw	0
  7616   0015AC  6E2F               	movwf	(___flmul@a+3)^0,c
  7617   0015AE                     l954:
  7618   0015AE  5039               	movf	___flmul@aexp^0,w,c
  7619   0015B0  B4D8               	btfsc	status,2,c
  7620   0015B2  EFDD  F00A         	goto	u3781
  7621   0015B6  EFDF  F00A         	goto	u3780
  7622   0015BA                     u3781:
  7623   0015BA  EFE7  F00A         	goto	l3705
  7624   0015BE                     u3780:
  7625   0015BE  503A               	movf	___flmul@bexp^0,w,c
  7626   0015C0  A4D8               	btfss	status,2,c
  7627   0015C2  EFE5  F00A         	goto	u3791
  7628   0015C6  EFE7  F00A         	goto	u3790
  7629   0015CA                     u3791:
  7630   0015CA  EFF1  F00A         	goto	l3709
  7631   0015CE                     u3790:
  7632   0015CE                     l3705:
  7633   0015CE  0E00               	movlw	0
  7634   0015D0  6E28               	movwf	?___flmul^0,c
  7635   0015D2  0E00               	movlw	0
  7636   0015D4  6E29               	movwf	(?___flmul+1)^0,c
  7637   0015D6  0E00               	movlw	0
  7638   0015D8  6E2A               	movwf	(?___flmul+2)^0,c
  7639   0015DA  0E00               	movlw	0
  7640   0015DC  6E2B               	movwf	(?___flmul+3)^0,c
  7641   0015DE  EF89  F00C         	goto	l958
  7642   0015E2                     l3709:
  7643   0015E2  502E               	movf	(___flmul@a+2)^0,w,c
  7644   0015E4  0228               	mulwf	___flmul@b^0,c
  7645   0015E6  CFF3 F03F          	movff	prodl,___flmul@temp
  7646   0015EA  CFF4 F040          	movff	prodh,___flmul@temp+1
  7647   0015EE  503F               	movf	___flmul@temp^0,w,c
  7648   0015F0  6E35               	movwf	___flmul@grs^0,c
  7649   0015F2  6A36               	clrf	(___flmul@grs+1)^0,c
  7650   0015F4  6A37               	clrf	(___flmul@grs+2)^0,c
  7651   0015F6  6A38               	clrf	(___flmul@grs+3)^0,c
  7652   0015F8  5040               	movf	(___flmul@temp+1)^0,w,c
  7653   0015FA  6E3B               	movwf	___flmul@prod^0,c
  7654   0015FC  6A3C               	clrf	(___flmul@prod+1)^0,c
  7655   0015FE  6A3D               	clrf	(___flmul@prod+2)^0,c
  7656   001600  6A3E               	clrf	(___flmul@prod+3)^0,c
  7657   001602  502D               	movf	(___flmul@a+1)^0,w,c
  7658   001604  0229               	mulwf	(___flmul@b+1)^0,c
  7659   001606  CFF3 F03F          	movff	prodl,___flmul@temp
  7660   00160A  CFF4 F040          	movff	prodh,___flmul@temp+1
  7661   00160E  503F               	movf	___flmul@temp^0,w,c
  7662   001610  2635               	addwf	___flmul@grs^0,f,c
  7663   001612  0E00               	movlw	0
  7664   001614  2236               	addwfc	(___flmul@grs+1)^0,f,c
  7665   001616  2237               	addwfc	(___flmul@grs+2)^0,f,c
  7666   001618  2238               	addwfc	(___flmul@grs+3)^0,f,c
  7667   00161A  5040               	movf	(___flmul@temp+1)^0,w,c
  7668   00161C  263B               	addwf	___flmul@prod^0,f,c
  7669   00161E  0E00               	movlw	0
  7670   001620  223C               	addwfc	(___flmul@prod+1)^0,f,c
  7671   001622  223D               	addwfc	(___flmul@prod+2)^0,f,c
  7672   001624  223E               	addwfc	(___flmul@prod+3)^0,f,c
  7673   001626  502C               	movf	___flmul@a^0,w,c
  7674   001628  022A               	mulwf	(___flmul@b+2)^0,c
  7675   00162A  CFF3 F03F          	movff	prodl,___flmul@temp
  7676   00162E  CFF4 F040          	movff	prodh,___flmul@temp+1
  7677   001632  503F               	movf	___flmul@temp^0,w,c
  7678   001634  2635               	addwf	___flmul@grs^0,f,c
  7679   001636  0E00               	movlw	0
  7680   001638  2236               	addwfc	(___flmul@grs+1)^0,f,c
  7681   00163A  2237               	addwfc	(___flmul@grs+2)^0,f,c
  7682   00163C  2238               	addwfc	(___flmul@grs+3)^0,f,c
  7683   00163E  5040               	movf	(___flmul@temp+1)^0,w,c
  7684   001640  263B               	addwf	___flmul@prod^0,f,c
  7685   001642  0E00               	movlw	0
  7686   001644  223C               	addwfc	(___flmul@prod+1)^0,f,c
  7687   001646  223D               	addwfc	(___flmul@prod+2)^0,f,c
  7688   001648  223E               	addwfc	(___flmul@prod+3)^0,f,c
  7689   00164A  C037  F038         	movff	___flmul@grs+2,___flmul@grs+3
  7690   00164E  C036  F037         	movff	___flmul@grs+1,___flmul@grs+2
  7691   001652  C035  F036         	movff	___flmul@grs,___flmul@grs+1
  7692   001656  6A35               	clrf	___flmul@grs^0,c
  7693   001658  502C               	movf	___flmul@a^0,w,c
  7694   00165A  0229               	mulwf	(___flmul@b+1)^0,c
  7695   00165C  CFF3 F03F          	movff	prodl,___flmul@temp
  7696   001660  CFF4 F040          	movff	prodh,___flmul@temp+1
  7697   001664  503F               	movf	___flmul@temp^0,w,c
  7698   001666  2635               	addwf	___flmul@grs^0,f,c
  7699   001668  5040               	movf	(___flmul@temp+1)^0,w,c
  7700   00166A  2236               	addwfc	(___flmul@grs+1)^0,f,c
  7701   00166C  0E00               	movlw	0
  7702   00166E  2237               	addwfc	(___flmul@grs+2)^0,f,c
  7703   001670  0E00               	movlw	0
  7704   001672  2238               	addwfc	(___flmul@grs+3)^0,f,c
  7705   001674  502D               	movf	(___flmul@a+1)^0,w,c
  7706   001676  0228               	mulwf	___flmul@b^0,c
  7707   001678  CFF3 F03F          	movff	prodl,___flmul@temp
  7708   00167C  CFF4 F040          	movff	prodh,___flmul@temp+1
  7709   001680  503F               	movf	___flmul@temp^0,w,c
  7710   001682  2635               	addwf	___flmul@grs^0,f,c
  7711   001684  5040               	movf	(___flmul@temp+1)^0,w,c
  7712   001686  2236               	addwfc	(___flmul@grs+1)^0,f,c
  7713   001688  0E00               	movlw	0
  7714   00168A  2237               	addwfc	(___flmul@grs+2)^0,f,c
  7715   00168C  0E00               	movlw	0
  7716   00168E  2238               	addwfc	(___flmul@grs+3)^0,f,c
  7717   001690  C037  F038         	movff	___flmul@grs+2,___flmul@grs+3
  7718   001694  C036  F037         	movff	___flmul@grs+1,___flmul@grs+2
  7719   001698  C035  F036         	movff	___flmul@grs,___flmul@grs+1
  7720   00169C  6A35               	clrf	___flmul@grs^0,c
  7721   00169E  502C               	movf	___flmul@a^0,w,c
  7722   0016A0  0228               	mulwf	___flmul@b^0,c
  7723   0016A2  CFF3 F03F          	movff	prodl,___flmul@temp
  7724   0016A6  CFF4 F040          	movff	prodh,___flmul@temp+1
  7725   0016AA  503F               	movf	___flmul@temp^0,w,c
  7726   0016AC  2635               	addwf	___flmul@grs^0,f,c
  7727   0016AE  5040               	movf	(___flmul@temp+1)^0,w,c
  7728   0016B0  2236               	addwfc	(___flmul@grs+1)^0,f,c
  7729   0016B2  0E00               	movlw	0
  7730   0016B4  2237               	addwfc	(___flmul@grs+2)^0,f,c
  7731   0016B6  0E00               	movlw	0
  7732   0016B8  2238               	addwfc	(___flmul@grs+3)^0,f,c
  7733   0016BA  502E               	movf	(___flmul@a+2)^0,w,c
  7734   0016BC  0229               	mulwf	(___flmul@b+1)^0,c
  7735   0016BE  CFF3 F03F          	movff	prodl,___flmul@temp
  7736   0016C2  CFF4 F040          	movff	prodh,___flmul@temp+1
  7737   0016C6  503F               	movf	___flmul@temp^0,w,c
  7738   0016C8  263B               	addwf	___flmul@prod^0,f,c
  7739   0016CA  5040               	movf	(___flmul@temp+1)^0,w,c
  7740   0016CC  223C               	addwfc	(___flmul@prod+1)^0,f,c
  7741   0016CE  0E00               	movlw	0
  7742   0016D0  223D               	addwfc	(___flmul@prod+2)^0,f,c
  7743   0016D2  0E00               	movlw	0
  7744   0016D4  223E               	addwfc	(___flmul@prod+3)^0,f,c
  7745   0016D6  502D               	movf	(___flmul@a+1)^0,w,c
  7746   0016D8  022A               	mulwf	(___flmul@b+2)^0,c
  7747   0016DA  CFF3 F03F          	movff	prodl,___flmul@temp
  7748   0016DE  CFF4 F040          	movff	prodh,___flmul@temp+1
  7749   0016E2  503F               	movf	___flmul@temp^0,w,c
  7750   0016E4  263B               	addwf	___flmul@prod^0,f,c
  7751   0016E6  5040               	movf	(___flmul@temp+1)^0,w,c
  7752   0016E8  223C               	addwfc	(___flmul@prod+1)^0,f,c
  7753   0016EA  0E00               	movlw	0
  7754   0016EC  223D               	addwfc	(___flmul@prod+2)^0,f,c
  7755   0016EE  0E00               	movlw	0
  7756   0016F0  223E               	addwfc	(___flmul@prod+3)^0,f,c
  7757   0016F2  502E               	movf	(___flmul@a+2)^0,w,c
  7758   0016F4  022A               	mulwf	(___flmul@b+2)^0,c
  7759   0016F6  CFF3 F03F          	movff	prodl,___flmul@temp
  7760   0016FA  CFF4 F040          	movff	prodh,___flmul@temp+1
  7761   0016FE  503F               	movf	___flmul@temp^0,w,c
  7762   001700  6E30               	movwf	??___flmul^0,c
  7763   001702  5040               	movf	(___flmul@temp+1)^0,w,c
  7764   001704  6E31               	movwf	(??___flmul+1)^0,c
  7765   001706  6A32               	clrf	(??___flmul+2)^0,c
  7766   001708  6A33               	clrf	(??___flmul+3)^0,c
  7767   00170A  C032  F033         	movff	??___flmul+2,??___flmul+3
  7768   00170E  C031  F032         	movff	??___flmul+1,??___flmul+2
  7769   001712  C030  F031         	movff	??___flmul,??___flmul+1
  7770   001716  6A30               	clrf	??___flmul^0,c
  7771   001718  5030               	movf	??___flmul^0,w,c
  7772   00171A  263B               	addwf	___flmul@prod^0,f,c
  7773   00171C  5031               	movf	(??___flmul+1)^0,w,c
  7774   00171E  223C               	addwfc	(___flmul@prod+1)^0,f,c
  7775   001720  5032               	movf	(??___flmul+2)^0,w,c
  7776   001722  223D               	addwfc	(___flmul@prod+2)^0,f,c
  7777   001724  5033               	movf	(??___flmul+3)^0,w,c
  7778   001726  223E               	addwfc	(___flmul@prod+3)^0,f,c
  7779   001728  C035  F030         	movff	___flmul@grs,??___flmul
  7780   00172C  C036  F031         	movff	___flmul@grs+1,??___flmul+1
  7781   001730  C037  F032         	movff	___flmul@grs+2,??___flmul+2
  7782   001734  C038  F033         	movff	___flmul@grs+3,??___flmul+3
  7783   001738  0E19               	movlw	25
  7784   00173A  EFA4  F00B         	goto	u3800
  7785   00173E                     u3805:
  7786   00173E  90D8               	bcf	status,0,c
  7787   001740  3233               	rrcf	(??___flmul+3)^0,f,c
  7788   001742  3232               	rrcf	(??___flmul+2)^0,f,c
  7789   001744  3231               	rrcf	(??___flmul+1)^0,f,c
  7790   001746  3230               	rrcf	??___flmul^0,f,c
  7791   001748                     u3800:
  7792   001748  2EE8               	decfsz	wreg,f,c
  7793   00174A  EF9F  F00B         	goto	u3805
  7794   00174E  5030               	movf	??___flmul^0,w,c
  7795   001750  263B               	addwf	___flmul@prod^0,f,c
  7796   001752  5031               	movf	(??___flmul+1)^0,w,c
  7797   001754  223C               	addwfc	(___flmul@prod+1)^0,f,c
  7798   001756  5032               	movf	(??___flmul+2)^0,w,c
  7799   001758  223D               	addwfc	(___flmul@prod+2)^0,f,c
  7800   00175A  5033               	movf	(??___flmul+3)^0,w,c
  7801   00175C  223E               	addwfc	(___flmul@prod+3)^0,f,c
  7802   00175E  C037  F038         	movff	___flmul@grs+2,___flmul@grs+3
  7803   001762  C036  F037         	movff	___flmul@grs+1,___flmul@grs+2
  7804   001766  C035  F036         	movff	___flmul@grs,___flmul@grs+1
  7805   00176A  6A35               	clrf	___flmul@grs^0,c
  7806   00176C  5039               	movf	___flmul@aexp^0,w,c
  7807   00176E  C03A  F030         	movff	___flmul@bexp,??___flmul
  7808   001772  6A31               	clrf	(??___flmul+1)^0,c
  7809   001774  2630               	addwf	??___flmul^0,f,c
  7810   001776  0E00               	movlw	0
  7811   001778  2231               	addwfc	(??___flmul+1)^0,f,c
  7812   00177A  0E82               	movlw	130
  7813   00177C  2430               	addwf	??___flmul^0,w,c
  7814   00177E  6E3F               	movwf	___flmul@temp^0,c
  7815   001780  0EFF               	movlw	255
  7816   001782  2031               	addwfc	(??___flmul+1)^0,w,c
  7817   001784  6E40               	movwf	(___flmul@temp+1)^0,c
  7818   001786  EFDA  F00B         	goto	l3757
  7819   00178A                     l3751:
  7820   00178A  90D8               	bcf	status,0,c
  7821   00178C  363B               	rlcf	___flmul@prod^0,f,c
  7822   00178E  363C               	rlcf	(___flmul@prod+1)^0,f,c
  7823   001790  363D               	rlcf	(___flmul@prod+2)^0,f,c
  7824   001792  363E               	rlcf	(___flmul@prod+3)^0,f,c
  7825   001794  AE38               	btfss	(___flmul@grs+3)^0,7,c
  7826   001796  EFCF  F00B         	goto	u3811
  7827   00179A  EFD1  F00B         	goto	u3810
  7828   00179E                     u3811:
  7829   00179E  EFD2  F00B         	goto	l961
  7830   0017A2                     u3810:
  7831   0017A2  803B               	bsf	___flmul@prod^0,0,c
  7832   0017A4                     l961:
  7833   0017A4  90D8               	bcf	status,0,c
  7834   0017A6  3635               	rlcf	___flmul@grs^0,f,c
  7835   0017A8  3636               	rlcf	(___flmul@grs+1)^0,f,c
  7836   0017AA  3637               	rlcf	(___flmul@grs+2)^0,f,c
  7837   0017AC  3638               	rlcf	(___flmul@grs+3)^0,f,c
  7838   0017AE  063F               	decf	___flmul@temp^0,f,c
  7839   0017B0  A0D8               	btfss	status,0,c
  7840   0017B2  0640               	decf	(___flmul@temp+1)^0,f,c
  7841   0017B4                     l3757:
  7842   0017B4  AE3D               	btfss	(___flmul@prod+2)^0,7,c
  7843   0017B6  EFDF  F00B         	goto	u3821
  7844   0017BA  EFE1  F00B         	goto	u3820
  7845   0017BE                     u3821:
  7846   0017BE  EFC5  F00B         	goto	l3751
  7847   0017C2                     u3820:
  7848   0017C2  0E00               	movlw	0
  7849   0017C4  6E39               	movwf	___flmul@aexp^0,c
  7850   0017C6  AE38               	btfss	(___flmul@grs+3)^0,7,c
  7851   0017C8  EFE8  F00B         	goto	u3831
  7852   0017CC  EFEA  F00B         	goto	u3830
  7853   0017D0                     u3831:
  7854   0017D0  EF0E  F00C         	goto	l963
  7855   0017D4                     u3830:
  7856   0017D4  0EFF               	movlw	255
  7857   0017D6  1435               	andwf	___flmul@grs^0,w,c
  7858   0017D8  6E30               	movwf	??___flmul^0,c
  7859   0017DA  0EFF               	movlw	255
  7860   0017DC  1436               	andwf	(___flmul@grs+1)^0,w,c
  7861   0017DE  6E31               	movwf	(??___flmul+1)^0,c
  7862   0017E0  0EFF               	movlw	255
  7863   0017E2  1437               	andwf	(___flmul@grs+2)^0,w,c
  7864   0017E4  6E32               	movwf	(??___flmul+2)^0,c
  7865   0017E6  0E7F               	movlw	127
  7866   0017E8  1438               	andwf	(___flmul@grs+3)^0,w,c
  7867   0017EA  6E33               	movwf	(??___flmul+3)^0,c
  7868   0017EC  5030               	movf	??___flmul^0,w,c
  7869   0017EE  1031               	iorwf	(??___flmul+1)^0,w,c
  7870   0017F0  1032               	iorwf	(??___flmul+2)^0,w,c
  7871   0017F2  1033               	iorwf	(??___flmul+3)^0,w,c
  7872   0017F4  B4D8               	btfsc	status,2,c
  7873   0017F6  EFFF  F00B         	goto	u3841
  7874   0017FA  EF01  F00C         	goto	u3840
  7875   0017FE                     u3841:
  7876   0017FE  EF05  F00C         	goto	l964
  7877   001802                     u3840:
  7878   001802                     l3765:
  7879   001802  0E01               	movlw	1
  7880   001804  6E39               	movwf	___flmul@aexp^0,c
  7881   001806  EF0E  F00C         	goto	l963
  7882   00180A                     l964:
  7883   00180A  A03B               	btfss	___flmul@prod^0,0,c
  7884   00180C  EF0A  F00C         	goto	u3851
  7885   001810  EF0C  F00C         	goto	u3850
  7886   001814                     u3851:
  7887   001814  EF0E  F00C         	goto	l963
  7888   001818                     u3850:
  7889   001818  EF01  F00C         	goto	l3765
  7890   00181C                     l963:
  7891   00181C  5039               	movf	___flmul@aexp^0,w,c
  7892   00181E  B4D8               	btfsc	status,2,c
  7893   001820  EF14  F00C         	goto	u3861
  7894   001824  EF16  F00C         	goto	u3860
  7895   001828                     u3861:
  7896   001828  EF3A  F00C         	goto	l3777
  7897   00182C                     u3860:
  7898   00182C  0E01               	movlw	1
  7899   00182E  263B               	addwf	___flmul@prod^0,f,c
  7900   001830  0E00               	movlw	0
  7901   001832  223C               	addwfc	(___flmul@prod+1)^0,f,c
  7902   001834  223D               	addwfc	(___flmul@prod+2)^0,f,c
  7903   001836  223E               	addwfc	(___flmul@prod+3)^0,f,c
  7904   001838  A03E               	btfss	(___flmul@prod+3)^0,0,c
  7905   00183A  EF21  F00C         	goto	u3871
  7906   00183E  EF23  F00C         	goto	u3870
  7907   001842                     u3871:
  7908   001842  EF3A  F00C         	goto	l3777
  7909   001846                     u3870:
  7910   001846  C03B  F030         	movff	___flmul@prod,??___flmul
  7911   00184A  C03C  F031         	movff	___flmul@prod+1,??___flmul+1
  7912   00184E  C03D  F032         	movff	___flmul@prod+2,??___flmul+2
  7913   001852  C03E  F033         	movff	___flmul@prod+3,??___flmul+3
  7914   001856  3433               	rlcf	(??___flmul+3)^0,w,c
  7915   001858  3233               	rrcf	(??___flmul+3)^0,f,c
  7916   00185A  3232               	rrcf	(??___flmul+2)^0,f,c
  7917   00185C  3231               	rrcf	(??___flmul+1)^0,f,c
  7918   00185E  3230               	rrcf	??___flmul^0,f,c
  7919   001860  C030  F03B         	movff	??___flmul,___flmul@prod
  7920   001864  C031  F03C         	movff	??___flmul+1,___flmul@prod+1
  7921   001868  C032  F03D         	movff	??___flmul+2,___flmul@prod+2
  7922   00186C  C033  F03E         	movff	??___flmul+3,___flmul@prod+3
  7923   001870  4A3F               	infsnz	___flmul@temp^0,f,c
  7924   001872  2A40               	incf	(___flmul@temp+1)^0,f,c
  7925   001874                     l3777:
  7926   001874  BE40               	btfsc	(___flmul@temp+1)^0,7,c
  7927   001876  EF45  F00C         	goto	u3881
  7928   00187A  5040               	movf	(___flmul@temp+1)^0,w,c
  7929   00187C  E108               	bnz	u3880
  7930   00187E  283F               	incf	___flmul@temp^0,w,c
  7931   001880  A0D8               	btfss	status,0,c
  7932   001882  EF45  F00C         	goto	u3881
  7933   001886  EF47  F00C         	goto	u3880
  7934   00188A                     u3881:
  7935   00188A  EF51  F00C         	goto	l3781
  7936   00188E                     u3880:
  7937   00188E  0E00               	movlw	0
  7938   001890  6E3B               	movwf	___flmul@prod^0,c
  7939   001892  0E00               	movlw	0
  7940   001894  6E3C               	movwf	(___flmul@prod+1)^0,c
  7941   001896  0E80               	movlw	128
  7942   001898  6E3D               	movwf	(___flmul@prod+2)^0,c
  7943   00189A  0E7F               	movlw	127
  7944   00189C  6E3E               	movwf	(___flmul@prod+3)^0,c
  7945   00189E  EF7F  F00C         	goto	l3793
  7946   0018A2                     l3781:
  7947   0018A2  BE40               	btfsc	(___flmul@temp+1)^0,7,c
  7948   0018A4  EF5E  F00C         	goto	u3890
  7949   0018A8  5040               	movf	(___flmul@temp+1)^0,w,c
  7950   0018AA  E106               	bnz	u3891
  7951   0018AC  043F               	decf	___flmul@temp^0,w,c
  7952   0018AE  B0D8               	btfsc	status,0,c
  7953   0018B0  EF5C  F00C         	goto	u3891
  7954   0018B4  EF5E  F00C         	goto	u3890
  7955   0018B8                     u3891:
  7956   0018B8  EF6A  F00C         	goto	l971
  7957   0018BC                     u3890:
  7958   0018BC  0E00               	movlw	0
  7959   0018BE  6E3B               	movwf	___flmul@prod^0,c
  7960   0018C0  0E00               	movlw	0
  7961   0018C2  6E3C               	movwf	(___flmul@prod+1)^0,c
  7962   0018C4  0E00               	movlw	0
  7963   0018C6  6E3D               	movwf	(___flmul@prod+2)^0,c
  7964   0018C8  0E00               	movlw	0
  7965   0018CA  6E3E               	movwf	(___flmul@prod+3)^0,c
  7966   0018CC  0E00               	movlw	0
  7967   0018CE  6E34               	movwf	___flmul@sign^0,c
  7968   0018D0  EF7F  F00C         	goto	l3793
  7969   0018D4                     l971:
  7970   0018D4  C03F  F03A         	movff	___flmul@temp,___flmul@bexp
  7971   0018D8  0EFF               	movlw	255
  7972   0018DA  163B               	andwf	___flmul@prod^0,f,c
  7973   0018DC  0EFF               	movlw	255
  7974   0018DE  163C               	andwf	(___flmul@prod+1)^0,f,c
  7975   0018E0  0E7F               	movlw	127
  7976   0018E2  163D               	andwf	(___flmul@prod+2)^0,f,c
  7977   0018E4  0E00               	movlw	0
  7978   0018E6  163E               	andwf	(___flmul@prod+3)^0,f,c
  7979   0018E8  A03A               	btfss	___flmul@bexp^0,0,c
  7980   0018EA  EF79  F00C         	goto	u3901
  7981   0018EE  EF7B  F00C         	goto	u3900
  7982   0018F2                     u3901:
  7983   0018F2  EF7C  F00C         	goto	l3791
  7984   0018F6                     u3900:
  7985   0018F6  8E3D               	bsf	(___flmul@prod+2)^0,7,c
  7986   0018F8                     l3791:
  7987   0018F8  90D8               	bcf	status,0,c
  7988   0018FA  303A               	rrcf	___flmul@bexp^0,w,c
  7989   0018FC  6E3E               	movwf	(___flmul@prod+3)^0,c
  7990   0018FE                     l3793:
  7991   0018FE  5034               	movf	___flmul@sign^0,w,c
  7992   001900  123E               	iorwf	(___flmul@prod+3)^0,f,c
  7993   001902  C03B  F028         	movff	___flmul@prod,?___flmul
  7994   001906  C03C  F029         	movff	___flmul@prod+1,?___flmul+1
  7995   00190A  C03D  F02A         	movff	___flmul@prod+2,?___flmul+2
  7996   00190E  C03E  F02B         	movff	___flmul@prod+3,?___flmul+3
  7997   001912                     l958:
  7998   001912  0012               	return		;funcret
  7999   001914                     __end_of___flmul:
  8000                           	callstack 0
  8001                           
  8002 ;; *************** function ___fldiv *****************
  8003 ;; Defined at:
  8004 ;;		line 11 in file "C:\Program Files\Microchip\xc8\v2.40\pic\sources\c99\common\sprcdiv.c"
  8005 ;; Parameters:    Size  Location     Type
  8006 ;;  b               4   14[COMRAM] unsigned char 
  8007 ;;  a               4   18[COMRAM] unsigned char 
  8008 ;; Auto vars:     Size  Location     Type
  8009 ;;  grs             4   33[COMRAM] unsigned long 
  8010 ;;  rem             4   26[COMRAM] unsigned long 
  8011 ;;  new_exp         2   31[COMRAM] short 
  8012 ;;  aexp            1   38[COMRAM] unsigned char 
  8013 ;;  bexp            1   37[COMRAM] unsigned char 
  8014 ;;  sign            1   30[COMRAM] unsigned char 
  8015 ;; Return value:  Size  Location     Type
  8016 ;;                  4   14[COMRAM] unsigned char 
  8017 ;; Registers used:
  8018 ;;		wreg, status,2, status,0
  8019 ;; Tracked objects:
  8020 ;;		On entry : 0/0
  8021 ;;		On exit  : 0/0
  8022 ;;		Unchanged: 0/0
  8023 ;; Data sizes:     COMRAM   BANK0   BANK1   BANK2   BANK3   BANK4   BANK5   BANK6   BANK7   BANK8   BANK9  BANK10  BANK1
      +1  BANK12  BANK13  BANK14  BANK15
  8024 ;;      Params:         8       0       0       0       0       0       0       0       0       0       0       0       
      +0       0       0       0       0
  8025 ;;      Locals:        13       0       0       0       0       0       0       0       0       0       0       0       
      +0       0       0       0       0
  8026 ;;      Temps:          4       0       0       0       0       0       0       0       0       0       0       0       
      +0       0       0       0       0
  8027 ;;      Totals:        25       0       0       0       0       0       0       0       0       0       0       0       
      +0       0       0       0       0
  8028 ;;Total ram usage:       25 bytes
  8029 ;; Hardware stack levels used: 1
  8030 ;; This function calls:
  8031 ;;		Nothing
  8032 ;; This function is called by:
  8033 ;;		_CCP1_PWM_Set_Duty
  8034 ;;		_main
  8035 ;; This function uses a non-reentrant model
  8036 ;;
  8037                           
  8038                           	psect	text44
  8039   001CC2                     __ptext44:
  8040                           	callstack 0
  8041   001CC2                     ___fldiv:
  8042                           	callstack 30
  8043   001CC2  5012               	movf	(___fldiv@b+3)^0,w,c
  8044   001CC4  0B80               	andlw	128
  8045   001CC6  6E1F               	movwf	___fldiv@sign^0,c
  8046   001CC8  5012               	movf	(___fldiv@b+3)^0,w,c
  8047   001CCA  2412               	addwf	(___fldiv@b+3)^0,w,c
  8048   001CCC  6E26               	movwf	___fldiv@bexp^0,c
  8049   001CCE  AE11               	btfss	(___fldiv@b+2)^0,7,c
  8050   001CD0  EF6C  F00E         	goto	u3491
  8051   001CD4  EF6E  F00E         	goto	u3490
  8052   001CD8                     u3491:
  8053   001CD8  EF6F  F00E         	goto	l3537
  8054   001CDC                     u3490:
  8055   001CDC  8026               	bsf	___fldiv@bexp^0,0,c
  8056   001CDE                     l3537:
  8057   001CDE  5026               	movf	___fldiv@bexp^0,w,c
  8058   001CE0  B4D8               	btfsc	status,2,c
  8059   001CE2  EF75  F00E         	goto	u3501
  8060   001CE6  EF77  F00E         	goto	u3500
  8061   001CEA                     u3501:
  8062   001CEA  EF8C  F00E         	goto	l3547
  8063   001CEE                     u3500:
  8064   001CEE  2826               	incf	___fldiv@bexp^0,w,c
  8065   001CF0  A4D8               	btfss	status,2,c
  8066   001CF2  EF7D  F00E         	goto	u3511
  8067   001CF6  EF7F  F00E         	goto	u3510
  8068   001CFA                     u3511:
  8069   001CFA  EF87  F00E         	goto	l3543
  8070   001CFE                     u3510:
  8071   001CFE  0E00               	movlw	0
  8072   001D00  6E0F               	movwf	___fldiv@b^0,c
  8073   001D02  0E00               	movlw	0
  8074   001D04  6E10               	movwf	(___fldiv@b+1)^0,c
  8075   001D06  0E00               	movlw	0
  8076   001D08  6E11               	movwf	(___fldiv@b+2)^0,c
  8077   001D0A  0E00               	movlw	0
  8078   001D0C  6E12               	movwf	(___fldiv@b+3)^0,c
  8079   001D0E                     l3543:
  8080   001D0E  8E11               	bsf	(___fldiv@b+2)^0,7,c
  8081   001D10  0E00               	movlw	0
  8082   001D12  6E12               	movwf	(___fldiv@b+3)^0,c
  8083   001D14  EF94  F00E         	goto	l3549
  8084   001D18                     l3547:
  8085   001D18  0E00               	movlw	0
  8086   001D1A  6E0F               	movwf	___fldiv@b^0,c
  8087   001D1C  0E00               	movlw	0
  8088   001D1E  6E10               	movwf	(___fldiv@b+1)^0,c
  8089   001D20  0E00               	movlw	0
  8090   001D22  6E11               	movwf	(___fldiv@b+2)^0,c
  8091   001D24  0E00               	movlw	0
  8092   001D26  6E12               	movwf	(___fldiv@b+3)^0,c
  8093   001D28                     l3549:
  8094   001D28  5016               	movf	(___fldiv@a+3)^0,w,c
  8095   001D2A  0B80               	andlw	128
  8096   001D2C  1A1F               	xorwf	___fldiv@sign^0,f,c
  8097   001D2E  5016               	movf	(___fldiv@a+3)^0,w,c
  8098   001D30  2416               	addwf	(___fldiv@a+3)^0,w,c
  8099   001D32  6E27               	movwf	___fldiv@aexp^0,c
  8100   001D34  AE15               	btfss	(___fldiv@a+2)^0,7,c
  8101   001D36  EF9F  F00E         	goto	u3521
  8102   001D3A  EFA1  F00E         	goto	u3520
  8103   001D3E                     u3521:
  8104   001D3E  EFA2  F00E         	goto	l3557
  8105   001D42                     u3520:
  8106   001D42  8027               	bsf	___fldiv@aexp^0,0,c
  8107   001D44                     l3557:
  8108   001D44  5027               	movf	___fldiv@aexp^0,w,c
  8109   001D46  B4D8               	btfsc	status,2,c
  8110   001D48  EFA8  F00E         	goto	u3531
  8111   001D4C  EFAA  F00E         	goto	u3530
  8112   001D50                     u3531:
  8113   001D50  EFBF  F00E         	goto	l3567
  8114   001D54                     u3530:
  8115   001D54  2827               	incf	___fldiv@aexp^0,w,c
  8116   001D56  A4D8               	btfss	status,2,c
  8117   001D58  EFB0  F00E         	goto	u3541
  8118   001D5C  EFB2  F00E         	goto	u3540
  8119   001D60                     u3541:
  8120   001D60  EFBA  F00E         	goto	l3563
  8121   001D64                     u3540:
  8122   001D64  0E00               	movlw	0
  8123   001D66  6E13               	movwf	___fldiv@a^0,c
  8124   001D68  0E00               	movlw	0
  8125   001D6A  6E14               	movwf	(___fldiv@a+1)^0,c
  8126   001D6C  0E00               	movlw	0
  8127   001D6E  6E15               	movwf	(___fldiv@a+2)^0,c
  8128   001D70  0E00               	movlw	0
  8129   001D72  6E16               	movwf	(___fldiv@a+3)^0,c
  8130   001D74                     l3563:
  8131   001D74  8E15               	bsf	(___fldiv@a+2)^0,7,c
  8132   001D76  0E00               	movlw	0
  8133   001D78  6E16               	movwf	(___fldiv@a+3)^0,c
  8134   001D7A  EFC7  F00E         	goto	l3569
  8135   001D7E                     l3567:
  8136   001D7E  0E00               	movlw	0
  8137   001D80  6E13               	movwf	___fldiv@a^0,c
  8138   001D82  0E00               	movlw	0
  8139   001D84  6E14               	movwf	(___fldiv@a+1)^0,c
  8140   001D86  0E00               	movlw	0
  8141   001D88  6E15               	movwf	(___fldiv@a+2)^0,c
  8142   001D8A  0E00               	movlw	0
  8143   001D8C  6E16               	movwf	(___fldiv@a+3)^0,c
  8144   001D8E                     l3569:
  8145   001D8E  5013               	movf	___fldiv@a^0,w,c
  8146   001D90  1014               	iorwf	(___fldiv@a+1)^0,w,c
  8147   001D92  1015               	iorwf	(___fldiv@a+2)^0,w,c
  8148   001D94  1016               	iorwf	(___fldiv@a+3)^0,w,c
  8149   001D96  A4D8               	btfss	status,2,c
  8150   001D98  EFD0  F00E         	goto	u3551
  8151   001D9C  EFD2  F00E         	goto	u3550
  8152   001DA0                     u3551:
  8153   001DA0  EFEA  F00E         	goto	l3581
  8154   001DA4                     u3550:
  8155   001DA4  0E00               	movlw	0
  8156   001DA6  6E0F               	movwf	___fldiv@b^0,c
  8157   001DA8  0E00               	movlw	0
  8158   001DAA  6E10               	movwf	(___fldiv@b+1)^0,c
  8159   001DAC  0E00               	movlw	0
  8160   001DAE  6E11               	movwf	(___fldiv@b+2)^0,c
  8161   001DB0  0E00               	movlw	0
  8162   001DB2  6E12               	movwf	(___fldiv@b+3)^0,c
  8163   001DB4  0E80               	movlw	128
  8164   001DB6  1211               	iorwf	(___fldiv@b+2)^0,f,c
  8165   001DB8  0E7F               	movlw	127
  8166   001DBA  1212               	iorwf	(___fldiv@b+3)^0,f,c
  8167   001DBC                     l3575:
  8168   001DBC  501F               	movf	___fldiv@sign^0,w,c
  8169   001DBE  1212               	iorwf	(___fldiv@b+3)^0,f,c
  8170   001DC0  C00F  F00F         	movff	___fldiv@b,?___fldiv
  8171   001DC4  C010  F010         	movff	___fldiv@b+1,?___fldiv+1
  8172   001DC8  C011  F011         	movff	___fldiv@b+2,?___fldiv+2
  8173   001DCC  C012  F012         	movff	___fldiv@b+3,?___fldiv+3
  8174   001DD0  EF2D  F010         	goto	l922
  8175   001DD4                     l3581:
  8176   001DD4  5026               	movf	___fldiv@bexp^0,w,c
  8177   001DD6  A4D8               	btfss	status,2,c
  8178   001DD8  EFF0  F00E         	goto	u3561
  8179   001DDC  EFF2  F00E         	goto	u3560
  8180   001DE0                     u3561:
  8181   001DE0  EFFC  F00E         	goto	l3589
  8182   001DE4                     u3560:
  8183   001DE4  0E00               	movlw	0
  8184   001DE6  6E0F               	movwf	?___fldiv^0,c
  8185   001DE8  0E00               	movlw	0
  8186   001DEA  6E10               	movwf	(?___fldiv+1)^0,c
  8187   001DEC  0E00               	movlw	0
  8188   001DEE  6E11               	movwf	(?___fldiv+2)^0,c
  8189   001DF0  0E00               	movlw	0
  8190   001DF2  6E12               	movwf	(?___fldiv+3)^0,c
  8191   001DF4  EF2D  F010         	goto	l922
  8192   001DF8                     l3589:
  8193   001DF8  5027               	movf	___fldiv@aexp^0,w,c
  8194   001DFA  C026  F017         	movff	___fldiv@bexp,??___fldiv
  8195   001DFE  6A18               	clrf	(??___fldiv+1)^0,c
  8196   001E00  5E17               	subwf	??___fldiv^0,f,c
  8197   001E02  0E00               	movlw	0
  8198   001E04  5A18               	subwfb	(??___fldiv+1)^0,f,c
  8199   001E06  0E7F               	movlw	127
  8200   001E08  2417               	addwf	??___fldiv^0,w,c
  8201   001E0A  6E20               	movwf	___fldiv@new_exp^0,c
  8202   001E0C  0E00               	movlw	0
  8203   001E0E  2018               	addwfc	(??___fldiv+1)^0,w,c
  8204   001E10  6E21               	movwf	(___fldiv@new_exp+1)^0,c
  8205   001E12  C00F  F01B         	movff	___fldiv@b,___fldiv@rem
  8206   001E16  C010  F01C         	movff	___fldiv@b+1,___fldiv@rem+1
  8207   001E1A  C011  F01D         	movff	___fldiv@b+2,___fldiv@rem+2
  8208   001E1E  C012  F01E         	movff	___fldiv@b+3,___fldiv@rem+3
  8209   001E22  0E00               	movlw	0
  8210   001E24  6E0F               	movwf	___fldiv@b^0,c
  8211   001E26  0E00               	movlw	0
  8212   001E28  6E10               	movwf	(___fldiv@b+1)^0,c
  8213   001E2A  0E00               	movlw	0
  8214   001E2C  6E11               	movwf	(___fldiv@b+2)^0,c
  8215   001E2E  0E00               	movlw	0
  8216   001E30  6E12               	movwf	(___fldiv@b+3)^0,c
  8217   001E32  0E00               	movlw	0
  8218   001E34  6E22               	movwf	___fldiv@grs^0,c
  8219   001E36  0E00               	movlw	0
  8220   001E38  6E23               	movwf	(___fldiv@grs+1)^0,c
  8221   001E3A  0E00               	movlw	0
  8222   001E3C  6E24               	movwf	(___fldiv@grs+2)^0,c
  8223   001E3E  0E00               	movlw	0
  8224   001E40  6E25               	movwf	(___fldiv@grs+3)^0,c
  8225   001E42  0E00               	movlw	0
  8226   001E44  6E27               	movwf	___fldiv@aexp^0,c
  8227   001E46  EF5D  F00F         	goto	l924
  8228   001E4A                     l3599:
  8229   001E4A  5027               	movf	___fldiv@aexp^0,w,c
  8230   001E4C  B4D8               	btfsc	status,2,c
  8231   001E4E  EF2B  F00F         	goto	u3571
  8232   001E52  EF2D  F00F         	goto	u3570
  8233   001E56                     u3571:
  8234   001E56  EF44  F00F         	goto	l3607
  8235   001E5A                     u3570:
  8236   001E5A  90D8               	bcf	status,0,c
  8237   001E5C  361B               	rlcf	___fldiv@rem^0,f,c
  8238   001E5E  361C               	rlcf	(___fldiv@rem+1)^0,f,c
  8239   001E60  361D               	rlcf	(___fldiv@rem+2)^0,f,c
  8240   001E62  361E               	rlcf	(___fldiv@rem+3)^0,f,c
  8241   001E64  90D8               	bcf	status,0,c
  8242   001E66  360F               	rlcf	___fldiv@b^0,f,c
  8243   001E68  3610               	rlcf	(___fldiv@b+1)^0,f,c
  8244   001E6A  3611               	rlcf	(___fldiv@b+2)^0,f,c
  8245   001E6C  3612               	rlcf	(___fldiv@b+3)^0,f,c
  8246   001E6E  AE25               	btfss	(___fldiv@grs+3)^0,7,c
  8247   001E70  EF3C  F00F         	goto	u3581
  8248   001E74  EF3E  F00F         	goto	u3580
  8249   001E78                     u3581:
  8250   001E78  EF3F  F00F         	goto	l927
  8251   001E7C                     u3580:
  8252   001E7C  800F               	bsf	___fldiv@b^0,0,c
  8253   001E7E                     l927:
  8254   001E7E  90D8               	bcf	status,0,c
  8255   001E80  3622               	rlcf	___fldiv@grs^0,f,c
  8256   001E82  3623               	rlcf	(___fldiv@grs+1)^0,f,c
  8257   001E84  3624               	rlcf	(___fldiv@grs+2)^0,f,c
  8258   001E86  3625               	rlcf	(___fldiv@grs+3)^0,f,c
  8259   001E88                     l3607:
  8260   001E88  5013               	movf	___fldiv@a^0,w,c
  8261   001E8A  5C1B               	subwf	___fldiv@rem^0,w,c
  8262   001E8C  5014               	movf	(___fldiv@a+1)^0,w,c
  8263   001E8E  581C               	subwfb	(___fldiv@rem+1)^0,w,c
  8264   001E90  5015               	movf	(___fldiv@a+2)^0,w,c
  8265   001E92  581D               	subwfb	(___fldiv@rem+2)^0,w,c
  8266   001E94  5016               	movf	(___fldiv@a+3)^0,w,c
  8267   001E96  581E               	subwfb	(___fldiv@rem+3)^0,w,c
  8268   001E98  A0D8               	btfss	status,0,c
  8269   001E9A  EF51  F00F         	goto	u3591
  8270   001E9E  EF53  F00F         	goto	u3590
  8271   001EA2                     u3591:
  8272   001EA2  EF5C  F00F         	goto	l3613
  8273   001EA6                     u3590:
  8274   001EA6  8C25               	bsf	(___fldiv@grs+3)^0,6,c
  8275   001EA8  5013               	movf	___fldiv@a^0,w,c
  8276   001EAA  5E1B               	subwf	___fldiv@rem^0,f,c
  8277   001EAC  5014               	movf	(___fldiv@a+1)^0,w,c
  8278   001EAE  5A1C               	subwfb	(___fldiv@rem+1)^0,f,c
  8279   001EB0  5015               	movf	(___fldiv@a+2)^0,w,c
  8280   001EB2  5A1D               	subwfb	(___fldiv@rem+2)^0,f,c
  8281   001EB4  5016               	movf	(___fldiv@a+3)^0,w,c
  8282   001EB6  5A1E               	subwfb	(___fldiv@rem+3)^0,f,c
  8283   001EB8                     l3613:
  8284   001EB8  2A27               	incf	___fldiv@aexp^0,f,c
  8285   001EBA                     l924:
  8286   001EBA  0E19               	movlw	25
  8287   001EBC  6427               	cpfsgt	___fldiv@aexp^0,c
  8288   001EBE  EF63  F00F         	goto	u3601
  8289   001EC2  EF65  F00F         	goto	u3600
  8290   001EC6                     u3601:
  8291   001EC6  EF25  F00F         	goto	l3599
  8292   001ECA                     u3600:
  8293   001ECA  501B               	movf	___fldiv@rem^0,w,c
  8294   001ECC  101C               	iorwf	(___fldiv@rem+1)^0,w,c
  8295   001ECE  101D               	iorwf	(___fldiv@rem+2)^0,w,c
  8296   001ED0  101E               	iorwf	(___fldiv@rem+3)^0,w,c
  8297   001ED2  B4D8               	btfsc	status,2,c
  8298   001ED4  EF6E  F00F         	goto	u3611
  8299   001ED8  EF70  F00F         	goto	u3610
  8300   001EDC                     u3611:
  8301   001EDC  EF88  F00F         	goto	l3625
  8302   001EE0                     u3610:
  8303   001EE0  8022               	bsf	___fldiv@grs^0,0,c
  8304   001EE2  EF88  F00F         	goto	l3625
  8305   001EE6                     l3619:
  8306   001EE6  90D8               	bcf	status,0,c
  8307   001EE8  360F               	rlcf	___fldiv@b^0,f,c
  8308   001EEA  3610               	rlcf	(___fldiv@b+1)^0,f,c
  8309   001EEC  3611               	rlcf	(___fldiv@b+2)^0,f,c
  8310   001EEE  3612               	rlcf	(___fldiv@b+3)^0,f,c
  8311   001EF0  AE25               	btfss	(___fldiv@grs+3)^0,7,c
  8312   001EF2  EF7D  F00F         	goto	u3621
  8313   001EF6  EF7F  F00F         	goto	u3620
  8314   001EFA                     u3621:
  8315   001EFA  EF80  F00F         	goto	l933
  8316   001EFE                     u3620:
  8317   001EFE  800F               	bsf	___fldiv@b^0,0,c
  8318   001F00                     l933:
  8319   001F00  90D8               	bcf	status,0,c
  8320   001F02  3622               	rlcf	___fldiv@grs^0,f,c
  8321   001F04  3623               	rlcf	(___fldiv@grs+1)^0,f,c
  8322   001F06  3624               	rlcf	(___fldiv@grs+2)^0,f,c
  8323   001F08  3625               	rlcf	(___fldiv@grs+3)^0,f,c
  8324   001F0A  0620               	decf	___fldiv@new_exp^0,f,c
  8325   001F0C  A0D8               	btfss	status,0,c
  8326   001F0E  0621               	decf	(___fldiv@new_exp+1)^0,f,c
  8327   001F10                     l3625:
  8328   001F10  AE11               	btfss	(___fldiv@b+2)^0,7,c
  8329   001F12  EF8D  F00F         	goto	u3631
  8330   001F16  EF8F  F00F         	goto	u3630
  8331   001F1A                     u3631:
  8332   001F1A  EF73  F00F         	goto	l3619
  8333   001F1E                     u3630:
  8334   001F1E  0E00               	movlw	0
  8335   001F20  6E27               	movwf	___fldiv@aexp^0,c
  8336   001F22  AE25               	btfss	(___fldiv@grs+3)^0,7,c
  8337   001F24  EF96  F00F         	goto	u3641
  8338   001F28  EF98  F00F         	goto	u3640
  8339   001F2C                     u3641:
  8340   001F2C  EFBC  F00F         	goto	l935
  8341   001F30                     u3640:
  8342   001F30  0EFF               	movlw	255
  8343   001F32  1422               	andwf	___fldiv@grs^0,w,c
  8344   001F34  6E17               	movwf	??___fldiv^0,c
  8345   001F36  0EFF               	movlw	255
  8346   001F38  1423               	andwf	(___fldiv@grs+1)^0,w,c
  8347   001F3A  6E18               	movwf	(??___fldiv+1)^0,c
  8348   001F3C  0EFF               	movlw	255
  8349   001F3E  1424               	andwf	(___fldiv@grs+2)^0,w,c
  8350   001F40  6E19               	movwf	(??___fldiv+2)^0,c
  8351   001F42  0E7F               	movlw	127
  8352   001F44  1425               	andwf	(___fldiv@grs+3)^0,w,c
  8353   001F46  6E1A               	movwf	(??___fldiv+3)^0,c
  8354   001F48  5017               	movf	??___fldiv^0,w,c
  8355   001F4A  1018               	iorwf	(??___fldiv+1)^0,w,c
  8356   001F4C  1019               	iorwf	(??___fldiv+2)^0,w,c
  8357   001F4E  101A               	iorwf	(??___fldiv+3)^0,w,c
  8358   001F50  B4D8               	btfsc	status,2,c
  8359   001F52  EFAD  F00F         	goto	u3651
  8360   001F56  EFAF  F00F         	goto	u3650
  8361   001F5A                     u3651:
  8362   001F5A  EFB3  F00F         	goto	l936
  8363   001F5E                     u3650:
  8364   001F5E                     l3633:
  8365   001F5E  0E01               	movlw	1
  8366   001F60  6E27               	movwf	___fldiv@aexp^0,c
  8367   001F62  EFBC  F00F         	goto	l935
  8368   001F66                     l936:
  8369   001F66  A00F               	btfss	___fldiv@b^0,0,c
  8370   001F68  EFB8  F00F         	goto	u3661
  8371   001F6C  EFBA  F00F         	goto	u3660
  8372   001F70                     u3661:
  8373   001F70  EFBC  F00F         	goto	l935
  8374   001F74                     u3660:
  8375   001F74  EFAF  F00F         	goto	l3633
  8376   001F78                     l935:
  8377   001F78  5027               	movf	___fldiv@aexp^0,w,c
  8378   001F7A  B4D8               	btfsc	status,2,c
  8379   001F7C  EFC2  F00F         	goto	u3671
  8380   001F80  EFC4  F00F         	goto	u3670
  8381   001F84                     u3671:
  8382   001F84  EFE8  F00F         	goto	l3645
  8383   001F88                     u3670:
  8384   001F88  0E01               	movlw	1
  8385   001F8A  260F               	addwf	___fldiv@b^0,f,c
  8386   001F8C  0E00               	movlw	0
  8387   001F8E  2210               	addwfc	(___fldiv@b+1)^0,f,c
  8388   001F90  2211               	addwfc	(___fldiv@b+2)^0,f,c
  8389   001F92  2212               	addwfc	(___fldiv@b+3)^0,f,c
  8390   001F94  A012               	btfss	(___fldiv@b+3)^0,0,c
  8391   001F96  EFCF  F00F         	goto	u3681
  8392   001F9A  EFD1  F00F         	goto	u3680
  8393   001F9E                     u3681:
  8394   001F9E  EFE8  F00F         	goto	l3645
  8395   001FA2                     u3680:
  8396   001FA2  C00F  F017         	movff	___fldiv@b,??___fldiv
  8397   001FA6  C010  F018         	movff	___fldiv@b+1,??___fldiv+1
  8398   001FAA  C011  F019         	movff	___fldiv@b+2,??___fldiv+2
  8399   001FAE  C012  F01A         	movff	___fldiv@b+3,??___fldiv+3
  8400   001FB2  341A               	rlcf	(??___fldiv+3)^0,w,c
  8401   001FB4  321A               	rrcf	(??___fldiv+3)^0,f,c
  8402   001FB6  3219               	rrcf	(??___fldiv+2)^0,f,c
  8403   001FB8  3218               	rrcf	(??___fldiv+1)^0,f,c
  8404   001FBA  3217               	rrcf	??___fldiv^0,f,c
  8405   001FBC  C017  F00F         	movff	??___fldiv,___fldiv@b
  8406   001FC0  C018  F010         	movff	??___fldiv+1,___fldiv@b+1
  8407   001FC4  C019  F011         	movff	??___fldiv+2,___fldiv@b+2
  8408   001FC8  C01A  F012         	movff	??___fldiv+3,___fldiv@b+3
  8409   001FCC  4A20               	infsnz	___fldiv@new_exp^0,f,c
  8410   001FCE  2A21               	incf	(___fldiv@new_exp+1)^0,f,c
  8411   001FD0                     l3645:
  8412   001FD0  BE21               	btfsc	(___fldiv@new_exp+1)^0,7,c
  8413   001FD2  EFF3  F00F         	goto	u3691
  8414   001FD6  5021               	movf	(___fldiv@new_exp+1)^0,w,c
  8415   001FD8  E108               	bnz	u3690
  8416   001FDA  2820               	incf	___fldiv@new_exp^0,w,c
  8417   001FDC  A0D8               	btfss	status,0,c
  8418   001FDE  EFF3  F00F         	goto	u3691
  8419   001FE2  EFF5  F00F         	goto	u3690
  8420   001FE6                     u3691:
  8421   001FE6  EF00  F010         	goto	l3649
  8422   001FEA                     u3690:
  8423   001FEA  0E00               	movlw	0
  8424   001FEC  6E21               	movwf	(___fldiv@new_exp+1)^0,c
  8425   001FEE  6820               	setf	___fldiv@new_exp^0,c
  8426   001FF0  0E00               	movlw	0
  8427   001FF2  6E0F               	movwf	___fldiv@b^0,c
  8428   001FF4  0E00               	movlw	0
  8429   001FF6  6E10               	movwf	(___fldiv@b+1)^0,c
  8430   001FF8  0E00               	movlw	0
  8431   001FFA  6E11               	movwf	(___fldiv@b+2)^0,c
  8432   001FFC  0E00               	movlw	0
  8433   001FFE  6E12               	movwf	(___fldiv@b+3)^0,c
  8434   002000                     l3649:
  8435   002000  BE21               	btfsc	(___fldiv@new_exp+1)^0,7,c
  8436   002002  EF0D  F010         	goto	u3700
  8437   002006  5021               	movf	(___fldiv@new_exp+1)^0,w,c
  8438   002008  E106               	bnz	u3701
  8439   00200A  0420               	decf	___fldiv@new_exp^0,w,c
  8440   00200C  B0D8               	btfsc	status,0,c
  8441   00200E  EF0B  F010         	goto	u3701
  8442   002012  EF0D  F010         	goto	u3700
  8443   002016                     u3701:
  8444   002016  EF1B  F010         	goto	l3653
  8445   00201A                     u3700:
  8446   00201A  0E00               	movlw	0
  8447   00201C  6E21               	movwf	(___fldiv@new_exp+1)^0,c
  8448   00201E  0E00               	movlw	0
  8449   002020  6E20               	movwf	___fldiv@new_exp^0,c
  8450   002022  0E00               	movlw	0
  8451   002024  6E0F               	movwf	___fldiv@b^0,c
  8452   002026  0E00               	movlw	0
  8453   002028  6E10               	movwf	(___fldiv@b+1)^0,c
  8454   00202A  0E00               	movlw	0
  8455   00202C  6E11               	movwf	(___fldiv@b+2)^0,c
  8456   00202E  0E00               	movlw	0
  8457   002030  6E12               	movwf	(___fldiv@b+3)^0,c
  8458   002032  0E00               	movlw	0
  8459   002034  6E1F               	movwf	___fldiv@sign^0,c
  8460   002036                     l3653:
  8461   002036  C020  F026         	movff	___fldiv@new_exp,___fldiv@bexp
  8462   00203A  A026               	btfss	___fldiv@bexp^0,0,c
  8463   00203C  EF22  F010         	goto	u3711
  8464   002040  EF24  F010         	goto	u3710
  8465   002044                     u3711:
  8466   002044  EF27  F010         	goto	l3659
  8467   002048                     u3710:
  8468   002048  8E11               	bsf	(___fldiv@b+2)^0,7,c
  8469   00204A  EF28  F010         	goto	l3661
  8470   00204E                     l3659:
  8471   00204E  9E11               	bcf	(___fldiv@b+2)^0,7,c
  8472   002050                     l3661:
  8473   002050  90D8               	bcf	status,0,c
  8474   002052  3026               	rrcf	___fldiv@bexp^0,w,c
  8475   002054  6E12               	movwf	(___fldiv@b+3)^0,c
  8476   002056  EFDE  F00E         	goto	l3575
  8477   00205A                     l922:
  8478   00205A  0012               	return		;funcret
  8479   00205C                     __end_of___fldiv:
  8480                           	callstack 0
  8481                           
  8482 ;; *************** function _ADC_getConversionBlocking *****************
  8483 ;; Defined at:
  8484 ;;		line 122 in file "MCAL_Layer/ADC/hal_adc.c"
  8485 ;; Parameters:    Size  Location     Type
  8486 ;;  _adc            2   11[COMRAM] PTR const struct .
  8487 ;;		 -> adc(4), 
  8488 ;;  channel         1   13[COMRAM] enum E3430
  8489 ;;  result          2   14[COMRAM] PTR unsigned short 
  8490 ;;		 -> lm35_value(2), 
  8491 ;; Auto vars:     Size  Location     Type
  8492 ;;  ret             1   16[COMRAM] unsigned char 
  8493 ;; Return value:  Size  Location     Type
  8494 ;;                  1    wreg      unsigned char 
  8495 ;; Registers used:
  8496 ;;		wreg, fsr2l, fsr2h, status,2, status,0, cstack
  8497 ;; Tracked objects:
  8498 ;;		On entry : 0/0
  8499 ;;		On exit  : 0/0
  8500 ;;		Unchanged: 0/0
  8501 ;; Data sizes:     COMRAM   BANK0   BANK1   BANK2   BANK3   BANK4   BANK5   BANK6   BANK7   BANK8   BANK9  BANK10  BANK1
      +1  BANK12  BANK13  BANK14  BANK15
  8502 ;;      Params:         5       0       0       0       0       0       0       0       0       0       0       0       
      +0       0       0       0       0
  8503 ;;      Locals:         1       0       0       0       0       0       0       0       0       0       0       0       
      +0       0       0       0       0
  8504 ;;      Temps:          0       0       0       0       0       0       0       0       0       0       0       0       
      +0       0       0       0       0
  8505 ;;      Totals:         6       0       0       0       0       0       0       0       0       0       0       0       
      +0       0       0       0       0
  8506 ;;Total ram usage:        6 bytes
  8507 ;; Hardware stack levels used: 1
  8508 ;; Hardware stack levels required when called: 2
  8509 ;; This function calls:
  8510 ;;		_ADC_getConversionResult
  8511 ;;		_ADC_selectChannel
  8512 ;;		_ADC_startConversion
  8513 ;; This function is called by:
  8514 ;;		_main
  8515 ;; This function uses a non-reentrant model
  8516 ;;
  8517                           
  8518                           	psect	text45
  8519   003C42                     __ptext45:
  8520                           	callstack 0
  8521   003C42                     _ADC_getConversionBlocking:
  8522                           	callstack 28
  8523   003C42                     
  8524                           ;MCAL_Layer/ADC/hal_adc.c: 122: Std_ReturnType ADC_getConversionBlocking(const adc_confi
      +                          g_t *_adc, adc_analog_channel_t channel;MCAL_Layer/ADC/hal_adc.c: 123:                  
      +                                              , converion_result_t *result);MCAL_Layer/ADC/hal_adc.c: 124: {;MCAL_
      +                          Layer/ADC/hal_adc.c: 125:     Std_ReturnType ret = (Std_ReturnType)0x00;
  8525   003C42  0E00               	movlw	0
  8526   003C44  6E11               	movwf	ADC_getConversionBlocking@ret^0,c
  8527   003C46                     
  8528                           ;MCAL_Layer/ADC/hal_adc.c: 126:     if(((void*)0) != _adc && ((void*)0) != result){
  8529   003C46  500C               	movf	ADC_getConversionBlocking@_adc^0,w,c
  8530   003C48  100D               	iorwf	(ADC_getConversionBlocking@_adc+1)^0,w,c
  8531   003C4A  B4D8               	btfsc	status,2,c
  8532   003C4C  EF2A  F01E         	goto	u4151
  8533   003C50  EF2C  F01E         	goto	u4150
  8534   003C54                     u4151:
  8535   003C54  EF59  F01E         	goto	l3951
  8536   003C58                     u4150:
  8537   003C58  500F               	movf	ADC_getConversionBlocking@result^0,w,c
  8538   003C5A  1010               	iorwf	(ADC_getConversionBlocking@result+1)^0,w,c
  8539   003C5C  B4D8               	btfsc	status,2,c
  8540   003C5E  EF33  F01E         	goto	u4161
  8541   003C62  EF35  F01E         	goto	u4160
  8542   003C66                     u4161:
  8543   003C66  EF59  F01E         	goto	l3951
  8544   003C6A                     u4160:
  8545   003C6A                     
  8546                           ;MCAL_Layer/ADC/hal_adc.c: 127:         ret = (Std_ReturnType)0x01;
  8547   003C6A  0E01               	movlw	1
  8548   003C6C  6E11               	movwf	ADC_getConversionBlocking@ret^0,c
  8549   003C6E                     
  8550                           ;MCAL_Layer/ADC/hal_adc.c: 129:         ret &= ADC_selectChannel(_adc, channel);
  8551   003C6E  C00C  F005         	movff	ADC_getConversionBlocking@_adc,ADC_selectChannel@_adc
  8552   003C72  C00D  F006         	movff	ADC_getConversionBlocking@_adc+1,ADC_selectChannel@_adc+1
  8553   003C76  C00E  F007         	movff	ADC_getConversionBlocking@channel,ADC_selectChannel@channel
  8554   003C7A  EC68  F020         	call	_ADC_selectChannel	;wreg free
  8555   003C7E  1611               	andwf	ADC_getConversionBlocking@ret^0,f,c
  8556   003C80                     
  8557                           ;MCAL_Layer/ADC/hal_adc.c: 131:         ret &= ADC_startConversion(_adc);
  8558   003C80  C00C  F001         	movff	ADC_getConversionBlocking@_adc,ADC_startConversion@_adc
  8559   003C84  C00D  F002         	movff	ADC_getConversionBlocking@_adc+1,ADC_startConversion@_adc+1
  8560   003C88  ECB0  F020         	call	_ADC_startConversion	;wreg free
  8561   003C8C  1611               	andwf	ADC_getConversionBlocking@ret^0,f,c
  8562   003C8E                     l73:
  8563   003C8E  B2C2               	btfsc	194,1,c	;volatile
  8564   003C90  EF4C  F01E         	goto	u4171
  8565   003C94  EF4E  F01E         	goto	u4170
  8566   003C98                     u4171:
  8567   003C98  EF47  F01E         	goto	l73
  8568   003C9C                     u4170:
  8569   003C9C                     
  8570                           ;MCAL_Layer/ADC/hal_adc.c: 135:         ret &= ADC_getConversionResult(_adc, result);
  8571   003C9C  C00C  F001         	movff	ADC_getConversionBlocking@_adc,ADC_getConversionResult@_adc
  8572   003CA0  C00D  F002         	movff	ADC_getConversionBlocking@_adc+1,ADC_getConversionResult@_adc+1
  8573   003CA4  C00F  F003         	movff	ADC_getConversionBlocking@result,ADC_getConversionResult@result
  8574   003CA8  C010  F004         	movff	ADC_getConversionBlocking@result+1,ADC_getConversionResult@result+1
  8575   003CAC  ECAD  F01A         	call	_ADC_getConversionResult	;wreg free
  8576   003CB0  1611               	andwf	ADC_getConversionBlocking@ret^0,f,c
  8577   003CB2                     l3951:
  8578                           
  8579                           ;MCAL_Layer/ADC/hal_adc.c: 137:     return ret;
  8580   003CB2  5011               	movf	ADC_getConversionBlocking@ret^0,w,c
  8581   003CB4  0012               	return		;funcret
  8582   003CB6                     __end_of_ADC_getConversionBlocking:
  8583                           	callstack 0
  8584                           
  8585 ;; *************** function _ADC_startConversion *****************
  8586 ;; Defined at:
  8587 ;;		line 80 in file "MCAL_Layer/ADC/hal_adc.c"
  8588 ;; Parameters:    Size  Location     Type
  8589 ;;  _adc            2    0[COMRAM] PTR const struct .
  8590 ;;		 -> adc(4), 
  8591 ;; Auto vars:     Size  Location     Type
  8592 ;;  ret             1    2[COMRAM] unsigned char 
  8593 ;; Return value:  Size  Location     Type
  8594 ;;                  1    wreg      unsigned char 
  8595 ;; Registers used:
  8596 ;;		wreg, status,2, status,0
  8597 ;; Tracked objects:
  8598 ;;		On entry : 0/0
  8599 ;;		On exit  : 0/0
  8600 ;;		Unchanged: 0/0
  8601 ;; Data sizes:     COMRAM   BANK0   BANK1   BANK2   BANK3   BANK4   BANK5   BANK6   BANK7   BANK8   BANK9  BANK10  BANK1
      +1  BANK12  BANK13  BANK14  BANK15
  8602 ;;      Params:         2       0       0       0       0       0       0       0       0       0       0       0       
      +0       0       0       0       0
  8603 ;;      Locals:         1       0       0       0       0       0       0       0       0       0       0       0       
      +0       0       0       0       0
  8604 ;;      Temps:          0       0       0       0       0       0       0       0       0       0       0       0       
      +0       0       0       0       0
  8605 ;;      Totals:         3       0       0       0       0       0       0       0       0       0       0       0       
      +0       0       0       0       0
  8606 ;;Total ram usage:        3 bytes
  8607 ;; Hardware stack levels used: 1
  8608 ;; This function calls:
  8609 ;;		Nothing
  8610 ;; This function is called by:
  8611 ;;		_ADC_getConversionBlocking
  8612 ;; This function uses a non-reentrant model
  8613 ;;
  8614                           
  8615                           	psect	text46
  8616   004160                     __ptext46:
  8617                           	callstack 0
  8618   004160                     _ADC_startConversion:
  8619                           	callstack 29
  8620   004160                     
  8621                           ;MCAL_Layer/ADC/hal_adc.c: 81:     Std_ReturnType ret = (Std_ReturnType)0x00;
  8622   004160  0E00               	movlw	0
  8623   004162  6E03               	movwf	ADC_startConversion@ret^0,c
  8624   004164                     
  8625                           ;MCAL_Layer/ADC/hal_adc.c: 82:     if(((void*)0) != _adc){
  8626   004164  5001               	movf	ADC_startConversion@_adc^0,w,c
  8627   004166  1002               	iorwf	(ADC_startConversion@_adc+1)^0,w,c
  8628   004168  B4D8               	btfsc	status,2,c
  8629   00416A  EFB9  F020         	goto	u3301
  8630   00416E  EFBB  F020         	goto	u3300
  8631   004172                     u3301:
  8632   004172  EFBE  F020         	goto	l60
  8633   004176                     u3300:
  8634   004176                     
  8635                           ;MCAL_Layer/ADC/hal_adc.c: 83:         ret = (Std_ReturnType)0x01;
  8636   004176  0E01               	movlw	1
  8637   004178  6E03               	movwf	ADC_startConversion@ret^0,c
  8638   00417A                     
  8639                           ;MCAL_Layer/ADC/hal_adc.c: 85:         (ADCON0bits.GO_nDONE = 1);
  8640   00417A  82C2               	bsf	194,1,c	;volatile
  8641   00417C                     l60:
  8642                           
  8643                           ;MCAL_Layer/ADC/hal_adc.c: 87:     return ret;
  8644   00417C  5003               	movf	ADC_startConversion@ret^0,w,c
  8645   00417E  0012               	return		;funcret
  8646   004180                     __end_of_ADC_startConversion:
  8647                           	callstack 0
  8648                           
  8649 ;; *************** function _ADC_selectChannel *****************
  8650 ;; Defined at:
  8651 ;;		line 63 in file "MCAL_Layer/ADC/hal_adc.c"
  8652 ;; Parameters:    Size  Location     Type
  8653 ;;  _adc            2    4[COMRAM] PTR const struct .
  8654 ;;		 -> adc(4), 
  8655 ;;  channel         1    6[COMRAM] enum E3430
  8656 ;; Auto vars:     Size  Location     Type
  8657 ;;  ret             1    8[COMRAM] unsigned char 
  8658 ;; Return value:  Size  Location     Type
  8659 ;;                  1    wreg      unsigned char 
  8660 ;; Registers used:
  8661 ;;		wreg, status,2, status,0, cstack
  8662 ;; Tracked objects:
  8663 ;;		On entry : 0/0
  8664 ;;		On exit  : 0/0
  8665 ;;		Unchanged: 0/0
  8666 ;; Data sizes:     COMRAM   BANK0   BANK1   BANK2   BANK3   BANK4   BANK5   BANK6   BANK7   BANK8   BANK9  BANK10  BANK1
      +1  BANK12  BANK13  BANK14  BANK15
  8667 ;;      Params:         3       0       0       0       0       0       0       0       0       0       0       0       
      +0       0       0       0       0
  8668 ;;      Locals:         1       0       0       0       0       0       0       0       0       0       0       0       
      +0       0       0       0       0
  8669 ;;      Temps:          1       0       0       0       0       0       0       0       0       0       0       0       
      +0       0       0       0       0
  8670 ;;      Totals:         5       0       0       0       0       0       0       0       0       0       0       0       
      +0       0       0       0       0
  8671 ;;Total ram usage:        5 bytes
  8672 ;; Hardware stack levels used: 1
  8673 ;; Hardware stack levels required when called: 1
  8674 ;; This function calls:
  8675 ;;		_ADC_Configure_Channel_pin
  8676 ;; This function is called by:
  8677 ;;		_ADC_getConversionBlocking
  8678 ;; This function uses a non-reentrant model
  8679 ;;
  8680                           
  8681                           	psect	text47
  8682   0040D0                     __ptext47:
  8683                           	callstack 0
  8684   0040D0                     _ADC_selectChannel:
  8685                           	callstack 28
  8686   0040D0                     
  8687                           ;MCAL_Layer/ADC/hal_adc.c: 63: Std_ReturnType ADC_selectChannel(const adc_config_t *_adc
      +                          , adc_analog_channel_t channel);MCAL_Layer/ADC/hal_adc.c: 64: {;MCAL_Layer/ADC/hal_adc.c
      +                          : 65:     Std_ReturnType ret = (Std_ReturnType)0x00;
  8688   0040D0  0E00               	movlw	0
  8689   0040D2  6E09               	movwf	ADC_selectChannel@ret^0,c
  8690   0040D4                     
  8691                           ;MCAL_Layer/ADC/hal_adc.c: 66:     if(((void*)0) != _adc){
  8692   0040D4  5005               	movf	ADC_selectChannel@_adc^0,w,c
  8693   0040D6  1006               	iorwf	(ADC_selectChannel@_adc+1)^0,w,c
  8694   0040D8  B4D8               	btfsc	status,2,c
  8695   0040DA  EF71  F020         	goto	u3291
  8696   0040DE  EF73  F020         	goto	u3290
  8697   0040E2                     u3291:
  8698   0040E2  EF80  F020         	goto	l3395
  8699   0040E6                     u3290:
  8700   0040E6                     
  8701                           ;MCAL_Layer/ADC/hal_adc.c: 69:         (ADCON0bits.CHS = channel);
  8702   0040E6  C007  F008         	movff	ADC_selectChannel@channel,??_ADC_selectChannel
  8703   0040EA  4608               	rlncf	??_ADC_selectChannel^0,f,c
  8704   0040EC  4608               	rlncf	??_ADC_selectChannel^0,f,c
  8705   0040EE  50C2               	movf	194,w,c	;volatile
  8706   0040F0  1808               	xorwf	??_ADC_selectChannel^0,w,c
  8707   0040F2  0BC3               	andlw	-61
  8708   0040F4  1808               	xorwf	??_ADC_selectChannel^0,w,c
  8709   0040F6  6EC2               	movwf	194,c	;volatile
  8710   0040F8                     
  8711                           ;MCAL_Layer/ADC/hal_adc.c: 70:         ret = ADC_Configure_Channel_pin(channel);
  8712   0040F8  5007               	movf	ADC_selectChannel@channel^0,w,c
  8713   0040FA  EC3A  F01A         	call	_ADC_Configure_Channel_pin
  8714   0040FE  6E09               	movwf	ADC_selectChannel@ret^0,c
  8715   004100                     l3395:
  8716                           
  8717                           ;MCAL_Layer/ADC/hal_adc.c: 72:     return ret;
  8718   004100  5009               	movf	ADC_selectChannel@ret^0,w,c
  8719   004102  0012               	return		;funcret
  8720   004104                     __end_of_ADC_selectChannel:
  8721                           	callstack 0
  8722                           
  8723 ;; *************** function _ADC_Configure_Channel_pin *****************
  8724 ;; Defined at:
  8725 ;;		line 143 in file "MCAL_Layer/ADC/hal_adc.c"
  8726 ;; Parameters:    Size  Location     Type
  8727 ;;  channel         1    wreg     const enum E3430
  8728 ;; Auto vars:     Size  Location     Type
  8729 ;;  channel         1    2[COMRAM] const enum E3430
  8730 ;;  ret             1    3[COMRAM] unsigned char 
  8731 ;; Return value:  Size  Location     Type
  8732 ;;                  1    wreg      unsigned char 
  8733 ;; Registers used:
  8734 ;;		wreg, status,2, status,0
  8735 ;; Tracked objects:
  8736 ;;		On entry : 0/0
  8737 ;;		On exit  : 0/0
  8738 ;;		Unchanged: 0/0
  8739 ;; Data sizes:     COMRAM   BANK0   BANK1   BANK2   BANK3   BANK4   BANK5   BANK6   BANK7   BANK8   BANK9  BANK10  BANK1
      +1  BANK12  BANK13  BANK14  BANK15
  8740 ;;      Params:         0       0       0       0       0       0       0       0       0       0       0       0       
      +0       0       0       0       0
  8741 ;;      Locals:         2       0       0       0       0       0       0       0       0       0       0       0       
      +0       0       0       0       0
  8742 ;;      Temps:          2       0       0       0       0       0       0       0       0       0       0       0       
      +0       0       0       0       0
  8743 ;;      Totals:         4       0       0       0       0       0       0       0       0       0       0       0       
      +0       0       0       0       0
  8744 ;;Total ram usage:        4 bytes
  8745 ;; Hardware stack levels used: 1
  8746 ;; This function calls:
  8747 ;;		Nothing
  8748 ;; This function is called by:
  8749 ;;		_ADC_intialize
  8750 ;;		_ADC_selectChannel
  8751 ;; This function uses a non-reentrant model
  8752 ;;
  8753                           
  8754                           	psect	text48
  8755   003474                     __ptext48:
  8756                           	callstack 0
  8757   003474                     _ADC_Configure_Channel_pin:
  8758                           	callstack 27
  8759                           
  8760                           ;incstack = 0
  8761                           ;ADC_Configure_Channel_pin@channel stored from wreg
  8762   003474  6E03               	movwf	ADC_Configure_Channel_pin@channel^0,c
  8763   003476                     
  8764                           ;MCAL_Layer/ADC/hal_adc.c: 143: static Std_ReturnType ADC_Configure_Channel_pin(const ad
      +                          c_analog_channel_t channel);MCAL_Layer/ADC/hal_adc.c: 144: {;MCAL_Layer/ADC/hal_adc.c: 1
      +                          45:     Std_ReturnType ret = (Std_ReturnType)0x01;
  8765   003476  0E01               	movlw	1
  8766   003478  6E04               	movwf	ADC_Configure_Channel_pin@ret^0,c
  8767                           
  8768                           ;MCAL_Layer/ADC/hal_adc.c: 146:     switch(channel){
  8769   00347A  EF6A  F01A         	goto	l2921
  8770   00347E                     l2893:
  8771   00347E  8092               	bsf	146,0,c	;volatile
  8772   003480  EFAB  F01A         	goto	l2923
  8773   003484                     l2895:
  8774   003484  8292               	bsf	146,1,c	;volatile
  8775   003486  EFAB  F01A         	goto	l2923
  8776   00348A                     l2897:
  8777   00348A  8492               	bsf	146,2,c	;volatile
  8778   00348C  EFAB  F01A         	goto	l2923
  8779   003490                     l2899:
  8780   003490  8692               	bsf	146,3,c	;volatile
  8781   003492  EFAB  F01A         	goto	l2923
  8782   003496                     l2901:
  8783   003496  8A92               	bsf	146,5,c	;volatile
  8784   003498  EFAB  F01A         	goto	l2923
  8785   00349C                     l2903:
  8786   00349C  8096               	bsf	150,0,c	;volatile
  8787   00349E  EFAB  F01A         	goto	l2923
  8788   0034A2                     l2905:
  8789   0034A2  8296               	bsf	150,1,c	;volatile
  8790   0034A4  EFAB  F01A         	goto	l2923
  8791   0034A8                     l2907:
  8792   0034A8  8496               	bsf	150,2,c	;volatile
  8793   0034AA  EFAB  F01A         	goto	l2923
  8794   0034AE                     l2909:
  8795   0034AE  8493               	bsf	147,2,c	;volatile
  8796   0034B0  EFAB  F01A         	goto	l2923
  8797   0034B4                     l2911:
  8798   0034B4  8693               	bsf	147,3,c	;volatile
  8799   0034B6  EFAB  F01A         	goto	l2923
  8800   0034BA                     l2913:
  8801   0034BA  8293               	bsf	147,1,c	;volatile
  8802   0034BC  EFAB  F01A         	goto	l2923
  8803   0034C0                     l2915:
  8804   0034C0  8893               	bsf	147,4,c	;volatile
  8805   0034C2  EFAB  F01A         	goto	l2923
  8806   0034C6                     l2917:
  8807   0034C6  8093               	bsf	147,0,c	;volatile
  8808   0034C8  EFAB  F01A         	goto	l2923
  8809   0034CC                     l2919:
  8810   0034CC  0E00               	movlw	0
  8811   0034CE  6E04               	movwf	ADC_Configure_Channel_pin@ret^0,c
  8812                           
  8813                           ;MCAL_Layer/ADC/hal_adc.c: 161:     }
  8814   0034D0  EFAB  F01A         	goto	l2923
  8815   0034D4                     l2921:
  8816   0034D4  5003               	movf	ADC_Configure_Channel_pin@channel^0,w,c
  8817   0034D6  6E01               	movwf	??_ADC_Configure_Channel_pin^0,c
  8818   0034D8  6A02               	clrf	(??_ADC_Configure_Channel_pin+1)^0,c
  8819                           
  8820                           ; Switch on 2 bytes has been partitioned into a top level switch of size 1, and 1 sub-sw
      +                          itches
  8821                           ; Switch size 1, requested type "simple"
  8822                           ; Number of cases is 1, Range of values is 0 to 0
  8823                           ; switch strategies available:
  8824                           ; Name         Instructions Cycles
  8825                           ; simple_byte            4     3 (average)
  8826                           ;	Chosen strategy is simple_byte
  8827   0034DA  5002               	movf	(??_ADC_Configure_Channel_pin+1)^0,w,c
  8828   0034DC  0A00               	xorlw	0	; case 0
  8829   0034DE  B4D8               	btfsc	status,2,c
  8830   0034E0  EF74  F01A         	goto	l4223
  8831   0034E4  EF66  F01A         	goto	l2919
  8832   0034E8                     l4223:
  8833                           
  8834                           ; Switch size 1, requested type "simple"
  8835                           ; Number of cases is 13, Range of values is 0 to 12
  8836                           ; switch strategies available:
  8837                           ; Name         Instructions Cycles
  8838                           ; simple_byte           40    21 (average)
  8839                           ;	Chosen strategy is simple_byte
  8840   0034E8  5001               	movf	??_ADC_Configure_Channel_pin^0,w,c
  8841   0034EA  0A00               	xorlw	0	; case 0
  8842   0034EC  B4D8               	btfsc	status,2,c
  8843   0034EE  EF3F  F01A         	goto	l2893
  8844   0034F2  0A01               	xorlw	1	; case 1
  8845   0034F4  B4D8               	btfsc	status,2,c
  8846   0034F6  EF42  F01A         	goto	l2895
  8847   0034FA  0A03               	xorlw	3	; case 2
  8848   0034FC  B4D8               	btfsc	status,2,c
  8849   0034FE  EF45  F01A         	goto	l2897
  8850   003502  0A01               	xorlw	1	; case 3
  8851   003504  B4D8               	btfsc	status,2,c
  8852   003506  EF48  F01A         	goto	l2899
  8853   00350A  0A07               	xorlw	7	; case 4
  8854   00350C  B4D8               	btfsc	status,2,c
  8855   00350E  EF4B  F01A         	goto	l2901
  8856   003512  0A01               	xorlw	1	; case 5
  8857   003514  B4D8               	btfsc	status,2,c
  8858   003516  EF4E  F01A         	goto	l2903
  8859   00351A  0A03               	xorlw	3	; case 6
  8860   00351C  B4D8               	btfsc	status,2,c
  8861   00351E  EF51  F01A         	goto	l2905
  8862   003522  0A01               	xorlw	1	; case 7
  8863   003524  B4D8               	btfsc	status,2,c
  8864   003526  EF54  F01A         	goto	l2907
  8865   00352A  0A0F               	xorlw	15	; case 8
  8866   00352C  B4D8               	btfsc	status,2,c
  8867   00352E  EF57  F01A         	goto	l2909
  8868   003532  0A01               	xorlw	1	; case 9
  8869   003534  B4D8               	btfsc	status,2,c
  8870   003536  EF5A  F01A         	goto	l2911
  8871   00353A  0A03               	xorlw	3	; case 10
  8872   00353C  B4D8               	btfsc	status,2,c
  8873   00353E  EF5D  F01A         	goto	l2913
  8874   003542  0A01               	xorlw	1	; case 11
  8875   003544  B4D8               	btfsc	status,2,c
  8876   003546  EF60  F01A         	goto	l2915
  8877   00354A  0A07               	xorlw	7	; case 12
  8878   00354C  B4D8               	btfsc	status,2,c
  8879   00354E  EF63  F01A         	goto	l2917
  8880   003552  EF66  F01A         	goto	l2919
  8881   003556                     l2923:
  8882                           
  8883                           ;MCAL_Layer/ADC/hal_adc.c: 162:     return ret;
  8884   003556  5004               	movf	ADC_Configure_Channel_pin@ret^0,w,c
  8885   003558  0012               	return		;funcret
  8886   00355A                     __end_of_ADC_Configure_Channel_pin:
  8887                           	callstack 0
  8888                           
  8889 ;; *************** function _ADC_getConversionResult *****************
  8890 ;; Defined at:
  8891 ;;		line 96 in file "MCAL_Layer/ADC/hal_adc.c"
  8892 ;; Parameters:    Size  Location     Type
  8893 ;;  _adc            2    0[COMRAM] PTR const struct .
  8894 ;;		 -> adc(4), 
  8895 ;;  result          2    2[COMRAM] PTR unsigned short 
  8896 ;;		 -> lm35_value(2), 
  8897 ;; Auto vars:     Size  Location     Type
  8898 ;;  ret             1   10[COMRAM] unsigned char 
  8899 ;; Return value:  Size  Location     Type
  8900 ;;                  1    wreg      unsigned char 
  8901 ;; Registers used:
  8902 ;;		wreg, fsr2l, fsr2h, status,2, status,0
  8903 ;; Tracked objects:
  8904 ;;		On entry : 0/0
  8905 ;;		On exit  : 0/0
  8906 ;;		Unchanged: 0/0
  8907 ;; Data sizes:     COMRAM   BANK0   BANK1   BANK2   BANK3   BANK4   BANK5   BANK6   BANK7   BANK8   BANK9  BANK10  BANK1
      +1  BANK12  BANK13  BANK14  BANK15
  8908 ;;      Params:         4       0       0       0       0       0       0       0       0       0       0       0       
      +0       0       0       0       0
  8909 ;;      Locals:         1       0       0       0       0       0       0       0       0       0       0       0       
      +0       0       0       0       0
  8910 ;;      Temps:          6       0       0       0       0       0       0       0       0       0       0       0       
      +0       0       0       0       0
  8911 ;;      Totals:        11       0       0       0       0       0       0       0       0       0       0       0       
      +0       0       0       0       0
  8912 ;;Total ram usage:       11 bytes
  8913 ;; Hardware stack levels used: 1
  8914 ;; This function calls:
  8915 ;;		Nothing
  8916 ;; This function is called by:
  8917 ;;		_ADC_getConversionBlocking
  8918 ;; This function uses a non-reentrant model
  8919 ;;
  8920                           
  8921                           	psect	text49
  8922   00355A                     __ptext49:
  8923                           	callstack 0
  8924   00355A                     _ADC_getConversionResult:
  8925                           	callstack 29
  8926   00355A                     
  8927                           ;MCAL_Layer/ADC/hal_adc.c: 96: Std_ReturnType ADC_getConversionResult(const adc_config_t
      +                           *_adc, converion_result_t *result);MCAL_Layer/ADC/hal_adc.c: 97: {;MCAL_Layer/ADC/hal_a
      +                          dc.c: 98:     Std_ReturnType ret = (Std_ReturnType)0x00;
  8928   00355A  0E00               	movlw	0
  8929   00355C  6E0B               	movwf	ADC_getConversionResult@ret^0,c
  8930   00355E                     
  8931                           ;MCAL_Layer/ADC/hal_adc.c: 99:     if(((void*)0) != _adc && ((void*)0) != result){
  8932   00355E  5001               	movf	ADC_getConversionResult@_adc^0,w,c
  8933   003560  1002               	iorwf	(ADC_getConversionResult@_adc+1)^0,w,c
  8934   003562  B4D8               	btfsc	status,2,c
  8935   003564  EFB6  F01A         	goto	u3311
  8936   003568  EFB8  F01A         	goto	u3310
  8937   00356C                     u3311:
  8938   00356C  EF1C  F01B         	goto	l3429
  8939   003570                     u3310:
  8940   003570  5003               	movf	ADC_getConversionResult@result^0,w,c
  8941   003572  1004               	iorwf	(ADC_getConversionResult@result+1)^0,w,c
  8942   003574  B4D8               	btfsc	status,2,c
  8943   003576  EFBF  F01A         	goto	u3321
  8944   00357A  EFC1  F01A         	goto	u3320
  8945   00357E                     u3321:
  8946   00357E  EF1C  F01B         	goto	l3429
  8947   003582                     u3320:
  8948   003582                     
  8949                           ;MCAL_Layer/ADC/hal_adc.c: 100:         ret = (Std_ReturnType)0x01;
  8950   003582  0E01               	movlw	1
  8951   003584  6E0B               	movwf	ADC_getConversionResult@ret^0,c
  8952   003586                     
  8953                           ;MCAL_Layer/ADC/hal_adc.c: 101:         if(1 == _adc->format_justification){
  8954   003586  EE20 F003          	lfsr	2,3
  8955   00358A  5001               	movf	ADC_getConversionResult@_adc^0,w,c
  8956   00358C  26D9               	addwf	fsr2l,f,c
  8957   00358E  5002               	movf	(ADC_getConversionResult@_adc+1)^0,w,c
  8958   003590  22DA               	addwfc	fsr2h,f,c
  8959   003592  A0DF               	btfss	indf2,0,c
  8960   003594  EFCE  F01A         	goto	u3331
  8961   003598  EFD0  F01A         	goto	u3330
  8962   00359C                     u3331:
  8963   00359C  EFE3  F01A         	goto	l3421
  8964   0035A0                     u3330:
  8965   0035A0                     
  8966                           ;MCAL_Layer/ADC/hal_adc.c: 102:             *result = (converion_result_t)(ADRESL + (ADR
      +                          ESH << 8));
  8967   0035A0  50C4               	movf	196,w,c	;volatile
  8968   0035A2  6E06               	movwf	(??_ADC_getConversionResult+1)^0,c
  8969   0035A4  6A05               	clrf	??_ADC_getConversionResult^0,c
  8970   0035A6  50C3               	movf	195,w,c	;volatile
  8971   0035A8  2405               	addwf	??_ADC_getConversionResult^0,w,c
  8972   0035AA  6E07               	movwf	(??_ADC_getConversionResult+2)^0,c
  8973   0035AC  0E00               	movlw	0
  8974   0035AE  2006               	addwfc	(??_ADC_getConversionResult+1)^0,w,c
  8975   0035B0  6E08               	movwf	(??_ADC_getConversionResult+3)^0,c
  8976   0035B2  C003  FFD9         	movff	ADC_getConversionResult@result,fsr2l
  8977   0035B6  C004  FFDA         	movff	ADC_getConversionResult@result+1,fsr2h
  8978   0035BA  C007  FFDE         	movff	??_ADC_getConversionResult+2,postinc2
  8979   0035BE  C008  FFDD         	movff	??_ADC_getConversionResult+3,postdec2
  8980                           
  8981                           ;MCAL_Layer/ADC/hal_adc.c: 103:         }
  8982   0035C2  EF1C  F01B         	goto	l3429
  8983   0035C6                     l3421:
  8984   0035C6  EE20 F003          	lfsr	2,3
  8985   0035CA  5001               	movf	ADC_getConversionResult@_adc^0,w,c
  8986   0035CC  26D9               	addwf	fsr2l,f,c
  8987   0035CE  5002               	movf	(ADC_getConversionResult@_adc+1)^0,w,c
  8988   0035D0  22DA               	addwfc	fsr2h,f,c
  8989   0035D2  B0DF               	btfsc	indf2,0,c
  8990   0035D4  EFEE  F01A         	goto	u3341
  8991   0035D8  EFF0  F01A         	goto	u3340
  8992   0035DC                     u3341:
  8993   0035DC  EF12  F01B         	goto	l3425
  8994   0035E0                     u3340:
  8995   0035E0                     
  8996                           ;MCAL_Layer/ADC/hal_adc.c: 105:             *result = (converion_result_t)((ADRESL >> 6)
      +                           + (ADRESH << 2));
  8997   0035E0  50C4               	movf	196,w,c	;volatile
  8998   0035E2  6E05               	movwf	??_ADC_getConversionResult^0,c
  8999   0035E4  6A06               	clrf	(??_ADC_getConversionResult+1)^0,c
  9000   0035E6  90D8               	bcf	status,0,c
  9001   0035E8  3605               	rlcf	??_ADC_getConversionResult^0,f,c
  9002   0035EA  3606               	rlcf	(??_ADC_getConversionResult+1)^0,f,c
  9003   0035EC  90D8               	bcf	status,0,c
  9004   0035EE  3605               	rlcf	??_ADC_getConversionResult^0,f,c
  9005   0035F0  3606               	rlcf	(??_ADC_getConversionResult+1)^0,f,c
  9006   0035F2  CFC3 F007          	movff	4035,??_ADC_getConversionResult+2	;volatile
  9007   0035F6  0E06               	movlw	6
  9008   0035F8  6E08               	movwf	(??_ADC_getConversionResult+3)^0,c
  9009   0035FA                     u3355:
  9010   0035FA  90D8               	bcf	status,0,c
  9011   0035FC  3207               	rrcf	(??_ADC_getConversionResult+2)^0,f,c
  9012   0035FE  2E08               	decfsz	(??_ADC_getConversionResult+3)^0,f,c
  9013   003600  EFFD  F01A         	goto	u3355
  9014   003604  5007               	movf	(??_ADC_getConversionResult+2)^0,w,c
  9015   003606  2405               	addwf	??_ADC_getConversionResult^0,w,c
  9016   003608  6E09               	movwf	(??_ADC_getConversionResult+4)^0,c
  9017   00360A  0E00               	movlw	0
  9018   00360C  2006               	addwfc	(??_ADC_getConversionResult+1)^0,w,c
  9019   00360E  6E0A               	movwf	(??_ADC_getConversionResult+5)^0,c
  9020   003610  C003  FFD9         	movff	ADC_getConversionResult@result,fsr2l
  9021   003614  C004  FFDA         	movff	ADC_getConversionResult@result+1,fsr2h
  9022   003618  C009  FFDE         	movff	??_ADC_getConversionResult+4,postinc2
  9023   00361C  C00A  FFDD         	movff	??_ADC_getConversionResult+5,postdec2
  9024                           
  9025                           ;MCAL_Layer/ADC/hal_adc.c: 106:         }
  9026   003620  EF1C  F01B         	goto	l3429
  9027   003624                     l3425:
  9028                           
  9029                           ;MCAL_Layer/ADC/hal_adc.c: 108:             *result = 0;
  9030   003624  C003  FFD9         	movff	ADC_getConversionResult@result,fsr2l
  9031   003628  C004  FFDA         	movff	ADC_getConversionResult@result+1,fsr2h
  9032   00362C  0E00               	movlw	0
  9033   00362E  6EDE               	movwf	postinc2,c
  9034   003630  0E00               	movlw	0
  9035   003632  6EDD               	movwf	postdec2,c
  9036   003634                     
  9037                           ;MCAL_Layer/ADC/hal_adc.c: 109:             ret = (Std_ReturnType)0x00;
  9038   003634  0E00               	movlw	0
  9039   003636  6E0B               	movwf	ADC_getConversionResult@ret^0,c
  9040   003638                     l3429:
  9041                           
  9042                           ;MCAL_Layer/ADC/hal_adc.c: 112:     return ret;
  9043   003638  500B               	movf	ADC_getConversionResult@ret^0,w,c
  9044   00363A  0012               	return		;funcret
  9045   00363C                     __end_of_ADC_getConversionResult:
  9046                           	callstack 0
  9047                           
  9048                           	psect	rparam
  9049   000000                     
  9050                           	psect	idloc
  9051                           
  9052                           ;Config register IDLOC0 @ 0x200000
  9053                           ;	unspecified, using default values
  9054   200000                     	org	2097152
  9055   200000  FF                 	db	255
  9056                           
  9057                           ;Config register IDLOC1 @ 0x200001
  9058                           ;	unspecified, using default values
  9059   200001                     	org	2097153
  9060   200001  FF                 	db	255
  9061                           
  9062                           ;Config register IDLOC2 @ 0x200002
  9063                           ;	unspecified, using default values
  9064   200002                     	org	2097154
  9065   200002  FF                 	db	255
  9066                           
  9067                           ;Config register IDLOC3 @ 0x200003
  9068                           ;	unspecified, using default values
  9069   200003                     	org	2097155
  9070   200003  FF                 	db	255
  9071                           
  9072                           ;Config register IDLOC4 @ 0x200004
  9073                           ;	unspecified, using default values
  9074   200004                     	org	2097156
  9075   200004  FF                 	db	255
  9076                           
  9077                           ;Config register IDLOC5 @ 0x200005
  9078                           ;	unspecified, using default values
  9079   200005                     	org	2097157
  9080   200005  FF                 	db	255
  9081                           
  9082                           ;Config register IDLOC6 @ 0x200006
  9083                           ;	unspecified, using default values
  9084   200006                     	org	2097158
  9085   200006  FF                 	db	255
  9086                           
  9087                           ;Config register IDLOC7 @ 0x200007
  9088                           ;	unspecified, using default values
  9089   200007                     	org	2097159
  9090   200007  FF                 	db	255
  9091                           
  9092                           	psect	config
  9093                           
  9094                           ; Padding undefined space
  9095   300000                     	org	3145728
  9096   300000  FF                 	db	255
  9097                           
  9098                           ;Config register CONFIG1H @ 0x300001
  9099                           ;	unspecified, using default values
  9100                           ;	Oscillator Selection bits
  9101                           ;	OSC = 0x7, unprogrammed default
  9102                           ;	Fail-Safe Clock Monitor Enable bit
  9103                           ;	FCMEN = 0x0, unprogrammed default
  9104                           ;	Internal/External Oscillator Switchover bit
  9105                           ;	IESO = 0x0, unprogrammed default
  9106   300001                     	org	3145729
  9107   300001  07                 	db	7
  9108                           
  9109                           ;Config register CONFIG2L @ 0x300002
  9110                           ;	unspecified, using default values
  9111                           ;	Power-up Timer Enable bit
  9112                           ;	PWRT = 0x1, unprogrammed default
  9113                           ;	Brown-out Reset Enable bits
  9114                           ;	BOREN = 0x3, unprogrammed default
  9115                           ;	Brown Out Reset Voltage bits
  9116                           ;	BORV = 0x3, unprogrammed default
  9117   300002                     	org	3145730
  9118   300002  1F                 	db	31
  9119                           
  9120                           ;Config register CONFIG2H @ 0x300003
  9121                           ;	unspecified, using default values
  9122                           ;	Watchdog Timer Enable bit
  9123                           ;	WDT = 0x1, unprogrammed default
  9124                           ;	Watchdog Timer Postscale Select bits
  9125                           ;	WDTPS = 0xF, unprogrammed default
  9126   300003                     	org	3145731
  9127   300003  1F                 	db	31
  9128                           
  9129                           ; Padding undefined space
  9130   300004                     	org	3145732
  9131   300004  FF                 	db	255
  9132                           
  9133                           ;Config register CONFIG3H @ 0x300005
  9134                           ;	unspecified, using default values
  9135                           ;	CCP2 MUX bit
  9136                           ;	CCP2MX = 0x1, unprogrammed default
  9137                           ;	PORTB A/D Enable bit
  9138                           ;	PBADEN = 0x1, unprogrammed default
  9139                           ;	Low-Power Timer1 Oscillator Enable bit
  9140                           ;	LPT1OSC = 0x0, unprogrammed default
  9141                           ;	MCLR Pin Enable bit
  9142                           ;	MCLRE = 0x1, unprogrammed default
  9143   300005                     	org	3145733
  9144   300005  83                 	db	131
  9145                           
  9146                           ;Config register CONFIG4L @ 0x300006
  9147                           ;	unspecified, using default values
  9148                           ;	Stack Full/Underflow Reset Enable bit
  9149                           ;	STVREN = 0x1, unprogrammed default
  9150                           ;	Single-Supply ICSP Enable bit
  9151                           ;	LVP = 0x1, unprogrammed default
  9152                           ;	Extended Instruction Set Enable bit
  9153                           ;	XINST = 0x0, unprogrammed default
  9154                           ;	Background Debugger Enable bit
  9155                           ;	DEBUG = 0x1, unprogrammed default
  9156   300006                     	org	3145734
  9157   300006  85                 	db	133
  9158                           
  9159                           ; Padding undefined space
  9160   300007                     	org	3145735
  9161   300007  FF                 	db	255
  9162                           
  9163                           ;Config register CONFIG5L @ 0x300008
  9164                           ;	unspecified, using default values
  9165                           ;	Code Protection bit
  9166                           ;	CP0 = 0x1, unprogrammed default
  9167                           ;	Code Protection bit
  9168                           ;	CP1 = 0x1, unprogrammed default
  9169                           ;	Code Protection bit
  9170                           ;	CP2 = 0x1, unprogrammed default
  9171                           ;	Code Protection bit
  9172                           ;	CP3 = 0x1, unprogrammed default
  9173   300008                     	org	3145736
  9174   300008  0F                 	db	15
  9175                           
  9176                           ;Config register CONFIG5H @ 0x300009
  9177                           ;	unspecified, using default values
  9178                           ;	Boot Block Code Protection bit
  9179                           ;	CPB = 0x1, unprogrammed default
  9180                           ;	Data EEPROM Code Protection bit
  9181                           ;	CPD = 0x1, unprogrammed default
  9182   300009                     	org	3145737
  9183   300009  C0                 	db	192
  9184                           
  9185                           ;Config register CONFIG6L @ 0x30000A
  9186                           ;	unspecified, using default values
  9187                           ;	Write Protection bit
  9188                           ;	WRT0 = 0x1, unprogrammed default
  9189                           ;	Write Protection bit
  9190                           ;	WRT1 = 0x1, unprogrammed default
  9191                           ;	Write Protection bit
  9192                           ;	WRT2 = 0x1, unprogrammed default
  9193                           ;	Write Protection bit
  9194                           ;	WRT3 = 0x1, unprogrammed default
  9195   30000A                     	org	3145738
  9196   30000A  0F                 	db	15
  9197                           
  9198                           ;Config register CONFIG6H @ 0x30000B
  9199                           ;	unspecified, using default values
  9200                           ;	Configuration Register Write Protection bit
  9201                           ;	WRTC = 0x1, unprogrammed default
  9202                           ;	Boot Block Write Protection bit
  9203                           ;	WRTB = 0x1, unprogrammed default
  9204                           ;	Data EEPROM Write Protection bit
  9205                           ;	WRTD = 0x1, unprogrammed default
  9206   30000B                     	org	3145739
  9207   30000B  E0                 	db	224
  9208                           
  9209                           ;Config register CONFIG7L @ 0x30000C
  9210                           ;	unspecified, using default values
  9211                           ;	Table Read Protection bit
  9212                           ;	EBTR0 = 0x1, unprogrammed default
  9213                           ;	Table Read Protection bit
  9214                           ;	EBTR1 = 0x1, unprogrammed default
  9215                           ;	Table Read Protection bit
  9216                           ;	EBTR2 = 0x1, unprogrammed default
  9217                           ;	Table Read Protection bit
  9218                           ;	EBTR3 = 0x1, unprogrammed default
  9219   30000C                     	org	3145740
  9220   30000C  0F                 	db	15
  9221                           
  9222                           ;Config register CONFIG7H @ 0x30000D
  9223                           ;	unspecified, using default values
  9224                           ;	Boot Block Table Read Protection bit
  9225                           ;	EBTRB = 0x1, unprogrammed default
  9226   30000D                     	org	3145741
  9227   30000D  40                 	db	64
  9228                           tosu	equ	0xFFF
  9229                           tosh	equ	0xFFE
  9230                           tosl	equ	0xFFD
  9231                           stkptr	equ	0xFFC
  9232                           pclatu	equ	0xFFB
  9233                           pclath	equ	0xFFA
  9234                           pcl	equ	0xFF9
  9235                           tblptru	equ	0xFF8
  9236                           tblptrh	equ	0xFF7
  9237                           tblptrl	equ	0xFF6
  9238                           tablat	equ	0xFF5
  9239                           prodh	equ	0xFF4
  9240                           prodl	equ	0xFF3
  9241                           indf0	equ	0xFEF
  9242                           postinc0	equ	0xFEE
  9243                           postdec0	equ	0xFED
  9244                           preinc0	equ	0xFEC
  9245                           plusw0	equ	0xFEB
  9246                           fsr0h	equ	0xFEA
  9247                           fsr0l	equ	0xFE9
  9248                           wreg	equ	0xFE8
  9249                           indf1	equ	0xFE7
  9250                           postinc1	equ	0xFE6
  9251                           postdec1	equ	0xFE5
  9252                           preinc1	equ	0xFE4
  9253                           plusw1	equ	0xFE3
  9254                           fsr1h	equ	0xFE2
  9255                           fsr1l	equ	0xFE1
  9256                           bsr	equ	0xFE0
  9257                           indf2	equ	0xFDF
  9258                           postinc2	equ	0xFDE
  9259                           postdec2	equ	0xFDD
  9260                           preinc2	equ	0xFDC
  9261                           plusw2	equ	0xFDB
  9262                           fsr2h	equ	0xFDA
  9263                           fsr2l	equ	0xFD9
  9264                           status	equ	0xFD8

Data Sizes:
    Strings     35
    Constant    4
    Data        53
    BSS         52
    Persistent  2
    Stack       0

Auto Spaces:
    Space          Size  Autos    Used
    COMRAM          127    112     126
    BANK0           128      0      93
    BANK1           256      0       0
    BANK2           256      0       0
    BANK3           256      0       0
    BANK4           256      0       0
    BANK5           256      0       0
    BANK6           256      0       0
    BANK7           256      0       0
    BANK8           256      0       0
    BANK9           256      0       0
    BANK10          256      0       0
    BANK11          256      0       0
    BANK12          256      0       0
    BANK13          256      0       0
    BANK14          256      0       0
    BANK15          128      0       0

Pointer List with Targets:

    fputs@s	PTR const unsigned char  size(2) Largest target is 32
		 -> dbuf(BANK0[32]), 

    fputs@fp	PTR struct _IO_FILE size(2) Largest target is 11
		 -> sprintf@f(COMRAM[11]), 

    fputc@fp...source	PTR const unsigned char  size(2) Largest target is 0

    fputc@fp...buffer	PTR unsigned char  size(2) Largest target is 0

    fputc@fp	PTR struct _IO_FILE size(2) Largest target is 11
		 -> sprintf@f(COMRAM[11]), 

    vfprintf@ap	PTR PTR void  size(2) Largest target is 2
		 -> sprintf@ap(COMRAM[2]), 

    vfprintf@fp	PTR struct _IO_FILE size(2) Largest target is 11
		 -> sprintf@f(COMRAM[11]), 

    vfprintf@fmt	PTR const unsigned char  size(2) Largest target is 3
		 -> STR_5(CODE[3]), 

    vfprintf@cfmt	PTR unsigned char  size(2) Largest target is 3
		 -> STR_5(CODE[3]), 

    vfpfcnvrt@fp	PTR struct _IO_FILE size(2) Largest target is 11
		 -> sprintf@f(COMRAM[11]), 

    vfpfcnvrt@ap	PTR PTR void  size(2) Largest target is 2
		 -> sprintf@ap(COMRAM[2]), 

    vfpfcnvrt@cp	PTR unsigned char  size(2) Largest target is 3
		 -> STR_5(CODE[3]), 

    vfpfcnvrt@fmt	PTR PTR unsigned char  size(2) Largest target is 2
		 -> vfprintf@cfmt(COMRAM[2]), 

    S1451$vp	PTR void  size(2) Largest target is 0

    convarg.vp	PTR void  size(2) Largest target is 0

    dtoa@fp	PTR struct _IO_FILE size(2) Largest target is 11
		 -> sprintf@f(COMRAM[11]), 

    pad@buf	PTR unsigned char  size(2) Largest target is 32
		 -> dbuf(BANK0[32]), 

    pad@fp	PTR struct _IO_FILE size(2) Largest target is 11
		 -> sprintf@f(COMRAM[11]), 

    sprintf@fmt	PTR const unsigned char  size(2) Largest target is 3
		 -> STR_5(CODE[3]), 

    sprintf@s	PTR unsigned char  size(2) Largest target is 4
		 -> lm35_value_text(BANK0[4]), 

    sprintf@ap	PTR void [1] size(2) Largest target is 2
		 -> ?_sprintf(COMRAM[2]), 

    S1398$source	PTR const unsigned char  size(2) Largest target is 0

    f...source	PTR const unsigned char  size(2) Largest target is 0

    S1398$buffer	PTR unsigned char  size(2) Largest target is 0

    f...buffer	PTR unsigned char  size(2) Largest target is 0

    memset@dest	PTR void  size(2) Largest target is 4
		 -> lm35_value_text(BANK0[4]), 

    memset@s	PTR unsigned char  size(2) Largest target is 4
		 -> lm35_value_text(BANK0[4]), 

    sp__memset	PTR void  size(2) Largest target is 4
		 -> lm35_value_text(BANK0[4]), 

    lcd_convert_byte_to_string@str	PTR unsigned char  size(2) Largest target is 4
		 -> lm35_value_text(BANK0[4]), 

    lcd_8bit_set_cursor@lcd	PTR const struct . size(2) Largest target is 10
		 -> lcd(BANK0[10]), 

    send_8bit_enable_signal@lcd	PTR const struct . size(2) Largest target is 10
		 -> lcd(BANK0[10]), 

    lcd_8bit_send_string_pos@string	PTR unsigned char  size(2) Largest target is 7
		 -> STR_4(CODE[4]), STR_3(CODE[4]), lm35_value_text(BANK0[4]), STR_2(CODE[7]), 

    lcd_8bit_send_string_pos@lcd	PTR const struct . size(2) Largest target is 10
		 -> lcd(BANK0[10]), 

    lcd_8bit_send_string@string	PTR unsigned char  size(2) Largest target is 17
		 -> STR_4(CODE[4]), STR_3(CODE[4]), lm35_value_text(BANK0[4]), STR_2(CODE[7]), 
		 -> STR_1(CODE[17]), 

    lcd_8bit_send_string@lcd	PTR const struct . size(2) Largest target is 10
		 -> lcd(BANK0[10]), 

    lcd_8bit_send_char_pos@lcd	PTR const struct . size(2) Largest target is 10
		 -> lcd(BANK0[10]), 

    lcd_8bit_send_char@lcd	PTR const struct . size(2) Largest target is 10
		 -> lcd(BANK0[10]), 

    lcd_8bit_send_command@lcd	PTR const struct . size(2) Largest target is 10
		 -> lcd(BANK0[10]), 

    lcd_8bit_intialize@lcd	PTR const struct . size(2) Largest target is 10
		 -> lcd(BANK0[10]), 

    timer2_intialize@_timer	PTR const struct . size(2) Largest target is 3
		 -> timer2(BANK0[3]), 

    CCP1_PWM_Intialize@pwm	PTR const struct . size(2) Largest target is 6
		 -> pwm(BANK0[6]), 

    gpio_pin_intialize@_pin_config	PTR const struct . size(2) Largest target is 10
		 -> lcd.data_lines(BANK0[8]), lcd(BANK0[10]), motor.motor_pin(COMRAM[2]), motor(COMRAM[2]), 

    gpio_pin_write_logic@_pin_config	PTR const struct . size(2) Largest target is 10
		 -> lcd.data_lines(BANK0[8]), lcd(BANK0[10]), motor.motor_pin(COMRAM[2]), motor(COMRAM[2]), 

    gpio_pin_direction_intialize@_pin_config	PTR const struct . size(2) Largest target is 10
		 -> lcd.data_lines(BANK0[8]), lcd(BANK0[10]), motor.motor_pin(COMRAM[2]), motor(COMRAM[2]), 

    lat_registers	PTR volatile unsigned char [5] size(2) Largest target is 1
		 -> LATE(BITBIGSFRlllhh[1]), LATD(BITBIGSFRlllhh[1]), LATC(BITBIGSFRlllhh[1]), LATB(BITBIGSFRlllhh[1]), 
		 -> LATA(BITBIGSFRlllhl[1]), 

    port_registers	PTR volatile unsigned char [5] size(2) Largest target is 1
		 -> PORTE(BITBIGSFRlllhl[1]), PORTD(BITBIGSFRlllhl[1]), PORTC(BITBIGSFRllll[1]), PORTA(BITBIGSFRllll[1]), 
		 -> TRISB(ABS[1]), 

    tris_registers	PTR volatile unsigned char [5] size(2) Largest target is 1
		 -> TRISD(ABS[1]), TRISC(ABS[1]), TRISB(ABS[1]), TRISE(ABS[1]), 
		 -> TRISA(BITBIGSFRllll[1]), 

    ADC_getConversionBlocking@result	PTR unsigned short  size(2) Largest target is 2
		 -> lm35_value(COMRAM[2]), 

    ADC_getConversionBlocking@_adc	PTR const struct . size(2) Largest target is 4
		 -> adc(BANK0[4]), 

    ADC_getConversionResult@result	PTR unsigned short  size(2) Largest target is 2
		 -> lm35_value(COMRAM[2]), 

    ADC_getConversionResult@_adc	PTR const struct . size(2) Largest target is 4
		 -> adc(BANK0[4]), 

    ADC_startConversion@_adc	PTR const struct . size(2) Largest target is 4
		 -> adc(BANK0[4]), 

    ADC_selectChannel@_adc	PTR const struct . size(2) Largest target is 4
		 -> adc(BANK0[4]), 

    ADC_intialize@_adc	PTR const struct . size(2) Largest target is 4
		 -> adc(BANK0[4]), 

    motor_move@motor	PTR const struct . size(2) Largest target is 2
		 -> motor(COMRAM[2]), 

    motor_intialize@motor	PTR const struct . size(2) Largest target is 2
		 -> motor(COMRAM[2]), 


Critical Paths under _main in COMRAM

    _main->_lcd_convert_byte_to_string
    _roundf->___flmul
    ___flsub->___fladd
    _motor_move->_gpio_pin_write_logic
    _lcd_convert_byte_to_string->_sprintf
    _sprintf->_vfprintf
    _vfprintf->_vfpfcnvrt
    _vfpfcnvrt->_dtoa
    _dtoa->_pad
    _pad->_fputs
    _fputs->_fputc
    _abs->___aomod
    _lcd_8bit_send_string_pos->_lcd_8bit_set_cursor
    _lcd_8bit_send_string->_lcd_8bit_send_char
    _lcd_8bit_send_char_pos->_lcd_8bit_set_cursor
    _lcd_8bit_set_cursor->_lcd_8bit_send_command
    _lcd_8bit_send_char->_send_8bit_enable_signal
    _application_intialize->_mcal_layer_int
    _mcal_layer_int->_CCP1_PWM_Intialize
    _CCP1_PWM_Intialize->___lldiv
    ___lldiv->___lmul
    _ADC_intialize->_ADC_Configure_Channel_pin
    _ecu_layer_int->_lcd_8bit_intialize
    _motor_intialize->_gpio_pin_intialize
    _lcd_8bit_intialize->_lcd_8bit_send_command
    _lcd_8bit_send_command->_send_8bit_enable_signal
    _send_8bit_enable_signal->_gpio_pin_write_logic
    _gpio_pin_intialize->_gpio_pin_write_logic
    _CCP1_PWM_Set_Duty->___fltol
    ___fltol->_roundf
    ___flmul->___fldiv
    ___fldiv->___xxtofl
    _ADC_getConversionBlocking->_ADC_getConversionResult
    _ADC_selectChannel->_ADC_Configure_Channel_pin

Critical Paths under _main in BANK0

    None.

Critical Paths under _main in BANK1

    None.

Critical Paths under _main in BANK2

    None.

Critical Paths under _main in BANK3

    None.

Critical Paths under _main in BANK4

    None.

Critical Paths under _main in BANK5

    None.

Critical Paths under _main in BANK6

    None.

Critical Paths under _main in BANK7

    None.

Critical Paths under _main in BANK8

    None.

Critical Paths under _main in BANK9

    None.

Critical Paths under _main in BANK10

    None.

Critical Paths under _main in BANK11

    None.

Critical Paths under _main in BANK12

    None.

Critical Paths under _main in BANK13

    None.

Critical Paths under _main in BANK14

    None.

Critical Paths under _main in BANK15

    None.

Call Graph Tables:

 ---------------------------------------------------------------------------------
 (Depth) Function   	        Calls       Base Space   Used Autos Params    Refs
 ---------------------------------------------------------------------------------
 (0) _main                                                 0     0      0   68398
          _ADC_getConversionBlocking
                  _CCP1_PWM_Set_Duty
                            ___fldiv
                            ___flmul
                            ___fltol
                           ___xxtofl
              _application_intialize
             _lcd_8bit_send_char_pos
               _lcd_8bit_send_string
           _lcd_8bit_send_string_pos
         _lcd_convert_byte_to_string
                         _motor_move
                             _roundf
 ---------------------------------------------------------------------------------
 (1) _roundf                                              26    22      4   10497
                                             64 COMRAM    26    22      4
                            ___fladd
                            ___fldiv (ARG)
                             ___flge
                            ___flmul
                            ___flneg
                            ___flsub
                           ___xxtofl (ARG)
 ---------------------------------------------------------------------------------
 (2) ___flsub                                              8     0      8    3649
                                             16 COMRAM     8     0      8
                            ___fladd
 ---------------------------------------------------------------------------------
 (3) ___fladd                                             16     8      8    3326
                                              0 COMRAM    16     8      8
 ---------------------------------------------------------------------------------
 (2) ___flneg                                              4     0      4     197
                                              0 COMRAM     4     0      4
 ---------------------------------------------------------------------------------
 (2) ___flge                                              12     4      8     486
                                              0 COMRAM    12     4      8
 ---------------------------------------------------------------------------------
 (1) _motor_move                                           3     1      2    1715
                                             10 COMRAM     3     1      2
               _gpio_pin_write_logic
 ---------------------------------------------------------------------------------
 (1) _lcd_convert_byte_to_string                           5     3      2    6816
                                            107 COMRAM     5     3      2
                             _memset
                            _sprintf
 ---------------------------------------------------------------------------------
 (2) _sprintf                                             21    15      6    5570
                                             88 COMRAM    19    13      6
                           _vfprintf
 ---------------------------------------------------------------------------------
 (3) _vfprintf                                             8     2      6    5219
                                             80 COMRAM     8     2      6
                          _vfpfcnvrt
 ---------------------------------------------------------------------------------
 (4) _vfpfcnvrt                                           23    17      6    4869
                                             62 COMRAM    18    12      6
                               _dtoa
                              _fputc
 ---------------------------------------------------------------------------------
 (5) _dtoa                                                35    25     10    3649
                                             27 COMRAM    35    25     10
                            ___aodiv
                            ___aomod
                                _abs
                                _pad
 ---------------------------------------------------------------------------------
 (6) _pad                                                 11     5      6    1999
                                             16 COMRAM    11     5      6
                              _fputc
                              _fputs
 ---------------------------------------------------------------------------------
 (7) _fputs                                                7     3      4     931
                                              9 COMRAM     7     3      4
                              _fputc
 ---------------------------------------------------------------------------------
 (5) _fputc                                                9     5      4     682
                                              0 COMRAM     9     5      4
                              _putch
 ---------------------------------------------------------------------------------
 (6) _putch                                                1     1      0       0
 ---------------------------------------------------------------------------------
 (6) _abs                                                  4     2      2     142
                                             18 COMRAM     4     2      2
                            ___aomod (ARG)
 ---------------------------------------------------------------------------------
 (6) ___aomod                                             18     2     16     448
                                              0 COMRAM    18     2     16
 ---------------------------------------------------------------------------------
 (6) ___aodiv                                             26    10     16     452
                                              0 COMRAM    26    10     16
 ---------------------------------------------------------------------------------
 (2) _memset                                              12     6      6     947
                                              0 COMRAM    12     6      6
 ---------------------------------------------------------------------------------
 (1) _lcd_8bit_send_string_pos                             7     1      6   11576
                                             29 COMRAM     7     1      6
               _lcd_8bit_send_string
                _lcd_8bit_set_cursor
 ---------------------------------------------------------------------------------
 (2) _lcd_8bit_send_string                                 5     1      4    4307
                                             22 COMRAM     5     1      4
                 _lcd_8bit_send_char
 ---------------------------------------------------------------------------------
 (1) _lcd_8bit_send_char_pos                               6     1      5   10530
                                             29 COMRAM     6     1      5
                 _lcd_8bit_send_char
                _lcd_8bit_set_cursor
 ---------------------------------------------------------------------------------
 (2) _lcd_8bit_set_cursor                                  7     3      4    5895
                                             22 COMRAM     7     3      4
              _lcd_8bit_send_command
 ---------------------------------------------------------------------------------
 (3) _lcd_8bit_send_char                                   9     6      3    3869
                                             13 COMRAM     9     6      3
               _gpio_pin_write_logic
            _send_8bit_enable_signal
 ---------------------------------------------------------------------------------
 (1) _application_intialize                                1     1      0   11979
                                             38 COMRAM     1     1      0
                      _ecu_layer_int
                     _mcal_layer_int
 ---------------------------------------------------------------------------------
 (2) _mcal_layer_int                                       1     1      0    1422
                                             37 COMRAM     1     1      0
                      _ADC_intialize
                 _CCP1_PWM_Intialize
                   _timer2_intialize
 ---------------------------------------------------------------------------------
 (3) _timer2_intialize                                     4     2      2     210
                                              0 COMRAM     4     2      2
 ---------------------------------------------------------------------------------
 (3) _CCP1_PWM_Intialize                                  12    10      2     885
                                             25 COMRAM    12    10      2
                            ___lldiv
                             ___lmul
 ---------------------------------------------------------------------------------
 (4) ___lmul                                              12     4      8     414
                                              0 COMRAM    12     4      8
 ---------------------------------------------------------------------------------
 (4) ___lldiv                                             13     5      8     260
                                             12 COMRAM    13     5      8
                             ___lmul (ARG)
 ---------------------------------------------------------------------------------
 (3) _ADC_intialize                                        4     2      2     301
                                              4 COMRAM     4     2      2
          _ADC_Configure_Channel_pin
 ---------------------------------------------------------------------------------
 (2) _ecu_layer_int                                        1     1      0   10532
                                             28 COMRAM     1     1      0
                 _lcd_8bit_intialize
                    _motor_intialize
 ---------------------------------------------------------------------------------
 (3) _motor_intialize                                      3     1      2    2486
                                             14 COMRAM     3     1      2
                 _gpio_pin_intialize
 ---------------------------------------------------------------------------------
 (3) _lcd_8bit_intialize                                   6     4      2    8021
                                             22 COMRAM     6     4      2
                 _gpio_pin_intialize
              _lcd_8bit_send_command
 ---------------------------------------------------------------------------------
 (3) _lcd_8bit_send_command                                9     6      3    5237
                                             13 COMRAM     9     6      3
               _gpio_pin_write_logic
            _send_8bit_enable_signal
 ---------------------------------------------------------------------------------
 (4) _send_8bit_enable_signal                              3     1      2    1791
                                             10 COMRAM     3     1      2
               _gpio_pin_write_logic
 ---------------------------------------------------------------------------------
 (4) _gpio_pin_intialize                                   4     2      2    2318
                                             10 COMRAM     4     2      2
       _gpio_pin_direction_intialize
               _gpio_pin_write_logic
 ---------------------------------------------------------------------------------
 (2) _gpio_pin_write_logic                                10     7      3    1547
                                              0 COMRAM    10     7      3
 ---------------------------------------------------------------------------------
 (5) _gpio_pin_direction_intialize                         9     7      2     255
                                              0 COMRAM     9     7      2
 ---------------------------------------------------------------------------------
 (1) _CCP1_PWM_Set_Duty                                   10    10      0    4993
                                            100 COMRAM    10    10      0
                            ___fldiv
                            ___flmul
                            ___fltol
                           ___xxtofl
 ---------------------------------------------------------------------------------
 (1) ___xxtofl                                            14    10      4     626
                                              0 COMRAM    14    10      4
 ---------------------------------------------------------------------------------
 (1) ___fltol                                             10     6      4     457
                                             90 COMRAM    10     6      4
                            ___fldiv (ARG)
                            ___flmul (ARG)
                           ___xxtofl (ARG)
                             _roundf (ARG)
 ---------------------------------------------------------------------------------
 (2) ___flmul                                             25    17      8    2200
                                             39 COMRAM    25    17      8
                            ___fldiv (ARG)
                           ___xxtofl (ARG)
 ---------------------------------------------------------------------------------
 (1) ___fldiv                                             25    17      8    1551
                                             14 COMRAM    25    17      8
                           ___xxtofl (ARG)
 ---------------------------------------------------------------------------------
 (1) _ADC_getConversionBlocking                            6     1      5    1151
                                             11 COMRAM     6     1      5
            _ADC_getConversionResult
                  _ADC_selectChannel
                _ADC_startConversion
 ---------------------------------------------------------------------------------
 (2) _ADC_startConversion                                  3     1      2     122
                                              0 COMRAM     3     1      2
 ---------------------------------------------------------------------------------
 (2) _ADC_selectChannel                                    5     2      3     289
                                              4 COMRAM     5     2      3
          _ADC_Configure_Channel_pin
 ---------------------------------------------------------------------------------
 (4) _ADC_Configure_Channel_pin                            4     4      0      46
                                              0 COMRAM     4     4      0
 ---------------------------------------------------------------------------------
 (2) _ADC_getConversionResult                             11     7      4     331
                                              0 COMRAM    11     7      4
 ---------------------------------------------------------------------------------
 Estimated maximum stack depth 7
 ---------------------------------------------------------------------------------

 Call Graph Graphs:

 _main (ROOT)
   _ADC_getConversionBlocking
     _ADC_getConversionResult
     _ADC_selectChannel
       _ADC_Configure_Channel_pin
     _ADC_startConversion
   _CCP1_PWM_Set_Duty
     ___fldiv
       ___xxtofl (ARG)
     ___flmul
       ___fldiv (ARG)
       ___xxtofl (ARG)
     ___fltol
       ___fldiv (ARG)
       ___flmul (ARG)
       ___xxtofl (ARG)
       _roundf (ARG)
         ___fladd
         ___fldiv (ARG)
         ___flge (ARG)
         ___flmul (ARG)
         ___flneg (ARG)
         ___flsub (ARG)
           ___fladd
         ___xxtofl (ARG)
     ___xxtofl
   ___fldiv
   ___flmul
   ___fltol
   ___xxtofl
   _application_intialize
     _ecu_layer_int
       _lcd_8bit_intialize
         _gpio_pin_intialize
           _gpio_pin_direction_intialize
           _gpio_pin_write_logic
         _lcd_8bit_send_command
           _gpio_pin_write_logic
           _send_8bit_enable_signal
             _gpio_pin_write_logic
       _motor_intialize
         _gpio_pin_intialize
     _mcal_layer_int
       _ADC_intialize
         _ADC_Configure_Channel_pin
       _CCP1_PWM_Intialize
         ___lldiv
           ___lmul (ARG)
         ___lmul
       _timer2_intialize
   _lcd_8bit_send_char_pos
     _lcd_8bit_send_char
       _gpio_pin_write_logic
       _send_8bit_enable_signal
     _lcd_8bit_set_cursor
       _lcd_8bit_send_command
   _lcd_8bit_send_string
     _lcd_8bit_send_char
   _lcd_8bit_send_string_pos
     _lcd_8bit_send_string
     _lcd_8bit_set_cursor
   _lcd_convert_byte_to_string
     _memset
     _sprintf
       _vfprintf
         _vfpfcnvrt
           _dtoa
             ___aodiv
             ___aomod
             _abs
               ___aomod (ARG)
             _pad
               _fputc
                 _putch
               _fputs
                 _fputc
           _fputc
   _motor_move
     _gpio_pin_write_logic
   _roundf

 Address spaces:
Name               Size   Autos  Total    Cost      Usage
BIGRAM             F7F      0       0      44        0.0%
EEDATA             400      0       0       0        0.0%
BITBANK14          100      0       0      33        0.0%
BANK14             100      0       0      34        0.0%
BITBANK13          100      0       0      31        0.0%
BANK13             100      0       0      32        0.0%
BITBANK12          100      0       0      29        0.0%
BANK12             100      0       0      30        0.0%
BITBANK11          100      0       0      27        0.0%
BANK11             100      0       0      28        0.0%
BITBANK10          100      0       0      25        0.0%
BANK10             100      0       0      26        0.0%
BITBANK9           100      0       0      23        0.0%
BANK9              100      0       0      24        0.0%
BITBANK8           100      0       0      21        0.0%
BANK8              100      0       0      22        0.0%
BITBANK7           100      0       0      19        0.0%
BANK7              100      0       0      20        0.0%
BITBANK6           100      0       0      17        0.0%
BANK6              100      0       0      18        0.0%
BITBANK5           100      0       0      15        0.0%
BANK5              100      0       0      16        0.0%
BITBANK4           100      0       0      13        0.0%
BANK4              100      0       0      14        0.0%
BITBANK3           100      0       0      10        0.0%
BANK3              100      0       0      11        0.0%
BITBANK2           100      0       0       8        0.0%
BANK2              100      0       0       9        0.0%
BITBANK1           100      0       0       6        0.0%
BANK1              100      0       0       7        0.0%
BITBANK15           80      0       0      35        0.0%
BANK15              80      0       0      36        0.0%
BITBANK0            80      0       0       4        0.0%
BANK0               80      0      5D       5       72.7%
BITCOMRAM           7F      0       0       0        0.0%
COMRAM              7F     70      7E       1       99.2%
BITBIGSFRhh         33      0       0      37        0.0%
BITBIGSFRllhhl      26      0       0      40        0.0%
BITBIGSFRhl          5      0       0      38        0.0%
BITBIGSFRlllhh       4      0       0      41        0.0%
BITBIGSFRlllhl       4      0       0      42        0.0%
BITBIGSFRllhhh       1      0       0      39        0.0%
BITBIGSFRllll        1      0       0      43        0.0%
BIGSFR               0      0       0     200        0.0%
BITSFR               0      0       0     200        0.0%
SFR                  0      0       0     200        0.0%
STACK                0      0       0       2        0.0%
NULL                 0      0       0       0        0.0%
ABS                  0      0      DB      12        0.0%
DATA                 0      0      DB       3        0.0%
CODE                 0      0       0       0        0.0%


Microchip Technology PIC18 Macro Assembler V2.40 build 20220703182018 
Symbol Table                                                                                   Fri Aug 04 16:31:32 2023

                       ecu_layer_int@ret 001D                                        l7 40CC  
                                      l8 40CE                             ___fldiv@aexp 0027  
                           ___fldiv@bexp 0026               __end_of_lcd_8bit_send_char 3ACC  
                           ___fldiv@sign 001F          lcd_convert_byte_to_string@index 0070  
                         _mcal_layer_int 4136                                       l11 3FDC  
                                     l12 3FDE                                       l23 419C  
                                     l51 36D0                                       l60 417C  
                                     l61 417E                                       l53 3708  
                                     l46 36A4                                       l57 4102  
                                     l73 3C8E                                       l49 36AC  
                                     l76 3CB4                                       l69 363A  
                                     l95 3558          lcd_convert_byte_to_string@value 006E  
                                    l141 2E18                                      l302 3ACA  
                                    l320 3ED0                                      l208 415E  
                                    l312 3A42                                      l153 2F44  
                                    l305 405C                                      l306 405E  
                                    l316 3F9E                                      l183 3182  
                                    l167 3D20                                      l319 3ECE  
                                    l351 3D7A                                      l352 3D8A  
                                    l192 3C3E                                      l193 3C40  
                                    l329 39AC                                      l337 3912  
                                    l290 3064                                      l178 3470  
                                    l610 338C                                      l179 3472  
                                    l268 41AA                                      l605 3346  
                                    l374 3876                                      l454 28AE  
                                    l614 4096                                      l367 3866  
                                    l296 3B52                                      l467 2B88  
                                    l637 3288                                      l910 3F16  
                                    l922 205A                                      l924 1EBA  
                                    l933 1F00                                      l870 11CC  
                                    l935 1F78                                      l927 1E7E  
                                    l936 1F66                                      l961 17A4  
                                    l954 15AE                                      l971 18D4  
                                    l963 181C                                      l964 180A  
                                    l868 1218                                      l885 1332  
                                    l877 14E8                                      l869 1206  
                                    l958 1912                                      l894 1402  
                                    l895 13F0                                      l995 25CA  
                                    l998 2726                                      _PR2 000FCB  
                      ??_motor_intialize 0011                                      _adc 00AE  
                                    _abs 3FE0                                      _lcd 009E  
                                    _pad 3B54            ADC_getConversionResult@result 0003  
                                    _ret 007A                                      _pwm 00A8  
                                    prod 000FF3                ?_lcd_8bit_send_string_pos 001E  
                                    wreg 000FE8              __end_of_lcd_8bit_set_cursor 39AE  
                           ___flmul@aexp 0039                             ___flmul@bexp 003A  
             ?_ADC_getConversionBlocking 000C                             ___flmul@sign 0034  
                           ___flmul@temp 003F                             ___flmul@prod 003B  
        ADC_getConversionBlocking@result 000F                             ___fltol@exp1 0064  
           ADC_Configure_Channel_pin@ret 0004                                     l1002 2662  
                                   l1015 2A24                                     l1009 26BE  
                                   l1105 37D2                                     l1113 3F5A  
                                   l1050 3B76             __end_of_lcd_8bit_send_string 3A44  
                                   ?_abs 0013                                     l1116 41B0  
                                   l1028 3E38                                     l1124 1CC0  
                                   l1061 238A                                     l1054 3BCC  
                                   l1062 23D0                                     l1080 2CD4  
                                   l1073 2572                                     l3001 2BF8  
                                   l1090 4016                                     l1059 2382  
                                   l3003 2C14                                     l3021 409C  
                                   l3101 3706                                     l1093 401E  
                                   l3005 2C6A                                     l3013 2CAC  
                                   l1086 3E86                                     l3031 2F46  
                                   l3023 40AE                                     l3111 33AC  
                                   l3033 2F4A                                     l3025 40AE  
                                   l3113 33AE                                     l3105 338E  
                                   l3121 3BD2                                     l4001 4024  
                                   l3009 2C9A                                     l3201 10F0  
                                   l3051 2FAA                                     l3035 2F5C  
                                   l3027 40BA                                     l3019 4098  
                                   l3115 3416                                     l3107 3392  
                                   l3131 3C24                                     l3123 3BE4  
                                   l4003 4036                                     l3211 112A  
                                   l3203 10F2                                     l4011 1914  
                                   l3061 3000                                     l3053 2FBA  
                                   l3045 2F7C                                     l3037 2F5C  
                                   l3109 33A4                                     l3133 3C30  
                                   l3125 3BE8                                     l3141 3A48  
                                   l4005 4036                                     l3301 1348  
                                   l3221 113E                                     l3213 112E  
                                   l3205 10FA                                     l4021 19F0  
                                   l4013 1934                                     l4101 21E4  
                                   l3071 3050                                     l3063 3010  
                                   l3055 2FCA                                     l3047 2F98  
                                   l3039 2F68                                     l3135 3C3C  
                                   l3127 3BEA                                     l3119 3BCE  
                                   l3143 3A5A                                     l4007 404A  
                                   l3311 1384                                     l3303 1358  
                                   l3231 1152                                     l3223 1142  
                                   l3215 1132                                     l3207 110A  
                                   l4031 1B7E                                     l4023 1A0C  
                                   l4015 197C                                     l4111 2224  
                                   l4103 21FA                                     l3401 4164  
                                   l3065 3020                                     l3057 2FEA  
                                   l3049 2F9A                                     l3073 3062  
                                   l3081 3652                                     l3129 3C04  
                                   l3153 3A6E                                     l3145 3A5A  
                                   l3161 3AC8                                     l3321 13B0  
                                   l3313 1386                                     l3241 1166  
                                   l3233 1156                                     l3225 1146  
                                   l3217 1136                                     l3209 111C  
                                   l4041 1CB0                                     l4033 1BB0  
                                   l4017 1990                                     l4121 226C  
                                   l4113 2230                                     l4105 21FE  
                                   l3411 355E                                     l3403 4176  
                                   l3067 3030                                     l3059 2FF0  
                                   l3091 36B0                                     l3083 3652  
                                   l3155 3AA8                                     l3147 3A6A  
                                   l3139 3A44                                     l4051 3894  
                                   l3331 13E8                                     l3315 1394  
                                   l3307 136C                                     l3323 13B2  
                                   l3251 11C4                                     l3235 115A  
                                   l3227 114A                                     l3219 113A  
                                   l3243 116A                                     l3171 1046  
                                   l4035 1C1C                                     l4027 1A44  
                                   l4019 19CC                                     l4123 2270  
                                   l4115 2246                                     l4107 220A  
                                   l4131 22A6                                     l3421 35C6  
                                   l3413 3570                                     l3405 417A  
                                   l4221 2E00                                     l3069 3040  
                                   l3093 36CA                                     l3085 3654  
                                   l3077 363C                                     l3157 3AAA  
                                   l2701 278C                                     l4061 38FE  
                                   l4053 38B0                                     l4045 387A  
                                   l3341 1466                                     l3317 139C  
                                   l3309 1376                                     l3325 13C0  
                                   l3261 11FA                                     l3253 11DA  
                                   l3245 116E                                     l3237 115E  
                                   l3229 114E                                     l3173 1056  
                                   l3181 1080                                     l3165 102A  
                                   l4037 1C50                                     l4029 1B12  
                                   l4133 22B8                                     l4125 227C  
                                   l4117 224A                                     l4109 2220  
                                   l3423 35E0                                     l3415 3582  
                                   l4223 34E8                                     l3095 36D2  
                                   l3087 3670                                     l3079 3640  
                                   l3159 3ABA                                     l3511 29FC  
                                   l3503 2982                                     l2711 27D6  
                                   l2703 2790                                     l4055 38CA  
                                   l4063 3910                                     l4047 387E  
                                   l3351 14AC                                     l3335 1412  
                                   l3343 1468                                     l3327 13C4  
                                   l3319 13A0                                     l3271 124A  
                                   l3263 1204                                     l3255 11E6  
                                   l3247 1198                                     l3239 1162  
                                   l3191 10B0                                     l3183 1090  
                                   l3175 1066                                     l3167 1036  
                                   l4039 1C8C                                     l4135 22D6  
                                   l4127 2280                                     l4119 2256  
                                   l3425 3624                                     l3417 3586  
                                   l3409 355A                                     l3601 1E5A  
                                   l2801 2DD4                                     l3097 36F0  
                                   l3089 368A                                     l3441 415C  
                                   l3433 4136                                     l4217 3994  
                                   l3513 2A08                                     l3505 29AE  
                                   l2721 2846                                     l2713 27E4  
                                   l2705 279C                                     l3521 3DFC  
                                   l4057 38D2                                     l4049 3890  
                                   l3361 14D6                                     l3353 14BA  
                                   l3345 1478                                     l3337 141E  
                                   l3329 13D2                                     l3281 1286  
                                   l3273 125A                                     l3265 1226  
                                   l3257 11EA                                     l3249 11B4  
                                   l3193 10BE                                     l3185 1096  
                                   l3177 1076                                     l3169 1044  
                                   l4129 2288                                     l4081 205C  
                                   l3427 3634                                     l3419 35A0  
                                   l3611 1EA8                                     l3603 1E6E  
                                   l3531 1CC2                                     l2803 2E16  
                                   l4219 2F2C                                     l2811 3E88  
                                   l3099 3704                                     l3435 4136  
                                   l3451 39D6                                     l3515 2A0E  
                                   l2723 2858                                     l2715 27F6  
                                   l2707 27BA                                     l2651 3756  
                                   l2643 370A                                     l3371 3E62  
                                   l3523 3E04                                     l4059 38EE  
                                   l3363 14D8                                     l3355 14C0  
                                   l3347 1488                                     l3339 142C  
                                   l3291 12CC                                     l3283 1294  
                                   l3275 1268                                     l3267 1236  
                                   l3259 11F8                                     l3195 10C0  
                                   l3187 10A8                                     l3179 1078  
                                   l4091 212A                                     l4083 2062  
                                   l3429 3638                                     l2901 3496  
                                   l3621 1EF0                                     l3613 1EB8  
                                   l3605 1E7C                                     l3541 1CFE  
                                   l3533 1CCE                                     l3701 159E  
                                   l2821 3EB8                                     l2813 3E8C  
                                   l3381 418C                                     l3437 4142  
                                   l3461 3914                                     l3453 39DA  
                                   l3445 39AE                                     l3517 2A12  
                                   l3509 29C8                                     l2717 2824  
                                   l2709 27C2                                     l2725 285E  
                                   l2741 2A5C                                     l2733 2A26  
                                   l2653 378C                                     l2645 371C  
                                   l2661 3F36                                     l3373 3E7E  
                                   l3525 3E0C                                     l3357 14C2  
                                   l3349 14A8                                     l3293 1300  
                                   l3285 1296                                     l3277 1276  
                                   l3197 10D0                                     l3189 10AA  
                                   l4093 2190                                     l4085 2078  
                                   l2911 34B4                                     l2903 349C  
                                   l3391 40E6                                     l3631 1F30  
                                   l3623 1EFE                                     l3615 1ECA  
                                   l3607 1E88                                     l3551 1D2E  
                                   l3543 1D0E                                     l3535 1CDC  
                                   l3711 15EE                                     l3703 15BE  
                                   l2671 2E52                                     l2815 3E9E  
                                   l3439 414E                                     l3471 3950  
                                   l3463 3918                                     l3455 3A0A  
                                   l3447 39B2                                     l2727 286E  
                                   l2719 2844                                     l2751 2AC4  
                                   l2743 2A6A                                     l2735 2A2A  
                                   l2647 372E                                     l2663 3F3A  
                                   l2831 233C                                     l3367 3E3A  
                                   l3527 3E28                                     l3519 3DEC  
                                   l3359 14C8                                     l3295 1302  
                                   l3287 12A0                                     l3279 1282  
                                   l3199 10E0                                     l4095 21BE  
                                   l4087 20BE                                     l2913 34BA  
                                   l2905 34A2                                     l2921 34D4  
                                   l3393 40F8                                     l3385 40D0  
                                   l3641 1FA2                                     l3633 1F5E  
                                   l3617 1EE0                                     l3625 1F10  
                                   l3609 1EA6                                     l3561 1D64  
                                   l3553 1D34                                     l3545 1D10  
                                   l3537 1CDE                                     l3721 163E  
                                   l3713 15F8                                     l3705 15CE  
                                   l2673 2E5A                                     l2681 2F42  
                                   l2665 2E1A                                     l2817 3E9E  
                                   l3377 4180                                     l3473 3968  
                                   l3465 392A                                     l3449 39C4  
                                   l3457 3A40                                     l2729 288E  
                                   l2753 2AD2                                     l2761 2B38  
                                   l2745 2A8A                                     l2737 2A38  
                                   l2649 3738                                     l2657 3F18  
                                   l2841 23A8                                     l2833 235C  
                                   l2825 22F8                                     l3369 3E46  
                                   l3297 1312                                     l3289 12A6  
                                   l3801 3EE2                                     l4097 21D4  
                                   l4089 20D8                                     l2915 34C0  
                                   l2907 34A8                                     l2923 3556  
                                   l3395 4100                                     l3387 40D4  
                                   l3651 201A                                     l3643 1FCC  
                                   l3627 1F1E                                     l3619 1EE6  
                                   l3571 1DA4                                     l3563 1D74  
                                   l3555 1D42                                     l3539 1CEE  
                                   l3547 1D18                                     l3731 1680  
                                   l3723 164A                                     l3715 160E  
                                   l2675 2EBC                                     l2667 2E1E  
                                   l2819 3EB2                                     l2931 3ACC  
                                   l3379 4180                                     l3467 393A  
                                   l3491 28CE                                     l2691 272C  
                                   l2763 2B48                                     l2755 2B00  
                                   l2747 2AA8                                     l2739 2A58  
                                   l2659 3F24                                     l2771 3B62  
                                   l2851 23E2                                     l2843 23B8  
                                   l2835 2376                                     l2827 2318  
                                   l3811 32F6                                     l3299 1322  
                                   l4099 21D8                                     l2917 34C6  
                                   l2909 34AE                                     l3389 40E6  
                                   l3661 2050                                     l3653 2036  
                                   l3637 1F88                                     l3645 1FD0  
                                   l3629 1F22                                     l3573 1DB4  
                                   l3581 1DD4                                     l3565 1D76  
                                   l3557 1D44                                     l3549 1D28  
                                   l3741 16E2                                     l3733 1690  
                                   l3725 1658                                     l3717 161A  
                                   l3709 15E2                                     l3901 2658  
                                   l2669 2E30                                     l2933 3AD0  
                                   l3477 3980                                     l3469 394A  
                                   l3493 28DA                                     l2693 273A  
                                   l2765 2B68                                     l2757 2B20  
                                   l2749 2AB0                                     l2781 3BB8  
                                   l2773 3B6E                                     l2853 23E8  
                                   l2861 24DA                                     l2845 23C4  
                                   l2837 2392                                     l2829 232C  
                                   l3821 3384                                     l3813 3306  
                                   l3805 328A                                     ?_pad 0011  
                                   l2919 34CC                                     l3399 4160  
                                   l3655 203A                                     l3647 1FEA  
                                   l3639 1F94                                     l3591 1E12  
                                   l3583 1DE4                                     l3575 1DBC  
                                   l3559 1D54                                     l3567 1D7E  
                                   l3751 178A                                     l3743 16FE  
                                   l3735 16AA                                     l3727 1664  
                                   l3719 1632                                     l3671 14F6  
                                   l3911 26CE                                     l3903 2694  
                                   l2791 2CEC                                     l2679 2F18  
                                   l2951 3B42                                     l2935 3AE2  
                                   l3479 39AA                                     l3487 28B0  
                                   l2695 275A                                     l2759 2B32  
                                   l2783 3FE0                                     l2775 3B82  
                                   l2871 2542                                     l2863 24F4  
                                   l2855 246A                                     l2847 23CC  
                                   l2839 23A2                                     l3823 338A  
                                   l3815 3314                                     l3807 32B8  
                                   l3831 4086                                     l3657 2048  
                                   l3649 2000                                     l3593 1E22  
                                   l3585 1DE4                                     l3577 1DC0  
                                   l3569 1D8E                                     l3761 17C6  
                                   l3753 1794                                     l3745 1728  
                                   l3737 16BA                                     l3729 1674  
                                   l3681 1536                                     l3673 1504  
                                   l3841 31AE                                     l3921 2716  
                                   l3913 26D2                                     l3905 26A0  
                                   l2793 2D0E                                     l2881 3CC8  
                                   l2945 3AF6                                     l2937 3AE2  
                                   l2953 3B50                                     l2961 3D40  
                                   l3497 2910                                     l2697 275E  
                                   l2689 2728                                     l2785 3FFA  
                                   l2777 3B96                                     l2769 3B54  
                                   l2873 2552                                     l2865 2512  
                                   l2857 2470                                     l2849 23D8  
                                   l3817 3326                                     l3809 32C8  
                                   l2891 3476                                     l3659 204E  
                                   l3595 1E32                                     l3771 1838  
                                   l3763 17D4                                     l3755 17A2  
                                   l3747 175E                                     l3739 16D6  
                                   l3691 1566                                     l3683 153C  
                                   l3675 1506                                     l3851 31FC  
                                   l3843 31D8                                     l3835 3184  
                                   l3915 26F6                                     l3907 26AE  
                                   l2795 2D16                                     l2787 2CD6  
                                   l2883 3CEA                                     l2947 3B30  
                                   l2939 3AF2                                     l2971 37FA  
                                   l2963 3D50                                     l3499 2968  
                                   l2699 276C                                     l2779 3B9A  
                                   l2867 252C                                     l2859 2476  
                                   l3931 3FB6                                     l3819 3334  
                                   l3827 4060                                     l2893 347E  
                                   l3941 3C58                                     l3597 1E42  
                                   l3589 1DF8                                     l3781 18A2  
                                   l3773 1846                                     l3765 1802  
                                   l3757 17B4                                     l3749 176C  
                                   l3693 1568                                     l3685 154C  
                                   l3677 1516                                     l3669 14EA  
                                   l3861 3228                                     l3845 31DA  
                                   l3837 319A                                     l3917 2706  
                                   l3909 26CC                                     l2797 2D78  
                                   l2789 2CDA                                     l2885 3CF2  
                                   l2877 3CB6                                     l2949 3B32  
                                   l2981 3844                                     l2973 3802  
                                   l2965 3D5A                                     l2957 3D22  
                                   l2869 253C                                     l3933 3FC6  
                                   l3925 3FA0                                     l3829 4076  
                                   l2895 3484                                     l3943 3C6A  
                                   l3951 3CB2                                     l3599 1E4A  
                                   l3791 18F8                                     l3783 18BC  
                                   l3775 1870                                     l3759 17C2  
                                   l3695 1578                                     l3687 1552  
                                   l3679 1526                                     l3871 3258  
                                   l3847 31EA                                     l3919 2714  
                                   l2887 3D1E                                     l2879 3CB6  
                                   l2983 3854                                     l2975 380E  
                                   l2967 37D4                                     l2959 3D32  
                                   l2991 2BAE                                     l3927 3FA4  
                                   l2897 348A                                     l3945 3C6E  
                                   l3937 3C42                                     l3785 18D8  
                                   l3793 18FE                                     l3769 182C  
                                   l3777 1874                                     l3697 1588  
                                   l3689 1558                                     l3873 3268  
                                   l3857 3214                                     l3849 31EE  
                                   l3881 2586                                     l3961 3080  
                                   l2985 3856                                     l2977 381C  
                                   l2969 37E4                                     l2993 2BBC  
                                   l3929 3FB6                                     l2899 3490  
                                   l3947 3C80                                     l3939 3C46  
                                   l3795 1902                                     l3787 18E8  
                                   l3779 188E                                     l3699 1598  
                                   l3875 3278                                     l3867 323C  
                                   l3859 321E                                     l3891 2604  
                                   l3883 2594                                     l3963 3086  
                                   l3971 3180                                     l3955 3068  
                                   l2987 3860                                     l2979 3826  
                                   l2995 2BC8                                     l3949 3C9C  
                                   l3789 18F6                                     l3869 3248  
                                   l3893 260C                                     l3885 25DA  
                                   l3965 3114                                     l3957 306C  
                                   l3981 41A8                                     l2997 2BCC  
                                   l2989 2B8A                                     l3895 2618  
                                   l3887 25F0                                     l3879 2576  
                                   l3967 3154                                     l3959 307C  
                                   l3975 419E                                     l3991 3F72  
                                   l2999 2BDC                                     l3799 3ED2  
                                   l3897 264A                                     l3969 3168  
                                   l3977 419E                                     l3993 3F86  
                                   l3985 3F5C                                     l3899 264C  
                                   l3979 41A2                                     l3995 3F9C  
                                   l3987 3F60                                     l3989 3F72  
                                   l3999 4020                                     STR_1 1005  
                                   STR_2 1016                                     STR_3 1021  
                                   STR_4 101D                                     STR_5 1025  
                                   u3000 11B2                                     u3010 11DA  
                                   u3011 11D6                                     u2220 371C  
                                   u3100 1312                                     u3020 11F8  
                                   u2221 3718                                     u3101 130E  
                                   u3021 11F4                                     _LATA 000F89  
                                   u2310 273A                                     u2230 372E  
                                   u3110 1348                                     u3030 1218  
                                   _LATB 000F8A                                     u2311 2736  
                                   u2231 372A                                     u3111 1344  
                                   u3031 1214                                     _LATC 000F8B  
                                   u4000 3210                                     u2304 2EDC  
                                   u2320 276C                                     u2400 2AA8  
                                   u2240 3756                                     u3200 1412  
                                   u3120 1358                                     u3040 1226  
                                   _LATD 000F8C                                     u4001 320C  
                                   u2305 2ED8                                     u2321 2768  
                                   u2401 2AA4                                     u2241 3752  
                                   u3201 140E                                     u3121 1354  
                                   u3041 1222                                     _LATE 000F8D  
                                   u4010 3238                                     u2410 2AD2  
                                   u2250 378C                                     u3210 142C  
                                   u3130 1384                                     u3050 1236  
                                   u4011 3234                                     u2331 2796  
                                   u2411 2ACE                                     u2251 3788  
                                   u3211 1428                                     u3131 1380  
                                   u3051 1232                                     u3300 4176  
                                   u4020 3258                                     u4100 26BE  
                                   u2340 27BA                                     u2420 2B00  
                                   u2260 3F5A                                     u3220 1466  
                                   u3140 1394                                     u3060 1268  
                                   u3301 4172                                     u4021 3254  
                                   u4101 26BA                                     u2341 27B6  
                                   u2421 2AFC                                     u2261 3F56  
                                   u3221 1462                                     u3141 1390  
                                   u3061 1264                                     u3310 3570  
                                   u4030 3268                                     u4110 26CC  
                                   u2510 2DEC                                     u2270 2E30  
                                   u2350 27E4                                     u2430 2B48  
                                   u3230 1478                                     u3150 13B0  
                                   u3070 1276                                     u3311 356C  
                                   u4031 3264                                     u4111 26C8  
                                   u2511 2DE6                                     u2271 2E2C  
                                   u2351 27E0                                     u2431 2B44  
                                   u3231 1474                                     u3151 13AC  
                                   u3071 1272                                     u3320 3582  
                                   u4120 2706                                     u4040 2586  
                                   u2520 2DEE                                     u2504 2D98  
                                   u2280 2E52                                     u4200 4036  
                                   u3400 3A40                                     u2360 2824  
                                   u2440 3B62                                     u2600 24F4  
                                   u3240 1488                                     u3160 13C0  
                                   u3080 1294                                     u3321 357E  
                                   u4121 2702                                     u4041 2582  
                                   u2505 2D94                                     u2281 2E4E  
                                   u4201 4032                                     u3401 3A3C  
                                   u2361 2820                                     u2441 3B5E  
                                   u2601 24F0                                     u3241 1484  
                                   u3161 13BC                                     u3081 1290  
                                   u3330 35A0                                     u4130 2714  
                                   u4050 2594                                     u2530 3E9E  
                                   u3410 392A                                     u2370 286E  
                                   u2450 3BB8                                     u2610 2512  
                                   u3250 14A8                                     u3170 13D2  
                                   u3090 12CC                                     u4210 1954  
                                   u3331 359C                                     u4131 2710  
                                   u4051 2590                                     u2531 3E9A  
                                   u3411 3926                                     u2371 286A  
                                   u2451 3BB4                                     u2611 250E  
                                   u3251 14A4                                     u3171 13CE  
                                   u3091 12C8                                     u3340 35E0  
                                   u3500 1CEE                                     u4060 25F0  
                                   u2700 3D7A                                     u3420 393A  
                                   u2380 2A38                                     u2460 3FFA  
                                   u2620 252C                                     u2540 2328  
                                   u4300 3890                                     u4140 3FB6  
                                   u3260 14BA                                     u3180 13E8  
                                   u4220 197C                                     u3341 35DC  
                                   u3501 1CEA                                     u4061 25EC  
                                   u2701 3D76                                     u3421 3936  
                                   u2381 2A34                                     u2461 3FF6  
                                   u2621 2528                                     u2541 2322  
                                   u4301 388C                                     u4141 3FB2  
                                   u3261 14B6                                     u3181 13E4  
                                   u4221 1978                                     u4150 3C58  
                                   u3510 1CFE                                     u4070 2646  
                                   u2470 2CEC                                     u2294 2E7A  
                                   u2710 37FA                                     u3430 394A  
                                   u2390 2A6A                                     u2630 253C  
                                   u2550 232A                                     u4310 38EE  
                                   u3270 14D6                                     u3190 13FE  
                                   u4230 19B0                                     u4151 3C54  
                                   u3511 1CFA                                     u4071 2642  
                                   u2471 2CE8                                     u2295 2E76  
                                   u2711 37F6                                     u3431 3946  
                                   u2391 2A66                                     u2631 2538  
                                   u4311 38EA                                     u3271 14D2  
                                   u3191 13FA                                     u4215 194A  
                                   u4160 3C6A                                     u3600 1ECA  
                                   u3520 1D42                                     u4080 2690  
                                   u2480 2D0E                                     u2640 3CC8  
                                   u2800 3652                                     u2720 381C  
                                   u3360 39C4                                     u3440 28CA  
                                   u2560 233C                                     u3280 3E7E  
                                   u4320 3910                                     u4240 19CC  
                                   u4400 2246                                     u4161 3C66  
                                   u3601 1EC6                                     u3521 1D3E  
                                   u4081 268C                                     u2481 2D0A  
                                   u2641 3CC4                                     u2801 364E  
                                   u2721 3818                                     u3361 39C0  
                                   u3441 28C6                                     u2561 2338  
                                   u3281 3E7A                                     u4321 390C  
                                   u4241 19C8                                     u4401 2242  
                                   u3290 40E6                                     u4170 3C9C  
                                   u3610 1EE0                                     u3530 1D54  
                                   u4090 26AE                                     u2650 3CEA  
                                   u2810 36A4                                     u2730 3844  
                                   u3370 39D6                                     u3450 290C  
                                   u2570 2376                                     u4250 1A0C  
                                   u4410 226C                                     u3355 35FA  
                                   u3291 40E2                                     u4171 3C98  
                                   u3611 1EDC                                     u3531 1D50  
                                   u4091 26AA                                     u2651 3CE6  
                                   u2811 36A0                                     u2731 3840  
                                   u3371 39D2                                     u3451 2908  
                                   u2571 2372                                     u4251 1A08  
                                   u4235 19A6                                     u4411 2268  
                                   u3700 201A                                     u3620 1EFE  
                                   u3540 1D64                                     u4180 307C  
                                   u2660 3AE2                                     u2820 36CA  
                                   u3380 3A04                                     u3460 297E  
                                   u2580 23A2                                     u2740 2BAE  
                                   u2900 1056                                     u4260 1B12  
                                   u4420 22B8                                     u3701 2016  
                                   u3621 1EFA                                     u3541 1D60  
                                   u4181 3078                                     u2661 3ADE  
                                   u2821 36C6                                     u3461 297A  
                                   u2581 239E                                     u2741 2BAA  
                                   u2901 1052                                     u4261 1B0E  
                                   u4421 22B4                                     u3710 2048  
                                   u3630 1F1E                                     u3550 1DA4  
                                   u2494 2D36                                     u2830 33A4  
                                   u3390 3A30                                     u4190 3F72  
                                   u3470 29C4                                     u2590 23B8  
                                   u2750 2BF8                                     u2910 1066  
                                   u4270 1BB0                                     u3711 2044  
                                   u3631 1F1A                                     u3551 1DA0  
                                   u2495 2D32                                     u2831 33A0  
                                   u4191 3F6E                                     u3471 29C0  
                                   u2591 23B4                                     u2751 2BF4  
                                   u2911 1062                                     u4271 1BAC  
                                   u3640 1F30                                     u3560 1DE4  
                                   u3800 1748                                     u3720 1504  
                                   u2680 3B42                                     u3480 2A24  
                                   u2760 2C14                                     u2920 10A8  
                                   u4280 1C70                                     u3641 1F2C  
                                   u3561 1DE0                                     u3721 1500  
                                   u2681 3B3E                                     u3481 2A20  
                                   u2761 2C10                                     u2921 10A4  
                                   u3650 1F5E                                     u3570 1E5A  
                                   u3490 1CDC                                     u3810 17A2  
                                   u3730 1516                                     u2674 3B20  
                                   u2770 40AE                                     u2690 3D40  
                                   u2850 3BE4                                     u2930 10BE  
                                   u4290 1C8C                                     u4370 21D4  
                                   u3651 1F5A                                     u3571 1E56  
                                   u3491 1CD8                                     u3811 179E  
                                   u3731 1512                                     u2675 3B1C  
                                   u2771 40AA                                     u2691 3D3C  
                                   u2851 3BE0                                     u3387 39FA  
                                   u2931 10BA                                     u4291 1C88  
                                   u4371 21D0                                     u3660 1F74  
                                   u3580 1E7C                                     u3900 18F6  
                                   u3820 17C2                                     u3740 1526  
                                   u2780 2F5C                                     u2860 3A5A  
                                   u2940 10D0                                     u4380 21FA  
                                   u3661 1F70                                     u3581 1E78  
                                   u3901 18F2                                     u3821 17BE  
                                   u3805 173E                                     u3741 1522  
                                   u4437 2FB0                                     u2781 2F58  
                                   u2845 33C8                                     u2861 3A56  
                                   u3397 3A26                                     u2941 10CC  
                                   u4285 1C66                                     u4381 21F6  
                                   u3670 1F88                                     u3590 1EA6  
                                   u3830 17D4                                     u3750 1566  
                                   u2790 2FAA                                     u3910 32B8  
                                   u2950 10E0                                     u4390 2220  
                                   u3671 1F84                                     u3591 1EA2  
                                   u3831 17D0                                     u3751 1562  
                                   u4447 2FD0                                     u2791 2FA6  
                                   u3911 32B4                                     u2951 10DC  
                                   u4391 221C                                     u3680 1FA2  
                                   u3840 1802                                     u3760 1578  
                                   u2880 3ABA                                     u3920 32F6  
                                   u2960 111C                                     u3681 1F9E  
                                   u3841 17FE                                     u3761 1574  
                                   u4457 2FEC                                     u2881 3AB6  
                                   u3921 32F2                                     u2961 1118  
                                   u3690 1FEA                                     u3850 1818  
                                   u3770 1588                                     u2874 3A98  
                                   u3930 3314                                     u2970 112A  
                                   u2890 1044                                     u3691 1FE6  
                                   u3851 1814                                     u3771 1584  
                                   u2875 3A94                                     u3931 3310  
                                   u2971 1126                                     u2891 1040  
                                   u3860 182C                                     u3780 15BE  
                                   u3940 3334                                     u2980 1198  
                                   u3861 1828                                     u3781 15BA  
                                   u3941 3330                                     u2981 1194  
                                   u3870 1846                                     u3790 15CE  
                                   u3950 3384                                     u2990 11B0  
                                   u3871 1842                                     u3791 15CA  
                                   u3951 3380                                     u2991 11AA  
                                   u3880 188E                                     u3960 4076  
                                   u3881 188A                                     u3961 4072  
                                   u3890 18BC                                     u3970 319A  
                                   u3891 18B8                                     u3971 3196  
                                   u3980 31CE                                     u3990 31FC  
                                   u3991 31F8                                     u3985 31C4  
                                   _TMR2 000FCC                  ??_application_intialize 0027  
                                   abs@a 0013                                     _dbuf 00B6  
                                   _main 205C                                     _dtoa 22F8  
                                   _prec 0073               ADC_getConversionResult@ret 000B  
                                   pad@i 0018                                     pad@p 0015  
                                   fsr1h 000FE2                                     fsr2h 000FDA  
                                   indf1 000FE7                                     indf2 000FDF  
                                   fsr1l 000FE1                                     pad@w 001A  
                                   fsr2l 000FD9                  ?_lcd_8bit_send_char_pos 001E  
                                   prodh 000FF4                                     prodl 000FF3  
                                   start 0000         ADC_getConversionBlocking@channel 000E  
                        ___fldiv@new_exp 0020            __end_of_lcd_8bit_send_command 3B54  
                           ___param_bank 000000                   __end_of_mcal_layer_int 4160  
                                  ??_abs 0015                     _gpio_pin_write_logic 2E1A  
                                  ??_pad 0017                        _CCP1_PWM_Set_Duty 3066  
              ??_ADC_getConversionResult 0005                            ___fltol@sign1 0063  
                        __end_of___aodiv 28B0                          __end_of___fladd 14EA  
                                  ?_main 0001                                    ?_dtoa 001C  
                        __end_of___aomod 2B8A                          __end_of___fldiv 205C  
                        __end_of___flneg 4098                          __end_of___flmul 1914  
                        __end_of___flsub 3F18                          __end_of___fltol 328A  
                        __end_of___lldiv 3878                       ?_CCP1_PWM_Set_Duty 0001  
                           vfpfcnvrt@fmt 0041                                    _PORTA 000F80  
                                  _PORTC 000F82                                    _PORTD 000F83  
                                  _PORTE 000F84                                    _TRISA 000F92  
                                  _TRISB 000F93                                    _TRISC 000F94  
                                  _TRISD 000F95                                    _TRISE 000F96  
                    ___lmul@multiplicand 0005                                    _flags 0075  
                    ??_CCP1_PWM_Set_Duty 0065        __end_of_ADC_getConversionBlocking 3CB6  
            ADC_getConversionResult@_adc 0001                                    _fputc 370A  
                                  _fputs 3F18                                    _motor 007B  
                                  pad@fp 0011                                    _width 0071  
                                  _putch 41B0                                    _toint 1001  
                                  dtoa@d 001E                                    dtoa@i 003C  
                                  dtoa@n 0034                                    dtoa@p 0030  
                                  dtoa@s 003E                                    dtoa@w 0032  
                                  tablat 000FF5           __end_of_lcd_8bit_send_char_pos 4060  
                                  status 000FD8                          __end_of_sprintf 3E3A  
                        __initialization 3D8C                          ?_mcal_layer_int 0001  
                           __end_of_main 22F8                             __end_of_dtoa 2574  
              __end_of_CCP1_PWM_Set_Duty 3184                    ?_gpio_pin_write_logic 0001  
                 lcd_8bit_set_cursor@lcd 0017                   lcd_8bit_set_cursor@ret 001D  
                 lcd_8bit_set_cursor@row 0019                            _lat_registers 0080  
                     _CCP1_PWM_Intialize 338E                                   ??_main 0071  
                                 ??_dtoa 0026                            __activetblptr 000002  
                    ?_CCP1_PWM_Intialize 001A                      _ADC_startConversion 4160  
                                 ?_fputc 0001                                   ?_fputs 000A  
                                 _ADRESH 000FC4                                   _ADRESL 000FC3  
                                 _CCPR1L 000FBE                                   ?_putch 0001  
                      _temperature_level 0076                         __end_of___xxtofl 2728  
                        _lm35_value_text 00D6                     ??_CCP1_PWM_Intialize 001C  
                   ?_ADC_startConversion 0001                             vfprintf@cfmt 0057  
                                 ___flge 328A                                   ___lmul 3D22  
                              ??___aodiv 0011                                ??___fladd 0009  
                              ??___aomod 0011                                ??___fldiv 0017  
                              ??___flneg 0005                                ??___flmul 0030  
                              ??___flsub 0019                                ??___fltol 005F  
                              ??___lldiv 0015                         _timer2_intialize 3BCE  
                   _lcd_8bit_send_string 39AE                                   _memset 28B0  
                                 clear_0 3DD0                                   clear_1 3DDC  
                                 _timer2 00DA                                   isa$std 000001  
                                 pad@buf 0013                                   _roundf 1914  
                                 dtoa@fp 001C              lcd_8bit_send_string_pos@lcd 001E  
                     _tmr2_preload_value 0077              lcd_8bit_send_string_pos@ret 0024  
            lcd_8bit_send_string_pos@row 0020  gpio_pin_direction_intialize@_pin_config 0001  
                                 fputc@c 0001                                   fputs@c 000E  
                                 fputs@i 000F                             __pdataCOMRAM 007A  
                                 fputs@s 000A                             __mediumconst 0000  
                                 tblptrh 000FF7                                   tblptrl 000FF6  
                                 tblptru 000FF8                                   putch@c 0001  
                       __end_of_vfprintf 3E88                                ??_sprintf 005F  
                             ___flge@ff1 0001                               ___flge@ff2 0005  
                           ___xxtofl@arg 000B                             ___xxtofl@exp 000A  
                           ___xxtofl@val 0001                               __accesstop 0080  
                __end_of__initialization 3DE2                               ___flneg@f1 0001  
     lcd_8bit_send_command@line_data_pin 0016                               _lm35_value 0078  
                          ___rparam_used 000001                               ___fltol@f1 005B  
                  ??_ADC_startConversion 0003                   ??_gpio_pin_write_logic 0004  
                         __pcstackCOMRAM 0001                          _motor_intialize 4098  
                  __end_of_ecu_layer_int 419E                             __pidataBANK0 4104  
                          __end_of_fputc 37D4                            __end_of_fputs 3F5C  
                  ?_lcd_8bit_send_string 0017                            __end_of_putch 41B2  
                          __end_of_toint 1005                       _lcd_8bit_intialize 2F46  
                     _lcd_8bit_send_char 3A44              ??_ADC_getConversionBlocking 0011  
                    ?_lcd_8bit_intialize 0017                                  ??_fputc 0005  
                                ??_fputs 000E                                  ??_putch 0001  
                             __pbssBANK0 00B2                      ?_lcd_8bit_send_char 000E  
                             __pnvCOMRAM 007D            __end_of_application_intialize 41AC  
                   ??_lcd_8bit_intialize 0019                                  ?___flge 0001  
                                ?___lmul 0001                                  ?_memset 0001  
                         ___lmul@product 0009                     ??_lcd_8bit_send_char 0011  
                                ?_roundf 0041                                ?___xxtofl 0001  
                         _tris_registers 0094                  __end_of_motor_intialize 40D0  
                       ??_mcal_layer_int 0026                                  __Hparam 0000  
                                __Lparam 0000                _ADC_getConversionBlocking 3C42  
                _send_8bit_enable_signal 3E88                   ??_lcd_8bit_send_string 001B  
                                ___aodiv 2728                                  ___fladd 102A  
                  _lcd_8bit_send_command 3ACC                                  ___aomod 2A26  
                                ___fldiv 1CC2                                  ___flneg 4060  
                                ___flmul 14EA                                  ___flsub 3ED2  
                                ___fltol 3184                                  ___lldiv 37D4  
                              ?_vfprintf 0051                             __psmallconst 1000  
             __end_of_gpio_pin_intialize 3D22                                  __pcinit 3D8C  
                          _ADC_intialize 363C                                  __ramtop 1000  
               _lcd_8bit_send_string_pos 3F5C                                  __ptext0 205C  
                                __ptext1 1914                                  __ptext2 3ED2  
                                __ptext3 102A                                  __ptext4 4060  
                                __ptext5 328A                                  __ptext6 3FA0  
                                __ptext7 3878                                  __ptext8 3DEC  
                                __ptext9 3E3A                   timer2_intialize@_timer 0001  
                              _T2CONbits 000FCA                               ??___xxtofl 0005  
           ??_lcd_convert_byte_to_string 006E                 ADC_selectChannel@channel 0007  
                                _sprintf 3DEC                     end_of_initialization 3DE2  
               __end_of_timer2_intialize 3C42                                  fputc@fp 0003  
                                memset@c 0003                                  memset@k 0009  
                                memset@n 0005                                  memset@s 000B  
                          __Lmediumconst 0000                                  fputs@fp 000C  
                        ___lldiv@divisor 0011                    gpio_pin_intialize@ret 000E  
                        ___lldiv@counter 0019                        __end_of_vfpfcnvrt 2CD6  
                                postdec1 000FE5                                  postdec2 000FDD  
               ?_ADC_getConversionResult 0001                                  postinc0 000FEE  
                                postinc1 000FE6                                  postinc2 000FDE  
                       vfpfcnvrt@convarg 0047                                  roundf@e 004D  
                                roundf@u 0053                                  roundf@x 0041  
                                roundf@y 0057                               ??_vfprintf 0057  
                             _motor_move 3FA0                    _lm35_value_in_celsuis 007D  
                         ?_ADC_intialize 0005             lcd_8bit_send_char_pos@colomn 0021  
          gpio_pin_intialize@_pin_config 000B                        mcal_layer_int@ret 0026  
                            ___fladd@grs 0010               ?_ADC_Configure_Channel_pin 0001  
   __end_of_gpio_pin_direction_intialize 2E1A             _gpio_pin_direction_intialize 2CD6  
                          ___xxtofl@sign 0009                                _TRISCbits 000F94  
                            ___fldiv@grs 0022                              ___fldiv@rem 001B  
                            ___flmul@grs 0035                              _CCP1CONbits 000FBD  
                       ?_motor_intialize 000F                ??_send_8bit_enable_signal 000D  
                  CCP1_PWM_Intialize@ret 0025                    CCP1_PWM_Intialize@pwm 001A  
                 ?_lcd_8bit_send_command 000E           lcd_8bit_send_string_pos@colomn 0021  
                         __end_of___flge 338E                           __end_of___lmul 3D8C  
                            vfpfcnvrt@ap 0043                              vfpfcnvrt@cp 004F  
                            vfpfcnvrt@fp 003F                            __pidataCOMRAM 41AC  
         lcd_8bit_send_string_pos@string 0022                           __end_of_memset 2A26  
                         __end_of_roundf 1CC2            lcd_convert_byte_to_string@ret 006F  
       ADC_Configure_Channel_pin@channel 0003            lcd_convert_byte_to_string@str 006C  
                 _CCP1_PWM_Set_Duty$1765 0067                      start_initialization 3D8C  
      __end_of_ADC_Configure_Channel_pin 355A                 ??_lcd_8bit_send_char_pos 0023  
                            __end_of_abs 4020                              __end_of_pad 3BCE  
          ?_gpio_pin_direction_intialize 0001               lcd_8bit_send_string@string 0019  
            __end_of_ADC_startConversion 4180          __end_of_ADC_getConversionResult 363C  
                            vfprintf@fmt 0053                                 ??___flge 0009  
                               ??___lmul 0009                          ??_ADC_intialize 0007  
                            ?_motor_move 000B                              __pdataBANK0 0080  
                               ??_memset 0007                      _lcd_8bit_set_cursor 3914  
                             memset@dest 0001                 lcd_8bit_send_command@lcd 000E  
                               ??_roundf 0045                 lcd_8bit_send_command@ret 0015  
        __end_of_send_8bit_enable_signal 3ED2                                ___fladd@a 0005  
                              ___fladd@b 0001                                ___fldiv@a 0013  
                              ___fldiv@b 000F                        ADC_intialize@_adc 0005  
                              ___flmul@a 002C                                ___flmul@b 0028  
                            __pbssCOMRAM 0071                                ___flsub@a 0015  
                              ___flsub@b 0011       __end_of_lcd_convert_byte_to_string 3914  
             _lcd_convert_byte_to_string 3878                         ___aodiv@dividend 0001  
                        motor_move@motor 000B                lcd_8bit_send_char_pos@lcd 001E  
              lcd_8bit_send_char_pos@ret 0023                lcd_8bit_send_char_pos@row 0020  
                   ?_lcd_8bit_set_cursor 0017          gpio_pin_direction_intialize@ret 0009  
             ??_lcd_8bit_send_string_pos 0024                    _application_intialize 419E  
                              _dtoa$1479 002E                                 ?___aodiv 0001  
                               ?___fladd 0001                                 ?___aomod 0001  
        gpio_pin_write_logic@_pin_config 0001                                 ?___fldiv 000F  
                       ___aodiv@quotient 0013                                 ?___flneg 0001  
                               ?___flmul 0028                                 ?___flsub 0011  
                               ?___fltol 005B                                 ?___lldiv 000D  
                    timer2_intialize@ret 0004                gpio_pin_write_logic@logic 0003  
           ADC_getConversionBlocking@ret 0011                              __smallconst 1000  
             send_8bit_enable_signal@lcd 000B               send_8bit_enable_signal@ret 000D  
            CCP1_PWM_Set_Duty@duty_cycle 006C                                 ?_sprintf 0059  
                     _gpio_pin_intialize 3CB6                    ??_lcd_8bit_set_cursor 001B  
                      ?_timer2_intialize 0001           ??_gpio_pin_direction_intialize 0003  
                    ?_gpio_pin_intialize 000B                    CCP1_PWM_Set_Duty@duty 006E  
                     ??_timer2_intialize 0003                            _ecu_layer_int 4180  
                  lcd_8bit_intialize@lcd 0017                    lcd_8bit_intialize@pin 001B  
                  lcd_8bit_intialize@ret 001C                                _vfpfcnvrt 2B8A  
                             _ADCON0bits 000FC2                               _ADCON1bits 000FC1  
                             _ADCON2bits 000FC0                     ??_gpio_pin_intialize 000D  
            ??_ADC_Configure_Channel_pin 0001                  _CCP1_PWM_Intialize$1764 0021  
               application_intialize@ret 0027                lcd_8bit_set_cursor@colomn 001A  
                   motor_intialize@motor 000F                  gpio_pin_write_logic@ret 000A  
                      ___lmul@multiplier 0001                                copy_data0 3DA0  
                ??_lcd_8bit_send_command 0011                               roundf@F527 00B2  
                 ?_application_intialize 0001                                 __Hrparam 0000  
                 _lcd_8bit_send_char_pos 4020                               vfprintf@ap 0055  
                               __Lrparam 0000                               vfprintf@fp 0051  
                         ?_ecu_layer_int 0001                               ?_vfpfcnvrt 003F  
                       ADC_intialize@ret 0008                          ___aodiv@divisor 0009  
                        ___aodiv@counter 0011                               sprintf@fmt 005B  
                               ___xxtofl 2574                                 __ptext10 2B8A  
                               __ptext11 22F8                                 __ptext20 3F5C  
                               __ptext12 3B54                                 __ptext21 39AE  
                               __ptext13 3F18                                 __ptext30 37D4  
                               __ptext22 4020                                 __ptext14 370A  
                               __ptext31 363C                                 __ptext23 3914  
                               __ptext15 41B0                                 __ptext40 3066  
                               __ptext32 4180                                 __ptext24 3A44  
                               __ptext16 3FE0                                 __ptext41 2574  
                               __ptext33 4098                                 __ptext25 419E  
                               __ptext17 2A26                                 __ptext42 3184  
                               __ptext34 2F46                                 __ptext26 4136  
                               __ptext18 2728                                 __ptext43 14EA  
                               __ptext35 3ACC                                 __ptext27 3BCE  
                               __ptext19 28B0                                 __ptext44 1CC2  
                               __ptext36 3E88                                 __ptext28 338E  
                               __ptext45 3C42                                 __ptext37 3CB6  
                               __ptext29 3D22                                 __ptext46 4160  
                               __ptext38 2E1A                                 __ptext47 40D0  
                               __ptext39 2CD6                                 __ptext48 3474  
                      _ADC_selectChannel 40D0                                 __ptext49 355A  
                     ?_ADC_selectChannel 0005               __end_of_CCP1_PWM_Intialize 3474  
              _ADC_Configure_Channel_pin 3474         __end_of_lcd_8bit_send_string_pos 3FA0  
                    ??_ADC_selectChannel 0008                     CCP1_PWM_Set_Duty@ret 006B  
                               isa$xinst 000000                   lcd_8bit_send_char@data 0010  
             lcd_8bit_send_char_pos@data 0022                             ??_motor_move 000D  
                               _vfprintf 3E3A                         ___aomod@dividend 0001  
              __end_of_ADC_selectChannel 4104              ?_lcd_convert_byte_to_string 006C  
           __end_of_gpio_pin_write_logic 2F46                            motor_move@ret 000D  
               ?_send_8bit_enable_signal 000B                                sprintf@ap 005F  
                     __end_of_motor_move 3FE0                         ___lldiv@dividend 000D  
                  ADC_selectChannel@_adc 0005                          ??_ecu_layer_int 001D  
                  lcd_8bit_send_char@lcd 000E                    lcd_8bit_send_char@ret 0015  
                     motor_intialize@ret 0011                          ___aomod@divisor 0009  
                  __end_of_ADC_intialize 370A                              ??_vfpfcnvrt 0045  
                        ___aomod@counter 0011          lcd_8bit_send_char@line_data_pin 0016  
                               sprintf@f 0061                                 sprintf@s 0059  
                       ___lldiv@quotient 0015                           _port_registers 008A  
                _ADC_getConversionResult 355A            ADC_getConversionBlocking@_adc 000C  
                ADC_startConversion@_adc 0001                     ADC_selectChannel@ret 0009  
                          ___fladd@signs 000D                  lcd_8bit_send_string@lcd 0017  
                lcd_8bit_send_string@ret 001B                             ___aodiv@sign 0012  
                 ADC_startConversion@ret 0003             lcd_8bit_send_command@command 0010  
                           ___fladd@aexp 000E                             ___fladd@bexp 000F  
                           ___aomod@sign 0012               __end_of_lcd_8bit_intialize 3066  
                            _roundf$1766 004F                              _roundf$1767 0049  
